ASxxxx Linker V03.00 + NoICE + sdld,  page 1.
Hexadecimal  [32-Bits]

Area                                    Addr        Size        Decimal Bytes (Attributes)
--------------------------------        ----        ----        ------- ----- ------------
.  .ABS.                            00000000    00000000 =           0. bytes (ABS,CON)

      Value  Global                              Global Defined In Module
      -----  --------------------------------   ------------------------
     00000000  .__.ABS.                           
     00000000  l__BSEG                         
     00000000  l__BSS                          
     00000000  l__CABS                         
     00000000  l__DABS                         
     00000000  l__HEADER                       
     00000000  l__HEAP                         
     00000000  l__HOME                         
     00000000  s__CABS                         
     00000000  s__DABS                         
     00000000  s__HEADER                       
     00000000  s__HEADER0                      
     00000000  s__HEADER1                      
     00000001  l__GSFINAL                      
     00000003  l__HEADER0                      
     00000009  l__HEADER1                      
     0000000F  l__GSINIT                       
     000002CC  l__INITIALIZED                  
     000002CC  l__INITIALIZER                  
     000002EB  l__DATA                         
     00002038  s__CODE                         
     00005892  l__CODE                         
     000078CA  s__DATA                         
     00007BB5  s__INITIALIZED                  
     00007E81  s__GSINIT                       
     00007E81  s__HOME                         
     00007E90  s__GSFINAL                      
     00007E91  s__INITIALIZER                  
     0000815D  s__BSEG                         
     0000815D  s__BSS                          
     0000815D  s__HEAP                         

ASxxxx Linker V03.00 + NoICE + sdld,  page 2.
Hexadecimal  [32-Bits]

Area                                    Addr        Size        Decimal Bytes (Attributes)
--------------------------------        ----        ----        ------- ----- ------------
_CODE                               00002038    00005892 =       22674. bytes (REL,CON)

      Value  Global                              Global Defined In Module
      -----  --------------------------------   ------------------------
     00002038  _asm_data_quezesto                 alien6
     00002038  _asm_data_quezesto_start           alien6
     0000216E  _asm_data_quezesto_end             alien6
     0000216E  _interrupciones                    alien6
     0000216E  _interrupciones_start              alien6
     00002192  _SONG_0                            alien6
     00002192  _interrupciones_end                alien6
     0000261F  _direccionLinea                    alien6
     000027AF  _getTime                           alien6
     000027AF  _getTime_start                     alien6
     000027BD  _getTime_end                       alien6
     000027BD  _halt_me                           alien6
     000027BD  _halt_me_start                     alien6
     000027C3  _halt_me_end                       alien6
     000027C3  _scr_waitVSYNC                     alien6
     000027C3  _scr_waitVSYNC_start               alien6
     000027CB  _pause                             alien6
     000027CB  _pause_start                       alien6
     000027CB  _scr_waitVSYNC_end                 alien6
     000027D9  _pause_end                         alien6
     000027D9  _set_colours                       alien6
     000027D9  _set_colours_start                 alien6
     000027F4  _detectarColision                  alien6
     000027F4  _detectarColision_start            alien6
     000027F4  _set_colours_end                   alien6
     00002880  _detectarColision_end              alien6
     00002880  _letrasColorAzul                   alien6
     00002880  _letrasColorAzul_start             alien6
     000028A5  _letrasColorAzul_end               alien6
     000028A5  _letrasColorRojo                   alien6
     000028A5  _letrasColorRojo_start             alien6
     000028CA  _letrasColorRojo_end               alien6
     000028CA  _pixelEstrella                     alien6
     000028CA  _pixelEstrella_start               alien6
     000028D8  _GetMode0PixelColorByte            alien6
     000028D8  _GetMode0PixelColorByte_start      alien6
     000028D8  _pixelEstrella_end                 alien6
     00002939  _GetMode0PixelColorByte_end        alien6
     00002939  _inicializarEstrellas              alien6
     00002939  _inicializarEstrellas_start        alien6
     00002A43  _borrarEstrellas                   alien6
     00002A43  _borrarEstrellas_start             alien6
     00002A43  _inicializarEstrellas_end          alien6
     00002ABB  _borrarEstrellas_end               alien6
     00002ABB  _pintarEstrellas                   alien6
     00002ABB  _pintarEstrellas_start             alien6
     00002B65  _moverEstrellas                    alien6
     00002B65  _moverEstrellas_start              alien6
     00002B65  _pintarEstrellas_end               alien6
     00002BC4  _inicializarExplosiones            alien6
ASxxxx Linker V03.00 + NoICE + sdld,  page 3.
Hexadecimal  [32-Bits]

Area                                    Addr        Size        Decimal Bytes (Attributes)
--------------------------------        ----        ----        ------- ----- ------------
_CODE                               00002038    00005892 =       22674. bytes (REL,CON)

      Value  Global                              Global Defined In Module
      -----  --------------------------------   ------------------------
     00002BC4  _inicializarExplosiones_start      alien6
     00002BC4  _moverEstrellas_end                alien6
     00002C58  _crearExplosion                    alien6
     00002C58  _crearExplosion_start              alien6
     00002C58  _inicializarExplosiones_end        alien6
     00002DCE  _actualizarExplosiones             alien6
     00002DCE  _actualizarExplosiones_start       alien6
     00002DCE  _crearExplosion_end                alien6
     00002E92  _actualizarExplosiones_end         alien6
     00002E92  _animarExplosiones                 alien6
     00002E92  _animarExplosiones_start           alien6
     00002EFE  _animarExplosiones_end             alien6
     00002EFE  _inicializarDisparosMalos          alien6
     00002EFE  _inicializarDisparosMalos_start    alien6
     00002F70  _borrarDisparosMalos               alien6
     00002F70  _borrarDisparosMalos_start         alien6
     00002F70  _inicializarDisparosMalos_end      alien6
     00003044  _borrarDisparosMalos_end           alien6
     00003044  _moverDisparosMalos                alien6
     00003044  _moverDisparosMalos_start          alien6
     00003145  _crearDisparoMalo                  alien6
     00003145  _crearDisparoMalo_start            alien6
     00003145  _moverDisparosMalos_end            alien6
     000031DE  _crearDisparoMalo_end              alien6
     000031DE  _pintarDisparosMalo                alien6
     000031DE  _pintarDisparosMalo_start          alien6
     000032D0  _inicializarAddones                alien6
     000032D0  _inicializarAddones_start          alien6
     000032D0  _pintarDisparosMalo_end            alien6
     00003305  _crearAddon                        alien6
     00003305  _crearAddon_start                  alien6
     00003305  _inicializarAddones_end            alien6
     0000338E  _borrarAddones                     alien6
     0000338E  _borrarAddones_start               alien6
     0000338E  _crearAddon_end                    alien6
     00003444  _borrarAddones_end                 alien6
     00003444  _moverAddones                      alien6
     00003444  _moverAddones_start                alien6
     0000354A  _moverAddones_end                  alien6
     0000354A  _pintarAddones                     alien6
     0000354A  _pintarAddones_start               alien6
     00003623  _inicializarAtaques                alien6
     00003623  _inicializarAtaques_start          alien6
     00003623  _pintarAddones_end                 alien6
     00003656  _crearAtaque                       alien6
     00003656  _crearAtaque_start                 alien6
     00003656  _inicializarAtaques_end            alien6
     0000368F  _crearAtaque_end                   alien6
     0000368F  _malosACero                        alien6
     0000368F  _malosACero_start                  alien6
     0000371B  _cargarMalo                        alien6
ASxxxx Linker V03.00 + NoICE + sdld,  page 4.
Hexadecimal  [32-Bits]

Area                                    Addr        Size        Decimal Bytes (Attributes)
--------------------------------        ----        ----        ------- ----- ------------
_CODE                               00002038    00005892 =       22674. bytes (REL,CON)

      Value  Global                              Global Defined In Module
      -----  --------------------------------   ------------------------
     0000371B  _cargarMalo_start                  alien6
     0000371B  _malosACero_end                    alien6
     000038D2  _cargarMalo_end                    alien6
     000038D2  _inicializarMalos                  alien6
     000038D2  _inicializarMalos_start            alien6
     00003D01  _borrarMalos                       alien6
     00003D01  _borrarMalos_start                 alien6
     00003D01  _inicializarMalos_end              alien6
     00003E38  _borrarMalos_end                   alien6
     00003E38  _moverMalos                        alien6
     00003E38  _moverMalos_start                  alien6
     000042A4  _moverMalos_end                    alien6
     000042A4  _pintarMalos                       alien6
     000042A4  _pintarMalos_start                 alien6
     000043DF  _inicializarDisparos               alien6
     000043DF  _inicializarDisparos_start         alien6
     000043DF  _pintarMalos_end                   alien6
     0000444D  _crearDisparo                      alien6
     0000444D  _crearDisparo_start                alien6
     0000444D  _inicializarDisparos_end           alien6
     00004513  _borrarDisparos                    alien6
     00004513  _borrarDisparos_start              alien6
     00004513  _crearDisparo_end                  alien6
     000045FD  _borrarDisparos_end                alien6
     000045FD  _moverDisparos                     alien6
     000045FD  _moverDisparos_start               alien6
     000048ED  _moverDisparos_end                 alien6
     000048ED  _pintarDisparos                    alien6
     000048ED  _pintarDisparos_start              alien6
     00004A27  _inicializarProta                  alien6
     00004A27  _inicializarProta_start            alien6
     00004A27  _pintarDisparos_end                alien6
     00004A6D  _borrarProta                       alien6
     00004A6D  _borrarProta_start                 alien6
     00004A6D  _inicializarProta_end              alien6
     00004AB3  _borrarProta_end                   alien6
     00004AB3  _moverProta                        alien6
     00004AB3  _moverProta_start                  alien6
     00004BD8  _moverProta_end                    alien6
     00004BD8  _pintarProta                       alien6
     00004BD8  _pintarProta_start                 alien6
     00004C1D  _inicializarTeclado                alien6
     00004C1D  _inicializarTeclado_start          alien6
     00004C1D  _pintarProta_end                   alien6
     00004CAE  _inicializarTeclado_end            alien6
     00004CAE  _mostrarVidasProta                 alien6
     00004CAE  _mostrarVidasProta_start           alien6
     00004D09  _mostrarNivel                      alien6
     00004D09  _mostrarNivel_start                alien6
     00004D09  _mostrarVidasProta_end             alien6
     00004DF3  _inicializarPartida                alien6
ASxxxx Linker V03.00 + NoICE + sdld,  page 5.
Hexadecimal  [32-Bits]

Area                                    Addr        Size        Decimal Bytes (Attributes)
--------------------------------        ----        ----        ------- ----- ------------
_CODE                               00002038    00005892 =       22674. bytes (REL,CON)

      Value  Global                              Global Defined In Module
      -----  --------------------------------   ------------------------
     00004DF3  _inicializarPartida_start          alien6
     00004DF3  _mostrarNivel_end                  alien6
     00004E08  _debug                             alien6
     00004E08  _debug_start                       alien6
     00004E08  _inicializarPartida_end            alien6
     00004E92  _debug_end                         alien6
     00004ED7  _help                              alien6
     00004ED7  _help_start                        alien6
     00004F77  _help_end                          alien6
     00005082  _gameOver                          alien6
     00005082  _gameOver_start                    alien6
     00005106  _gameOver_end                      alien6
     0000514D  _levelUp                           alien6
     0000514D  _levelUp_start                     alien6
     000051D5  _levelUp_end                       alien6
     0000521C  _win                               alien6
     0000521C  _win_start                         alien6
     000052A0  _win_end                           alien6
     000052E7  _redefineKeys                      alien6
     000052E7  _redefineKeys_start                alien6
     000053BC  _redefineKeys_end                  alien6
     000053FA  _pintarMenu                        alien6
     000053FA  _pintarMenu_start                  alien6
     00005469  _pintarMenu_end                    alien6
     000054CA  _menu                              alien6
     000054CA  _menu_start                        alien6
     00005565  _inicializarNivel                  alien6
     00005565  _inicializarNivel_start            alien6
     00005565  _menu_end                          alien6
     00005628  _inicializarNivel_end              alien6
     00005646  _game                              alien6
     00005646  _game_start                        alien6
     0000587B  _game_end                          alien6
     00005880  _InitialSetUp                      alien6
     00005880  _InitialSetUp_start                alien6
     000058D7  _InitialSetUp_end                  alien6
     000058D7  _main                              alien6
     000058D7  _main_start                        alien6
     0000598D  __clock                            crt0
     0000598D  _main_end                          alien6
     0000598E  _exit                              crt0
     0000598F  _putchar                           
     0000598F  _putchar_rr_s                      
     00005998  _putchar_rr_dbs                    
     0000599D  _cpc_AnyKeyPressed                 
     000059CC  _cpc_AssignKey                     
     000059E9  _cpc_TestKey                       
     00005A08  _cpc_RedefineKey                   
     00005A79  _cpc_DeleteKeys                    
     00005A87  _cpc_TestKeyF                      
     00005AAF  _cpc_ScanKeyboard                  
ASxxxx Linker V03.00 + NoICE + sdld,  page 6.
Hexadecimal  [32-Bits]

Area                                    Addr        Size        Decimal Bytes (Attributes)
--------------------------------        ----        ----        ------- ----- ------------
_CODE                               00002038    00005892 =       22674. bytes (REL,CON)

      Value  Global                              Global Defined In Module
      -----  --------------------------------   ------------------------
     00005AE2  cpc_TestKeyboard                   
     00005B9F  _cpc_PrintGphStr2X                 
     00005BB6  _cpc_PrintGphStrXY2X               
     00005BD0  _cpc_PrintGphStrXY                 
     00005BE8  _cpc_PrintGphStr                   
     00005D3A  _cpc_SetInkGphStr                  
     00005D4E  _cpc_PrintGphStrXYM1               
     00005D67  _cpc_PrintGphStrXYM12X             
     00005D81  _cpc_PrintGphStrM12X               
     00005D98  _cpc_PrintGphStrM1                 
     00005E8E  _cpc_SetInkGphStrM1                
     00006047  _cpc_WyzConfigurePlayer            
     00006050  _cpc_WyzInitPlayer                 
     0000607B  _cpc_WyzLoadSong                   
     00006083  _cpc_WyzSetTempo                   
     0000608C  _cpc_WyzStartEffect                
     00006096  _cpc_WyzTestPlayer                 
     0000609E  _cpc_WyzPlayer                     
     0000609E  _cpc_WyzSetPlayerOn                
     000060C7  _cpc_WyzSetPlayerOff               
     000060C7  _cpc_WyzSetPlayerOff1              
     000067EB  _cpc_SetMode                       
     000067F9  _cpc_SetModo                       
     00006801  _cpc_SetColour                     
     00006813  _cpc_SetInk                        
     0000681E  _cpc_SetBorder                     
     00006827  _cpc_Random                        
     00006836  _cpc_ClrScr                        
     00006844  _cpc_PrintStr                      
     00006864  _cpc_DisableFirmware               
     00006877  _cpc_EnableFirmware                
     00006884  _cpc_GetScrAddress                 
     000068F5  _cpc_RLI                           
     00006931  _cpc_RRI                           
     0000696D  _cpc_CollSp                        
     000069E2  __divsuchar_rrx_s                  
     000069EE  __divuschar_rrx_s                  
     000069FD  __moduchar_rrx_s                   
     00006A04  __moduchar_rrx_hds                 
     00006A09  __moduint_rrx_s                    
     00006A0F  __moduint_rrx_hds                  
     00006A34  _vsprintf                          sprintf
     00006A34  _vsprintf_start                    sprintf
     00006A69  _sprintf                           sprintf
     00006A69  _sprintf_start                     sprintf
     00006A69  _vsprintf_end                      sprintf
     00006AA0  __divsint_rrx_s                    
     00006AA0  _sprintf_end                       sprintf
     00006AA9  __divschar_rrx_s                   
     00006AB0  __div8                             
     00006AB0  __divschar_rrx_hds                 
ASxxxx Linker V03.00 + NoICE + sdld,  page 7.
Hexadecimal  [32-Bits]

Area                                    Addr        Size        Decimal Bytes (Attributes)
--------------------------------        ----        ----        ------- ----- ------------
_CODE                               00002038    00005892 =       22674. bytes (REL,CON)

      Value  Global                              Global Defined In Module
      -----  --------------------------------   ------------------------
     00006AB4  __div_signexte                     
     00006AB8  __div16                            
     00006AB8  __divsint_rrx_hds                  
     00006ADE  __get_remainder                    
     00006AE8  _cpc_PutSprite                     
     00006B8F  _cpc_PutSp                         
     00006BD0  _cpc_PutSp4x14                     
     00006C06  _cpc_PutSpXOR                      
     00006C2A  _cpc_PutSpriteXOR                  
     00006C60  _cpc_PutSpTr                       
     00006CC4  _cpc_GetSp                         
     00006CE5  cpc_GetSp0                         
     00006D05  _cpc_PutMaskSp                     
     00006D4B  _cpc_PutMaskSprite                 
     00006D60  _cpc_PutMaskSp2x8                  
     00006D99  _cpc_PutMaskSp4x16                 
     00006DE0  __divuint_rrx_s                    
     00006DE8  __divuchar_rrx_s                   
     00006DEF  __divu8                            
     00006DEF  __divuchar_rrx_hds                 
     00006DF2  __divu16                           
     00006DF2  __divuint_rrx_hds                  
     00006F30  __print_format                     printf_large
     00006F30  __print_format_start               printf_large
     000078AF  __print_format_end                 printf_large
     000078BA  _strlen                            
     000078C9  __sdcc_call_hl                     

ASxxxx Linker V03.00 + NoICE + sdld,  page 8.
Hexadecimal  [32-Bits]

Area                                    Addr        Size        Decimal Bytes (Attributes)
--------------------------------        ----        ----        ------- ----- ------------
_DATA                               000078CA    000002EB =         747. bytes (REL,CON)

      Value  Global                              Global Defined In Module
      -----  --------------------------------   ------------------------
     000078CA  _aStars                            alien6
     0000791A  _disparos                          alien6
     00007983  _disparos_activos                  alien6
     00007984  _disparosMalos                     alien6
     000079D8  _disparos_activos_malos            alien6
     000079D9  _prota                             alien6
     000079F8  _malos                             alien6
     00007AA0  _malos_activos                     alien6
     00007AA1  _explosiones                       alien6
     00007B61  _explosiones_activas               alien6
     00007B62  _explosion_sprite                  alien6
     00007B72  _explosiones_lastUpdated           alien6
     00007B76  _state                             alien6
     00007B77  _previous_state                    alien6
     00007B78  _nivel                             alien6
     00007B79  _hostilidad                        alien6
     00007B7A  _aux_txt                           alien6
     00007B80  _velXForm                          alien6
     00007B81  _velYForm                          alien6
     00007B82  _stepCount                         alien6
     00007B83  _formMoved                         alien6
     00007B84  _ataques                           alien6
     00007B96  _ataques_activos                   alien6
     00007B97  _max_ataques_activos               alien6
     00007B98  _addones                           alien6
     00007BAC  _addones_activos                   alien6
     00007BAD  _addon_sprite                      alien6
ASxxxx Linker V03.00 + NoICE + sdld,  page 9.
Hexadecimal  [32-Bits]

Area                                    Addr        Size        Decimal Bytes (Attributes)
--------------------------------        ----        ----        ------- ----- ------------
_INITIALIZED                        00007BB5    000002CC =         716. bytes (REL,CON)

      Value  Global                              Global Defined In Module
      -----  --------------------------------   ------------------------
     00007BB5  _trayectoria1                      alien6
     00007BC9  _tintas                            alien6
     00007BDA  _nave                              alien6
     00007C1A  _shot                              alien6
     00007C1E  _baddie01                          alien6
     00007C5A  _explosion02000                    alien6
     00007C9A  _explosion02001                    alien6
     00007CDA  _explosion02002                    alien6
     00007D1A  _explosion02003                    alien6
     00007D5A  _shot2                             alien6
     00007D66  _shot3                             alien6
     00007D6E  _heart                             alien6
     00007D7D  _plane                             alien6
     00007D8C  _greenFlag                         alien6
     00007D98  _redFlag                           alien6
     00007DA4  _baddie02                          alien6
     00007DC4  _baddie03                          alien6
     00007DE4  _toque000                          alien6
     00007DF4  _toque001                          alien6
     00007E04  _toque002                          alien6
     00007E14  _toque003                          alien6
     00007E24  _fire000                           alien6
     00007E28  _fire001                           alien6
     00007E2C  _fire002                           alien6
     00007E30  _addon000                          alien6
     00007E3F  _addon001                          alien6
     00007E4E  _addon002                          alien6
     00007E5D  _addon003                          alien6
     00007E6C  _timer0                            alien6
     00007E6E  _timer1                            alien6
     00007E70  _nFPS                              alien6
     00007E71  _nTimeLast                         alien6
     00007E75  _nStar                             alien6
     00007E76  _pStar                             alien6
     00007E78  _lastMovedEstrella                 alien6
     00007E7C  _estrellasMovidas                  alien6
     00007E7D  _MAX_DISPAROS_MALOS                alien6
     00007E7E  _score                             alien6
     00007E80  _cambio_score                      alien6
ASxxxx Linker V03.00 + NoICE + sdld,  page 10.
Hexadecimal  [32-Bits]

Area                                    Addr        Size        Decimal Bytes (Attributes)
--------------------------------        ----        ----        ------- ----- ------------
_GSINIT                             00007E81    0000000F =          15. bytes (REL,CON)

      Value  Global                              Global Defined In Module
      -----  --------------------------------   ------------------------
     00007E81  gsinit                             crt0

ASxxxx Linker V03.00 + NoICE + sdld,  page 11.
Hexadecimal  [32-Bits]

Area                                    Addr        Size        Decimal Bytes (Attributes)
--------------------------------        ----        ----        ------- ----- ------------
_GSFINAL                            00007E90    00000001 =           1. bytes (REL,CON)

      Value  Global                              Global Defined In Module
      -----  --------------------------------   ------------------------
ASxxxx Linker V03.00 + NoICE + sdld,  page 12.
Hexadecimal  [32-Bits]

Area                                    Addr        Size        Decimal Bytes (Attributes)
--------------------------------        ----        ----        ------- ----- ------------
_INITIALIZER                        00007E91    000002CC =         716. bytes (REL,CON)

      Value  Global                              Global Defined In Module
      -----  --------------------------------   ------------------------
ASxxxx Linker V03.00 + NoICE + sdld,  page 13.
Hexadecimal  [32-Bits]

Area                                    Addr        Size        Decimal Bytes (Attributes)
--------------------------------        ----        ----        ------- ----- ------------
_HEADER0                            00000000    00000003 =           3. bytes (ABS,CON)

      Value  Global                              Global Defined In Module
      -----  --------------------------------   ------------------------
ASxxxx Linker V03.00 + NoICE + sdld,  page 14.
Hexadecimal  [32-Bits]

Area                                    Addr        Size        Decimal Bytes (Attributes)
--------------------------------        ----        ----        ------- ----- ------------
_HEADER1                            00000000    00000009 =           9. bytes (ABS,CON)

      Value  Global                              Global Defined In Module
      -----  --------------------------------   ------------------------
ASxxxx Linker V03.00 + NoICE + sdld,  page 15.

Files Linked                              [ module(s) ]

alien6.rel                                [ alien6 ]
crt0_cpc.rel                              [ crt0 ]
putchar_cpc.rel                           [  ]


Libraries Linked                          [ object file ]

C:\Program Files\SDCC\bin\..\lib\z80/cpcrslib.lib
                                          [ Keyboard.rel ]
C:\Program Files\SDCC\bin\..\lib\z80/cpcrslib.lib
                                          [ GphStr.rel ]
C:\Program Files\SDCC\bin\..\lib\z80/cpcwyzlib.lib
                                          [ Wyz.rel ]
C:\Program Files\SDCC\bin\..\lib\z80/cpcrslib.lib
                                          [ cpcrslib.rel ]
C:\Program Files\SDCC\bin\..\lib\z80/z80.lib
                                          [ divmixed.rel ]
C:\Program Files\SDCC\bin\..\lib\z80/z80.lib
                                          [ modunsigned.rel ]
C:\Program Files\SDCC\bin\..\lib\z80/z80.lib
                                          [ sprintf.rel ]
C:\Program Files\SDCC\bin\..\lib\z80/z80.lib
                                          [ divsigned.rel ]
C:\Program Files\SDCC\bin\..\lib\z80/cpcrslib.lib
                                          [ Sprites.rel ]
C:\Program Files\SDCC\bin\..\lib\z80/z80.lib
                                          [ divunsigned.rel ]
C:\Program Files\SDCC\bin\..\lib\z80/z80.lib
                                          [ printf_large.rel ]
C:\Program Files\SDCC\bin\..\lib\z80/z80.lib
                                          [ strlen.rel ]
C:\Program Files\SDCC\bin\..\lib\z80/z80.lib
                                          [ crtcall.rel ]

ASxxxx Linker V03.00 + NoICE + sdld,  page 16.

User Base Address Definitions

_CODE = 0x2038
_DATA = 0x0000

