                              1 ;--------------------------------------------------------
                              2 ; File Created by SDCC : free open source ANSI-C Compiler
                              3 ; Version 3.4.0 #8981 (Apr  5 2014) (MINGW64)
                              4 ; This file was generated Tue Nov 18 03:19:30 2014
                              5 ;--------------------------------------------------------
                              6 	.module alien6
                              7 	.optsdcc -mz80
                              8 	
                              9 ;--------------------------------------------------------
                             10 ; Public variables in this module
                             11 ;--------------------------------------------------------
                             12 	.globl _main
                             13 	.globl _InitialSetUp
                             14 	.globl _game
                             15 	.globl _inicializarNivel
                             16 	.globl _menu
                             17 	.globl _pintarMenu
                             18 	.globl _redefineKeys
                             19 	.globl _win
                             20 	.globl _protaDead
                             21 	.globl _levelUp
                             22 	.globl _gameOver
                             23 	.globl _help
                             24 	.globl _debug
                             25 	.globl _inicializarPartida
                             26 	.globl _pintarBanderasNivel
                             27 	.globl _mostrarVidasProta
                             28 	.globl _inicializarTeclado
                             29 	.globl _pintarProta
                             30 	.globl _moverProta
                             31 	.globl _borrarProta
                             32 	.globl _inicializarProta
                             33 	.globl _pintarDisparos
                             34 	.globl _borrarDisparos
                             35 	.globl _moverDisparos
                             36 	.globl _crearDisparo
                             37 	.globl _inicializarDisparos
                             38 	.globl _pintarMalos
                             39 	.globl _borrarMalos
                             40 	.globl _moverMalos
                             41 	.globl _inicializarMalos
                             42 	.globl _cargarMalo
                             43 	.globl _crearAtaque
                             44 	.globl _inicializarAtaques
                             45 	.globl _pintarAddones
                             46 	.globl _moverAddones
                             47 	.globl _borrarAddones
                             48 	.globl _crearAddon
                             49 	.globl _inicializarAddones
                             50 	.globl _pintarDisparosMalos
                             51 	.globl _borrarDisparosMalos
                             52 	.globl _moverDisparosMalos
                             53 	.globl _crearDisparoMalo
                             54 	.globl _inicializarDisparosMalos
                             55 	.globl _animarExplosiones
                             56 	.globl _actualizarExplosiones
                             57 	.globl _crearExplosion
                             58 	.globl _inicializarExplosiones
                             59 	.globl _actualizarExplosionProta
                             60 	.globl _animarExplosionProta
                             61 	.globl _crearExplosionProta
                             62 	.globl _moverEstrellas
                             63 	.globl _pintarEstrellas
                             64 	.globl _borrarEstrellas
                             65 	.globl _inicializarEstrellas
                             66 	.globl _GetMode0PixelColorByte
                             67 	.globl _pixelEstrella
                             68 	.globl _letrasColorRojo
                             69 	.globl _letrasColorAzul
                             70 	.globl _detectarColision
                             71 	.globl _set_colours
                             72 	.globl _pause
                             73 	.globl _scr_waitVSYNC
                             74 	.globl _halt_me
                             75 	.globl _getTime
                             76 	.globl _timerOff
                             77 	.globl _timerOn
                             78 	.globl _printSpriteXOR
                             79 	.globl _asm_data_quezesto
                             80 	.globl _cpc_WyzInitPlayer
                             81 	.globl _cpc_WyzSetPlayerOff
                             82 	.globl _cpc_WyzSetPlayerOn
                             83 	.globl _cpc_WyzStartEffect
                             84 	.globl _cpc_WyzLoadSong
                             85 	.globl _cpc_SetInkGphStr
                             86 	.globl _cpc_PrintGphStrXY2X
                             87 	.globl _cpc_PrintGphStrXY
                             88 	.globl _cpc_PrintGphStr
                             89 	.globl _cpc_DisableFirmware
                             90 	.globl _cpc_RedefineKey
                             91 	.globl _cpc_TestKey
                             92 	.globl _cpc_AssignKey
                             93 	.globl _cpc_ScanKeyboard
                             94 	.globl _cpc_AnyKeyPressed
                             95 	.globl _cpc_PutSpXOR
                             96 	.globl _cpc_ClrScr
                             97 	.globl _cpc_Random
                             98 	.globl _cpc_SetColour
                             99 	.globl _cpc_SetMode
                            100 	.globl _sprintf
                            101 	.globl _cambio_score
                            102 	.globl _score
                            103 	.globl _estrellasMovidas
                            104 	.globl _lastMovedEstrella
                            105 	.globl _pStar
                            106 	.globl _nStar
                            107 	.globl _nTimeLast
                            108 	.globl _nFPS
                            109 	.globl _timer1
                            110 	.globl _timer0
                            111 	.globl _addones003
                            112 	.globl _addones002
                            113 	.globl _addones001
                            114 	.globl _addones000
                            115 	.globl _fire002
                            116 	.globl _fire001
                            117 	.globl _fire000
                            118 	.globl _toque004
                            119 	.globl _toque003
                            120 	.globl _toque002
                            121 	.globl _toque001
                            122 	.globl _toque000
                            123 	.globl _baddie03
                            124 	.globl _baddie02
                            125 	.globl _redFlag
                            126 	.globl _greenFlag
                            127 	.globl _plane
                            128 	.globl _heart2
                            129 	.globl _heart
                            130 	.globl _shot3
                            131 	.globl _shot2
                            132 	.globl _explosion02004
                            133 	.globl _explosion02003
                            134 	.globl _explosion02002
                            135 	.globl _explosion02001
                            136 	.globl _explosion02000
                            137 	.globl _baddie01
                            138 	.globl _shot
                            139 	.globl _nave
                            140 	.globl _tintas
                            141 	.globl _trayectoria1
                            142 	.globl _addon_sprite
                            143 	.globl _addones_activos
                            144 	.globl _addones
                            145 	.globl _max_ataques_activos
                            146 	.globl _ataques_activos
                            147 	.globl _ataques
                            148 	.globl _formMoved
                            149 	.globl _stepCount
                            150 	.globl _velYForm
                            151 	.globl _velXForm
                            152 	.globl _aux_txt
                            153 	.globl _hostilidad
                            154 	.globl _nivel
                            155 	.globl _previous_state
                            156 	.globl _state
                            157 	.globl _fin_explosion_prota
                            158 	.globl _explosion_prota_activada
                            159 	.globl _fase_explosion_prota
                            160 	.globl _explosion_prota_lastUpdated
                            161 	.globl _explosiones_prota
                            162 	.globl _explosiones_lastUpdated
                            163 	.globl _explosion_sprite
                            164 	.globl _explosiones_activas
                            165 	.globl _explosiones
                            166 	.globl _malos_activos
                            167 	.globl _malos
                            168 	.globl _prota
                            169 	.globl _MAX_DISPAROS_MALOS
                            170 	.globl _disparos_malos_activos
                            171 	.globl _disparosMalos
                            172 	.globl _disparos_activos
                            173 	.globl _disparos
                            174 	.globl _aStars
                            175 	.globl _direccionLinea
                            176 	.globl _SONG_0
                            177 ;--------------------------------------------------------
                            178 ; special function registers
                            179 ;--------------------------------------------------------
                            180 ;--------------------------------------------------------
                            181 ; ram data
                            182 ;--------------------------------------------------------
                            183 	.area _DATA
   0000                     184 _aStars::
   0000                     185 	.ds 80
   0050                     186 _disparos::
   0050                     187 	.ds 75
   009B                     188 _disparos_activos::
   009B                     189 	.ds 1
   009C                     190 _disparosMalos::
   009C                     191 	.ds 60
   00D8                     192 _disparos_malos_activos::
   00D8                     193 	.ds 1
   00D9                     194 _MAX_DISPAROS_MALOS::
   00D9                     195 	.ds 1
   00DA                     196 _prota::
   00DA                     197 	.ds 25
   00F3                     198 _malos::
   00F3                     199 	.ds 174
   01A1                     200 _malos_activos::
   01A1                     201 	.ds 1
   01A2                     202 _explosiones::
   01A2                     203 	.ds 192
   0262                     204 _explosiones_activas::
   0262                     205 	.ds 1
   0263                     206 _explosion_sprite::
   0263                     207 	.ds 16
   0273                     208 _explosiones_lastUpdated::
   0273                     209 	.ds 4
   0277                     210 _explosiones_prota::
   0277                     211 	.ds 20
   028B                     212 _explosion_prota_lastUpdated::
   028B                     213 	.ds 4
   028F                     214 _fase_explosion_prota::
   028F                     215 	.ds 1
   0290                     216 _explosion_prota_activada::
   0290                     217 	.ds 1
   0291                     218 _fin_explosion_prota::
   0291                     219 	.ds 1
   0292                     220 _state::
   0292                     221 	.ds 1
   0293                     222 _previous_state::
   0293                     223 	.ds 1
   0294                     224 _nivel::
   0294                     225 	.ds 1
   0295                     226 _hostilidad::
   0295                     227 	.ds 1
   0296                     228 _aux_txt::
   0296                     229 	.ds 6
   029C                     230 _velXForm::
   029C                     231 	.ds 1
   029D                     232 _velYForm::
   029D                     233 	.ds 1
   029E                     234 _stepCount::
   029E                     235 	.ds 1
   029F                     236 _formMoved::
   029F                     237 	.ds 1
   02A0                     238 _ataques::
   02A0                     239 	.ds 18
   02B2                     240 _ataques_activos::
   02B2                     241 	.ds 1
   02B3                     242 _max_ataques_activos::
   02B3                     243 	.ds 1
   02B4                     244 _addones::
   02B4                     245 	.ds 20
   02C8                     246 _addones_activos::
   02C8                     247 	.ds 1
   02C9                     248 _addon_sprite::
   02C9                     249 	.ds 8
                            250 ;--------------------------------------------------------
                            251 ; ram data
                            252 ;--------------------------------------------------------
                            253 	.area _INITIALIZED
   0000                     254 _trayectoria1::
   0000                     255 	.ds 20
   0014                     256 _tintas::
   0014                     257 	.ds 17
   0025                     258 _nave::
   0025                     259 	.ds 64
   0065                     260 _shot::
   0065                     261 	.ds 4
   0069                     262 _baddie01::
   0069                     263 	.ds 60
   00A5                     264 _explosion02000::
   00A5                     265 	.ds 64
   00E5                     266 _explosion02001::
   00E5                     267 	.ds 64
   0125                     268 _explosion02002::
   0125                     269 	.ds 64
   0165                     270 _explosion02003::
   0165                     271 	.ds 64
   01A5                     272 _explosion02004::
   01A5                     273 	.ds 64
   01E5                     274 _shot2::
   01E5                     275 	.ds 12
   01F1                     276 _shot3::
   01F1                     277 	.ds 8
   01F9                     278 _heart::
   01F9                     279 	.ds 15
   0208                     280 _heart2::
   0208                     281 	.ds 17
   0219                     282 _plane::
   0219                     283 	.ds 15
   0228                     284 _greenFlag::
   0228                     285 	.ds 12
   0234                     286 _redFlag::
   0234                     287 	.ds 12
   0240                     288 _baddie02::
   0240                     289 	.ds 32
   0260                     290 _baddie03::
   0260                     291 	.ds 32
   0280                     292 _toque000::
   0280                     293 	.ds 16
   0290                     294 _toque001::
   0290                     295 	.ds 16
   02A0                     296 _toque002::
   02A0                     297 	.ds 16
   02B0                     298 _toque003::
   02B0                     299 	.ds 16
   02C0                     300 _toque004::
   02C0                     301 	.ds 16
   02D0                     302 _fire000::
   02D0                     303 	.ds 4
   02D4                     304 _fire001::
   02D4                     305 	.ds 4
   02D8                     306 _fire002::
   02D8                     307 	.ds 4
   02DC                     308 _addones000::
   02DC                     309 	.ds 32
   02FC                     310 _addones001::
   02FC                     311 	.ds 32
   031C                     312 _addones002::
   031C                     313 	.ds 32
   033C                     314 _addones003::
   033C                     315 	.ds 32
   035C                     316 _timer0::
   035C                     317 	.ds 2
   035E                     318 _timer1::
   035E                     319 	.ds 2
   0360                     320 _nFPS::
   0360                     321 	.ds 1
   0361                     322 _nTimeLast::
   0361                     323 	.ds 4
   0365                     324 _nStar::
   0365                     325 	.ds 1
   0366                     326 _pStar::
   0366                     327 	.ds 2
   0368                     328 _lastMovedEstrella::
   0368                     329 	.ds 4
   036C                     330 _estrellasMovidas::
   036C                     331 	.ds 1
   036D                     332 _score::
   036D                     333 	.ds 2
   036F                     334 _cambio_score::
   036F                     335 	.ds 1
                            336 ;--------------------------------------------------------
                            337 ; absolute external ram data
                            338 ;--------------------------------------------------------
                            339 	.area _DABS (ABS)
                            340 ;--------------------------------------------------------
                            341 ; global & static initialisations
                            342 ;--------------------------------------------------------
                            343 	.area _HOME
                            344 	.area _GSINIT
                            345 	.area _GSFINAL
                            346 	.area _GSINIT
                            347 ;--------------------------------------------------------
                            348 ; Home
                            349 ;--------------------------------------------------------
                            350 	.area _HOME
                            351 	.area _HOME
                            352 ;--------------------------------------------------------
                            353 ; code
                            354 ;--------------------------------------------------------
                            355 	.area _CODE
                            356 ;datos.h:11: void asm_data_quezesto(void) {
                            357 ;	---------------------------------
                            358 ; Function asm_data_quezesto
                            359 ; ---------------------------------
   0000                     360 _asm_data_quezesto_start::
   0000                     361 _asm_data_quezesto:
                            362 ;datos.h:127: __endasm;
   0000                     363 	_SONG_TABLE_0:
   0000r5Fr01               364 	.dw _SONG_0
   0002                     365 	_RULE_TABLE_0:
   0002r10r00r19r00r2Er00   366 	.dw PAUTA_0,PAUTA_1,PAUTA_2,PAUTA_3,PAUTA_4,PAUTA_5,PAUTA_6
       r3Dr00r4Er00r6Dr00
       r7Ar00
   0010                     367 	PAUTA_0:
   0010 2E 00 0C 00 0A 00   368 	.DB #46,#0,#12,#0,#10,#0,#9,#0,#129
        09 00 81
   0019                     369 	PAUTA_1:
   0019 2E 00 0D 00 0C 00   370 	.DB #46,#0,#13,#0,#12,#0,#10,#0,#10,#0,#9,#0,#8,#0,#12,#0,#10,#0,#9,#0,#129
        0A 00 0A 00 09 00
        08 00 0C 00 0A 00
        09 00 81
   002E                     371 	PAUTA_2:
   002E 07 00 08 00 09 00   372 	.DB #7,#0,#8,#0,#9,#0,#9,#0,#8,#0,#7,#0,#6,#0,#129
        09 00 08 00 07 00
        06 00 81
   003D                     373 	PAUTA_3:
   003D 2D 00 0C 00 0C 00   374 	.DB #45,#0,#12,#0,#12,#0,#11,#0,#11,#0,#10,#0,#10,#0,#9,#0,#129
        0B 00 0B 00 0A 00
        0A 00 09 00 81
   004E                     375 	PAUTA_4:
   004E 07 00 08 00 08 00   376 	.DB #7,#0,#8,#0,#8,#0,#8,#0,#7,#0,#6,#0,#6,#0,#6,#0,#6,#0,#6,#0,#5,#0,#5,#0,#5,#0,#5,#0,#5,#0,#138
        08 00 07 00 06 00
        06 00 06 00 06 00
        06 00 05 00 05 00
        05 00 05 00 05 00
        8A
   006D                     377 	PAUTA_5:
   006D 07 00 08 00 09 00   378 	.DB #7,#0,#8,#0,#9,#0,#8,#0,#7,#0,#6,#0,#129
        08 00 07 00 06 00
        81
   007A                     379 	PAUTA_6:
   007A 4D 00 0C 00 0B 00   380 	.DB #77,#0,#12,#0,#11,#0,#10,#0,#9,#0,#8,#0,#7,#0,#9,#0,#8,#0,#7,#0,#129
        0A 00 09 00 08 00
        07 00 09 00 08 00
        07 00 81
   008F                     381 	_SOUND_TABLE_0:
   008Fr9Cr00               382 	.dw SONIDO1
   0091rA3r00               383 	.dw SONIDO2
   0093rA7r00               384 	.dw SONIDO3
   0095                     385 	SONIDO0:
   0095 17 3F 00 74 6E 00   386 	.DB #23,#63,#0,#116,#110,#0,#255
        FF
   009C                     387 	SONIDO1:
   009C A2 2F 00 17 5D 09   388 	.DB #162,#47,#0,#23,#93,#9,#255
        FF
   00A3                     389 	SONIDO2:
   00A3 00 0A 05 FF         390 	.DB #0,#10,#5,#255
   00A7                     391 	SONIDO3:
   00A7 BA 3A 00 00 66 00   392 	.DB #186,#58,#0,#0,#102,#0,#162,#131,#0,#255
        A2 83 00 FF
   00B1                     393 	_EFFECT_TABLE:
   00B1rB9r00               394 	.dw _EFECTO0
   00B3rCAr00               395 	.dw _EFECTO1
   00B5rE7r00               396 	.dw _EFECTO2
   00B7r1Er01               397 	.dw _EFECTO3
   00B9                     398 	_EFECTO0:
   00B9 58 0D               399 	.db #0x58,#0x0D
   00BB 50 0B               400 	.db #0x50,#0x0B
   00BD 47 0A               401 	.db #0x47,#0x0A
   00BF 3E 06               402 	.db #0x3E,#0x06
   00C1 35 03               403 	.db #0x35,#0x03
   00C3 50 09               404 	.db #0x50,#0x09
   00C5 47 0A               405 	.db #0x47,#0x0A
   00C7 3E 07               406 	.db #0x3E,#0x07
   00C9 FF                  407 	.db #0xFF
   00CA                     408 	_EFECTO1:
   00CA 58 0C               409 	.db #0x58,#0x0C
   00CC 5D 0D               410 	.db #0x5D,#0x0D
   00CE 61 0E               411 	.db #0x61,#0x0E
   00D0 66 0F               412 	.db #0x66,#0x0F
   00D2 6A 0E               413 	.db #0x6A,#0x0E
   00D4 6F 0D               414 	.db #0x6F,#0x0D
   00D6 7A 0C               415 	.db #0x7A,#0x0C
   00D8 78 0B               416 	.db #0x78,#0x0B
   00DA 7C 0A               417 	.db #0x7C,#0x0A
   00DC 85 09               418 	.db #0x85,#0x09
   00DE 8E 08               419 	.db #0x8E,#0x08
   00E0 97 07               420 	.db #0x97,#0x07
   00E2 A0 06               421 	.db #0xA0,#0x06
   00E4 A9 05               422 	.db #0xA9,#0x05
   00E6 FF                  423 	.db #0xFF
   00E7                     424 	_EFECTO2:
   00E7 1F 0B               425 	.db #0x1F,#0x0B
   00E9 1A 0C               426 	.db #0x1A,#0x0C
   00EB 1F 0D               427 	.db #0x1F,#0x0D
   00ED 16 0E               428 	.db #0x16,#0x0E
   00EF 1F 0E               429 	.db #0x1F,#0x0E
   00F1 0D 0D               430 	.db #0x0D,#0x0D
   00F3 1F 0C               431 	.db #0x1F,#0x0C
   00F5 0D 0B               432 	.db #0x0D,#0x0B
   00F7 00 00               433 	.db #0x00,#0x00
   00F9 00 00               434 	.db #0x00,#0x00
   00FB 1F 08               435 	.db #0x1F,#0x08
   00FD 1A 09               436 	.db #0x1A,#0x09
   00FF 1F 0A               437 	.db #0x1F,#0x0A
   0101 16 0B               438 	.db #0x16,#0x0B
   0103 1F 0B               439 	.db #0x1F,#0x0B
   0105 0D 0A               440 	.db #0x0D,#0x0A
   0107 1F 09               441 	.db #0x1F,#0x09
   0109 0D 07               442 	.db #0x0D,#0x07
   010B 00 00               443 	.db #0x00,#0x00
   010D 00 00               444 	.db #0x00,#0x00
   010F 1F 06               445 	.db #0x1F,#0x06
   0111 1A 07               446 	.db #0x1A,#0x07
   0113 1F 08               447 	.db #0x1F,#0x08
   0115 16 08               448 	.db #0x16,#0x08
   0117 1F 07               449 	.db #0x1F,#0x07
   0119 0D 06               450 	.db #0x0D,#0x06
   011B 1F 05               451 	.db #0x1F,#0x05
   011D FF                  452 	.db #0xFF
   011E                     453 	_EFECTO3:
   011E 1A 0E               454 	.db #0x1A,#0x0E
   0120 1A 0E               455 	.db #0x1A,#0x0E
   0122 00 00               456 	.db #0x00,#0x00
   0124 1A 0A               457 	.db #0x1A,#0x0A
   0126 1A 0A               458 	.db #0x1A,#0x0A
   0128 00 00               459 	.db #0x00,#0x00
   012A 1A 0C               460 	.db #0x1A,#0x0C
   012C 1A 0C               461 	.db #0x1A,#0x0C
   012E 00 00               462 	.db #0x00,#0x00
   0130 1A 08               463 	.db #0x1A,#0x08
   0132 1A 08               464 	.db #0x1A,#0x08
   0134 FF                  465 	.db #0xFF
   0135 C9            [10]  466 	ret
   0136                     467 _asm_data_quezesto_end::
                            468 ;alien6.c:121: void timerOn(void) {
                            469 ;	---------------------------------
                            470 ; Function timerOn
                            471 ; ---------------------------------
   0136                     472 _timerOn_start::
   0136                     473 _timerOn:
                            474 ;alien6.c:150: __endasm;
   0136 F3            [ 4]  475 	DI
   0137 ED 56         [ 8]  476 	IM 1
   0139 E5            [11]  477 	PUSH HL
   013A 21r5Cr03      [10]  478 	LD HL, #_timer0
   013D 36 00         [10]  479 	LD (HL),#0X0000
   013F 21 38 00      [10]  480 	LD HL,#0X0038
   0142 36 C3         [10]  481 	LD (HL),#0XC3 ;JP
   0144 23            [ 6]  482 	INC HL
   0145 21r50r01      [10]  483 	LD HL,#interrupcion
   0148 22 39 00      [16]  484 	LD (#0X0039),HL
   014B E1            [10]  485 	POP HL
   014C FB            [ 4]  486 	EI
   014D C3r5Er01      [10]  487 	JP term
   0150                     488 	interrupcion:
   0150 F3            [ 4]  489 	DI
   0151 E5            [11]  490 	PUSH HL
   0152 F5            [11]  491 	PUSH AF
   0153 21r5Cr03      [10]  492 	LD HL,#_timer0
   0156                     493 	desborde:
   0156 34            [11]  494 	INC (HL)
   0157 23            [ 6]  495 	INC HL
   0158 28 FC         [12]  496 	JR Z,desborde
   015A F1            [10]  497 	POP AF
   015B E1            [10]  498 	POP HL
   015C FB            [ 4]  499 	EI
   015D C9            [10]  500 	RET
   015E                     501 	term:
   015E C9            [10]  502 	ret
   015F                     503 _timerOn_end::
   015F                     504 _SONG_0:
   015F 05                  505 	.db #0x05	; 5
   0160 07                  506 	.db #0x07	; 7
   0161 00                  507 	.db #0x00	; 0
   0162 00                  508 	.db #0x00	; 0
   0163 3F                  509 	.db #0x3F	; 63
   0164 00                  510 	.db #0x00	; 0
   0165 52                  511 	.db #0x52	; 82	'R'
   0166 12                  512 	.db #0x12	; 18
   0167 12                  513 	.db #0x12	; 18
   0168 52                  514 	.db #0x52	; 82	'R'
   0169 52                  515 	.db #0x52	; 82	'R'
   016A 12                  516 	.db #0x12	; 18
   016B 12                  517 	.db #0x12	; 18
   016C 52                  518 	.db #0x52	; 82	'R'
   016D 52                  519 	.db #0x52	; 82	'R'
   016E 12                  520 	.db #0x12	; 18
   016F 12                  521 	.db #0x12	; 18
   0170 50                  522 	.db #0x50	; 80	'P'
   0171 10                  523 	.db #0x10	; 16
   0172 10                  524 	.db #0x10	; 16
   0173 50                  525 	.db #0x50	; 80	'P'
   0174 50                  526 	.db #0x50	; 80	'P'
   0175 10                  527 	.db #0x10	; 16
   0176 10                  528 	.db #0x10	; 16
   0177 50                  529 	.db #0x50	; 80	'P'
   0178 50                  530 	.db #0x50	; 80	'P'
   0179 10                  531 	.db #0x10	; 16
   017A 10                  532 	.db #0x10	; 16
   017B 4E                  533 	.db #0x4E	; 78	'N'
   017C 0E                  534 	.db #0x0E	; 14
   017D 0E                  535 	.db #0x0E	; 14
   017E 4E                  536 	.db #0x4E	; 78	'N'
   017F 4E                  537 	.db #0x4E	; 78	'N'
   0180 0E                  538 	.db #0x0E	; 14
   0181 0E                  539 	.db #0x0E	; 14
   0182 4E                  540 	.db #0x4E	; 78	'N'
   0183 4E                  541 	.db #0x4E	; 78	'N'
   0184 0E                  542 	.db #0x0E	; 14
   0185 0E                  543 	.db #0x0E	; 14
   0186 4D                  544 	.db #0x4D	; 77	'M'
   0187 0D                  545 	.db #0x0D	; 13
   0188 0D                  546 	.db #0x0D	; 13
   0189 4D                  547 	.db #0x4D	; 77	'M'
   018A 4D                  548 	.db #0x4D	; 77	'M'
   018B 0D                  549 	.db #0x0D	; 13
   018C 0D                  550 	.db #0x0D	; 13
   018D 4D                  551 	.db #0x4D	; 77	'M'
   018E 4D                  552 	.db #0x4D	; 77	'M'
   018F 0D                  553 	.db #0x0D	; 13
   0190 0D                  554 	.db #0x0D	; 13
   0191 52                  555 	.db #0x52	; 82	'R'
   0192 52                  556 	.db #0x52	; 82	'R'
   0193 52                  557 	.db #0x52	; 82	'R'
   0194 12                  558 	.db #0x12	; 18
   0195 12                  559 	.db #0x12	; 18
   0196 52                  560 	.db #0x52	; 82	'R'
   0197 52                  561 	.db #0x52	; 82	'R'
   0198 52                  562 	.db #0x52	; 82	'R'
   0199 12                  563 	.db #0x12	; 18
   019A 12                  564 	.db #0x12	; 18
   019B 55                  565 	.db #0x55	; 85	'U'
   019C 55                  566 	.db #0x55	; 85	'U'
   019D 55                  567 	.db #0x55	; 85	'U'
   019E 15                  568 	.db #0x15	; 21
   019F 15                  569 	.db #0x15	; 21
   01A0 55                  570 	.db #0x55	; 85	'U'
   01A1 55                  571 	.db #0x55	; 85	'U'
   01A2 55                  572 	.db #0x55	; 85	'U'
   01A3 15                  573 	.db #0x15	; 21
   01A4 15                  574 	.db #0x15	; 21
   01A5 57                  575 	.db #0x57	; 87	'W'
   01A6 57                  576 	.db #0x57	; 87	'W'
   01A7 57                  577 	.db #0x57	; 87	'W'
   01A8 17                  578 	.db #0x17	; 23
   01A9 17                  579 	.db #0x17	; 23
   01AA 57                  580 	.db #0x57	; 87	'W'
   01AB 57                  581 	.db #0x57	; 87	'W'
   01AC 57                  582 	.db #0x57	; 87	'W'
   01AD 17                  583 	.db #0x17	; 23
   01AE 17                  584 	.db #0x17	; 23
   01AF 5A                  585 	.db #0x5A	; 90	'Z'
   01B0 5A                  586 	.db #0x5A	; 90	'Z'
   01B1 5A                  587 	.db #0x5A	; 90	'Z'
   01B2 1A                  588 	.db #0x1A	; 26
   01B3 1A                  589 	.db #0x1A	; 26
   01B4 5A                  590 	.db #0x5A	; 90	'Z'
   01B5 5A                  591 	.db #0x5A	; 90	'Z'
   01B6 5C                  592 	.db #0x5C	; 92
   01B7 1C                  593 	.db #0x1C	; 28
   01B8 1C                  594 	.db #0x1C	; 28
   01B9 52                  595 	.db #0x52	; 82	'R'
   01BA 52                  596 	.db #0x52	; 82	'R'
   01BB 52                  597 	.db #0x52	; 82	'R'
   01BC 12                  598 	.db #0x12	; 18
   01BD 12                  599 	.db #0x12	; 18
   01BE 52                  600 	.db #0x52	; 82	'R'
   01BF 52                  601 	.db #0x52	; 82	'R'
   01C0 52                  602 	.db #0x52	; 82	'R'
   01C1 12                  603 	.db #0x12	; 18
   01C2 12                  604 	.db #0x12	; 18
   01C3 55                  605 	.db #0x55	; 85	'U'
   01C4 55                  606 	.db #0x55	; 85	'U'
   01C5 55                  607 	.db #0x55	; 85	'U'
   01C6 15                  608 	.db #0x15	; 21
   01C7 15                  609 	.db #0x15	; 21
   01C8 55                  610 	.db #0x55	; 85	'U'
   01C9 55                  611 	.db #0x55	; 85	'U'
   01CA 55                  612 	.db #0x55	; 85	'U'
   01CB 15                  613 	.db #0x15	; 21
   01CC 15                  614 	.db #0x15	; 21
   01CD 57                  615 	.db #0x57	; 87	'W'
   01CE 57                  616 	.db #0x57	; 87	'W'
   01CF 57                  617 	.db #0x57	; 87	'W'
   01D0 17                  618 	.db #0x17	; 23
   01D1 17                  619 	.db #0x17	; 23
   01D2 57                  620 	.db #0x57	; 87	'W'
   01D3 57                  621 	.db #0x57	; 87	'W'
   01D4 57                  622 	.db #0x57	; 87	'W'
   01D5 17                  623 	.db #0x17	; 23
   01D6 17                  624 	.db #0x17	; 23
   01D7 59                  625 	.db #0x59	; 89	'Y'
   01D8 59                  626 	.db #0x59	; 89	'Y'
   01D9 59                  627 	.db #0x59	; 89	'Y'
   01DA 19                  628 	.db #0x19	; 25
   01DB 19                  629 	.db #0x19	; 25
   01DC 57                  630 	.db #0x57	; 87	'W'
   01DD 55                  631 	.db #0x55	; 85	'U'
   01DE 54                  632 	.db #0x54	; 84	'T'
   01DF 51                  633 	.db #0x51	; 81	'Q'
   01E0 52                  634 	.db #0x52	; 82	'R'
   01E1 52                  635 	.db #0x52	; 82	'R'
   01E2 52                  636 	.db #0x52	; 82	'R'
   01E3 12                  637 	.db #0x12	; 18
   01E4 12                  638 	.db #0x12	; 18
   01E5 52                  639 	.db #0x52	; 82	'R'
   01E6 52                  640 	.db #0x52	; 82	'R'
   01E7 52                  641 	.db #0x52	; 82	'R'
   01E8 12                  642 	.db #0x12	; 18
   01E9 12                  643 	.db #0x12	; 18
   01EA 55                  644 	.db #0x55	; 85	'U'
   01EB 55                  645 	.db #0x55	; 85	'U'
   01EC 55                  646 	.db #0x55	; 85	'U'
   01ED 15                  647 	.db #0x15	; 21
   01EE 15                  648 	.db #0x15	; 21
   01EF 55                  649 	.db #0x55	; 85	'U'
   01F0 55                  650 	.db #0x55	; 85	'U'
   01F1 55                  651 	.db #0x55	; 85	'U'
   01F2 15                  652 	.db #0x15	; 21
   01F3 15                  653 	.db #0x15	; 21
   01F4 57                  654 	.db #0x57	; 87	'W'
   01F5 57                  655 	.db #0x57	; 87	'W'
   01F6 57                  656 	.db #0x57	; 87	'W'
   01F7 17                  657 	.db #0x17	; 23
   01F8 17                  658 	.db #0x17	; 23
   01F9 57                  659 	.db #0x57	; 87	'W'
   01FA 57                  660 	.db #0x57	; 87	'W'
   01FB 57                  661 	.db #0x57	; 87	'W'
   01FC 17                  662 	.db #0x17	; 23
   01FD 17                  663 	.db #0x17	; 23
   01FE 5A                  664 	.db #0x5A	; 90	'Z'
   01FF 5A                  665 	.db #0x5A	; 90	'Z'
   0200 5A                  666 	.db #0x5A	; 90	'Z'
   0201 1A                  667 	.db #0x1A	; 26
   0202 1A                  668 	.db #0x1A	; 26
   0203 5A                  669 	.db #0x5A	; 90	'Z'
   0204 5A                  670 	.db #0x5A	; 90	'Z'
   0205 5C                  671 	.db #0x5C	; 92
   0206 1C                  672 	.db #0x1C	; 28
   0207 1C                  673 	.db #0x1C	; 28
   0208 52                  674 	.db #0x52	; 82	'R'
   0209 52                  675 	.db #0x52	; 82	'R'
   020A 52                  676 	.db #0x52	; 82	'R'
   020B 12                  677 	.db #0x12	; 18
   020C 12                  678 	.db #0x12	; 18
   020D 52                  679 	.db #0x52	; 82	'R'
   020E 52                  680 	.db #0x52	; 82	'R'
   020F 52                  681 	.db #0x52	; 82	'R'
   0210 12                  682 	.db #0x12	; 18
   0211 12                  683 	.db #0x12	; 18
   0212 50                  684 	.db #0x50	; 80	'P'
   0213 50                  685 	.db #0x50	; 80	'P'
   0214 50                  686 	.db #0x50	; 80	'P'
   0215 10                  687 	.db #0x10	; 16
   0216 10                  688 	.db #0x10	; 16
   0217 50                  689 	.db #0x50	; 80	'P'
   0218 50                  690 	.db #0x50	; 80	'P'
   0219 50                  691 	.db #0x50	; 80	'P'
   021A 10                  692 	.db #0x10	; 16
   021B 10                  693 	.db #0x10	; 16
   021C 4E                  694 	.db #0x4E	; 78	'N'
   021D 4E                  695 	.db #0x4E	; 78	'N'
   021E 4E                  696 	.db #0x4E	; 78	'N'
   021F 0E                  697 	.db #0x0E	; 14
   0220 0E                  698 	.db #0x0E	; 14
   0221 4E                  699 	.db #0x4E	; 78	'N'
   0222 4E                  700 	.db #0x4E	; 78	'N'
   0223 4E                  701 	.db #0x4E	; 78	'N'
   0224 0E                  702 	.db #0x0E	; 14
   0225 0E                  703 	.db #0x0E	; 14
   0226 50                  704 	.db #0x50	; 80	'P'
   0227 50                  705 	.db #0x50	; 80	'P'
   0228 50                  706 	.db #0x50	; 80	'P'
   0229 10                  707 	.db #0x10	; 16
   022A 10                  708 	.db #0x10	; 16
   022B 50                  709 	.db #0x50	; 80	'P'
   022C 50                  710 	.db #0x50	; 80	'P'
   022D 10                  711 	.db #0x10	; 16
   022E 14                  712 	.db #0x14	; 20
   022F 17                  713 	.db #0x17	; 23
   0230 14                  714 	.db #0x14	; 20
   0231 19                  715 	.db #0x19	; 25
   0232 19                  716 	.db #0x19	; 25
   0233 52                  717 	.db #0x52	; 82	'R'
   0234 52                  718 	.db #0x52	; 82	'R'
   0235 12                  719 	.db #0x12	; 18
   0236 12                  720 	.db #0x12	; 18
   0237 50                  721 	.db #0x50	; 80	'P'
   0238 50                  722 	.db #0x50	; 80	'P'
   0239 50                  723 	.db #0x50	; 80	'P'
   023A 10                  724 	.db #0x10	; 16
   023B 10                  725 	.db #0x10	; 16
   023C 4E                  726 	.db #0x4E	; 78	'N'
   023D 4E                  727 	.db #0x4E	; 78	'N'
   023E 4E                  728 	.db #0x4E	; 78	'N'
   023F 0E                  729 	.db #0x0E	; 14
   0240 0E                  730 	.db #0x0E	; 14
   0241 50                  731 	.db #0x50	; 80	'P'
   0242 50                  732 	.db #0x50	; 80	'P'
   0243 50                  733 	.db #0x50	; 80	'P'
   0244 10                  734 	.db #0x10	; 16
   0245 10                  735 	.db #0x10	; 16
   0246 19                  736 	.db #0x19	; 25
   0247 19                  737 	.db #0x19	; 25
   0248 52                  738 	.db #0x52	; 82	'R'
   0249 12                  739 	.db #0x12	; 18
   024A 12                  740 	.db #0x12	; 18
   024B 52                  741 	.db #0x52	; 82	'R'
   024C 50                  742 	.db #0x50	; 80	'P'
   024D 50                  743 	.db #0x50	; 80	'P'
   024E 10                  744 	.db #0x10	; 16
   024F 10                  745 	.db #0x10	; 16
   0250 50                  746 	.db #0x50	; 80	'P'
   0251 55                  747 	.db #0x55	; 85	'U'
   0252 55                  748 	.db #0x55	; 85	'U'
   0253 15                  749 	.db #0x15	; 21
   0254 15                  750 	.db #0x15	; 21
   0255 55                  751 	.db #0x55	; 85	'U'
   0256 57                  752 	.db #0x57	; 87	'W'
   0257 57                  753 	.db #0x57	; 87	'W'
   0258 17                  754 	.db #0x17	; 23
   0259 17                  755 	.db #0x17	; 23
   025A 57                  756 	.db #0x57	; 87	'W'
   025B 19                  757 	.db #0x19	; 25
   025C 19                  758 	.db #0x19	; 25
   025D 52                  759 	.db #0x52	; 82	'R'
   025E 52                  760 	.db #0x52	; 82	'R'
   025F 12                  761 	.db #0x12	; 18
   0260 12                  762 	.db #0x12	; 18
   0261 50                  763 	.db #0x50	; 80	'P'
   0262 50                  764 	.db #0x50	; 80	'P'
   0263 50                  765 	.db #0x50	; 80	'P'
   0264 10                  766 	.db #0x10	; 16
   0265 10                  767 	.db #0x10	; 16
   0266 4E                  768 	.db #0x4E	; 78	'N'
   0267 4E                  769 	.db #0x4E	; 78	'N'
   0268 4E                  770 	.db #0x4E	; 78	'N'
   0269 0E                  771 	.db #0x0E	; 14
   026A 0E                  772 	.db #0x0E	; 14
   026B 50                  773 	.db #0x50	; 80	'P'
   026C 50                  774 	.db #0x50	; 80	'P'
   026D 50                  775 	.db #0x50	; 80	'P'
   026E 10                  776 	.db #0x10	; 16
   026F 10                  777 	.db #0x10	; 16
   0270 19                  778 	.db #0x19	; 25
   0271 19                  779 	.db #0x19	; 25
   0272 52                  780 	.db #0x52	; 82	'R'
   0273 12                  781 	.db #0x12	; 18
   0274 12                  782 	.db #0x12	; 18
   0275 52                  783 	.db #0x52	; 82	'R'
   0276 50                  784 	.db #0x50	; 80	'P'
   0277 50                  785 	.db #0x50	; 80	'P'
   0278 10                  786 	.db #0x10	; 16
   0279 10                  787 	.db #0x10	; 16
   027A 50                  788 	.db #0x50	; 80	'P'
   027B 19                  789 	.db #0x19	; 25
   027C 19                  790 	.db #0x19	; 25
   027D 59                  791 	.db #0x59	; 89	'Y'
   027E 19                  792 	.db #0x19	; 25
   027F 19                  793 	.db #0x19	; 25
   0280 59                  794 	.db #0x59	; 89	'Y'
   0281 59                  795 	.db #0x59	; 89	'Y'
   0282 59                  796 	.db #0x59	; 89	'Y'
   0283 19                  797 	.db #0x19	; 25
   0284 19                  798 	.db #0x19	; 25
   0285 59                  799 	.db #0x59	; 89	'Y'
   0286 17                  800 	.db #0x17	; 23
   0287 19                  801 	.db #0x19	; 25
   0288 59                  802 	.db #0x59	; 89	'Y'
   0289 59                  803 	.db #0x59	; 89	'Y'
   028A 59                  804 	.db #0x59	; 89	'Y'
   028B 57                  805 	.db #0x57	; 87	'W'
   028C 57                  806 	.db #0x57	; 87	'W'
   028D 15                  807 	.db #0x15	; 21
   028E 15                  808 	.db #0x15	; 21
   028F 14                  809 	.db #0x14	; 20
   0290 14                  810 	.db #0x14	; 20
   0291 00                  811 	.db #0x00	; 0
   0292 3F                  812 	.db #0x3F	; 63
   0293 03                  813 	.db #0x03	; 3
   0294 71                  814 	.db #0x71	; 113	'q'
   0295 81                  815 	.db #0x81	; 129
   0296 6F                  816 	.db #0x6F	; 111	'o'
   0297 81                  817 	.db #0x81	; 129
   0298 71                  818 	.db #0x71	; 113	'q'
   0299 72                  819 	.db #0x72	; 114	'r'
   029A 71                  820 	.db #0x71	; 113	'q'
   029B 81                  821 	.db #0x81	; 129
   029C 6F                  822 	.db #0x6F	; 111	'o'
   029D 81                  823 	.db #0x81	; 129
   029E 6C                  824 	.db #0x6C	; 108	'l'
   029F 6D                  825 	.db #0x6D	; 109	'm'
   02A0 71                  826 	.db #0x71	; 113	'q'
   02A1 81                  827 	.db #0x81	; 129
   02A2 6F                  828 	.db #0x6F	; 111	'o'
   02A3 81                  829 	.db #0x81	; 129
   02A4 71                  830 	.db #0x71	; 113	'q'
   02A5 72                  831 	.db #0x72	; 114	'r'
   02A6 71                  832 	.db #0x71	; 113	'q'
   02A7 81                  833 	.db #0x81	; 129
   02A8 72                  834 	.db #0x72	; 114	'r'
   02A9 81                  835 	.db #0x81	; 129
   02AA B4                  836 	.db #0xB4	; 180
   02AB A1                  837 	.db #0xA1	; 161
   02AC AA                  838 	.db #0xAA	; 170
   02AD AD                  839 	.db #0xAD	; 173
   02AE 2C                  840 	.db #0x2C	; 44
   02AF 01                  841 	.db #0x01	; 1
   02B0 28                  842 	.db #0x28	; 40
   02B1 01                  843 	.db #0x01	; 1
   02B2 AA                  844 	.db #0xAA	; 170
   02B3 BE                  845 	.db #0xBE	; 190
   02B4 AD                  846 	.db #0xAD	; 173
   02B5 BE                  847 	.db #0xBE	; 190
   02B6 B1                  848 	.db #0xB1	; 177
   02B7 2F                  849 	.db #0x2F	; 47
   02B8 01                  850 	.db #0x01	; 1
   02B9 EA                  851 	.db #0xEA	; 234
   02BA FE                  852 	.db #0xFE	; 254
   02BB 41                  853 	.db #0x41	; 65	'A'
   02BC 21                  854 	.db #0x21	; 33
   02BD 21                  855 	.db #0x21	; 33
   02BE 61                  856 	.db #0x61	; 97	'a'
   02BF 21                  857 	.db #0x21	; 33
   02C0 21                  858 	.db #0x21	; 33
   02C1 61                  859 	.db #0x61	; 97	'a'
   02C2 61                  860 	.db #0x61	; 97	'a'
   02C3 61                  861 	.db #0x61	; 97	'a'
   02C4 20                  862 	.db #0x20	; 32
   02C5 23                  863 	.db #0x23	; 35
   02C6 68                  864 	.db #0x68	; 104	'h'
   02C7 A5                  865 	.db #0xA5	; 165
   02C8 AA                  866 	.db #0xAA	; 170
   02C9 6D                  867 	.db #0x6D	; 109	'm'
   02CA 28                  868 	.db #0x28	; 40
   02CB 01                  869 	.db #0x01	; 1
   02CC 2A                  870 	.db #0x2A	; 42
   02CD 01                  871 	.db #0x01	; 1
   02CE 2C                  872 	.db #0x2C	; 44
   02CF 01                  873 	.db #0x01	; 1
   02D0 AD                  874 	.db #0xAD	; 173
   02D1 BE                  875 	.db #0xBE	; 190
   02D2 A8                  876 	.db #0xA8	; 168
   02D3 BE                  877 	.db #0xBE	; 190
   02D4 B4                  878 	.db #0xB4	; 180
   02D5 F3                  879 	.db #0xF3	; 243
   02D6 FE                  880 	.db #0xFE	; 254
   02D7 FE                  881 	.db #0xFE	; 254
   02D8 68                  882 	.db #0x68	; 104	'h'
   02D9 28                  883 	.db #0x28	; 40
   02DA 27                  884 	.db #0x27	; 39
   02DB 28                  885 	.db #0x28	; 40
   02DC 27                  886 	.db #0x27	; 39
   02DD 28                  887 	.db #0x28	; 40
   02DE 2A                  888 	.db #0x2A	; 42
   02DF 6C                  889 	.db #0x6C	; 108	'l'
   02E0 2C                  890 	.db #0x2C	; 44
   02E1 2A                  891 	.db #0x2A	; 42
   02E2 2C                  892 	.db #0x2C	; 44
   02E3 2A                  893 	.db #0x2A	; 42
   02E4 2C                  894 	.db #0x2C	; 44
   02E5 31                  895 	.db #0x31	; 49	'1'
   02E6 A1                  896 	.db #0xA1	; 161
   02E7 AA                  897 	.db #0xAA	; 170
   02E8 AD                  898 	.db #0xAD	; 173
   02E9 2C                  899 	.db #0x2C	; 44
   02EA 01                  900 	.db #0x01	; 1
   02EB 28                  901 	.db #0x28	; 40
   02EC 01                  902 	.db #0x01	; 1
   02ED AA                  903 	.db #0xAA	; 170
   02EE BE                  904 	.db #0xBE	; 190
   02EF AD                  905 	.db #0xAD	; 173
   02F0 BE                  906 	.db #0xBE	; 190
   02F1 B1                  907 	.db #0xB1	; 177
   02F2 2F                  908 	.db #0x2F	; 47
   02F3 01                  909 	.db #0x01	; 1
   02F4 EA                  910 	.db #0xEA	; 234
   02F5 FE                  911 	.db #0xFE	; 254
   02F6 41                  912 	.db #0x41	; 65	'A'
   02F7 21                  913 	.db #0x21	; 33
   02F8 21                  914 	.db #0x21	; 33
   02F9 61                  915 	.db #0x61	; 97	'a'
   02FA 21                  916 	.db #0x21	; 33
   02FB 21                  917 	.db #0x21	; 33
   02FC 61                  918 	.db #0x61	; 97	'a'
   02FD 61                  919 	.db #0x61	; 97	'a'
   02FE 61                  920 	.db #0x61	; 97	'a'
   02FF 20                  921 	.db #0x20	; 32
   0300 23                  922 	.db #0x23	; 35
   0301 68                  923 	.db #0x68	; 104	'h'
   0302 A5                  924 	.db #0xA5	; 165
   0303 AA                  925 	.db #0xAA	; 170
   0304 6D                  926 	.db #0x6D	; 109	'm'
   0305 7E                  927 	.db #0x7E	; 126
   0306 2A                  928 	.db #0x2A	; 42
   0307 6C                  929 	.db #0x6C	; 108	'l'
   0308 2F                  930 	.db #0x2F	; 47
   0309 01                  931 	.db #0x01	; 1
   030A B1                  932 	.db #0xB1	; 177
   030B BE                  933 	.db #0xBE	; 190
   030C 2F                  934 	.db #0x2F	; 47
   030D 01                  935 	.db #0x01	; 1
   030E AD                  936 	.db #0xAD	; 173
   030F AF                  937 	.db #0xAF	; 175
   0310 AD                  938 	.db #0xAD	; 173
   0311 BE                  939 	.db #0xBE	; 190
   0312 2C                  940 	.db #0x2C	; 44
   0313 2A                  941 	.db #0x2A	; 42
   0314 ED                  942 	.db #0xED	; 237
   0315 AF                  943 	.db #0xAF	; 175
   0316 BE                  944 	.db #0xBE	; 190
   0317 2D                  945 	.db #0x2D	; 45
   0318 2C                  946 	.db #0x2C	; 44
   0319 AA                  947 	.db #0xAA	; 170
   031A AC                  948 	.db #0xAC	; 172
   031B 41                  949 	.db #0x41	; 65	'A'
   031C 3F                  950 	.db #0x3F	; 63
   031D 01                  951 	.db #0x01	; 1
   031E 2D                  952 	.db #0x2D	; 45
   031F 41                  953 	.db #0x41	; 65	'A'
   0320 2D                  954 	.db #0x2D	; 45
   0321 01                  955 	.db #0x01	; 1
   0322 2D                  956 	.db #0x2D	; 45
   0323 6F                  957 	.db #0x6F	; 111	'o'
   0324 AC                  958 	.db #0xAC	; 172
   0325 68                  959 	.db #0x68	; 104	'h'
   0326 2D                  960 	.db #0x2D	; 45
   0327 01                  961 	.db #0x01	; 1
   0328 2D                  962 	.db #0x2D	; 45
   0329 01                  963 	.db #0x01	; 1
   032A 2A                  964 	.db #0x2A	; 42
   032B 2D                  965 	.db #0x2D	; 45
   032C 72                  966 	.db #0x72	; 114	'r'
   032D 2F                  967 	.db #0x2F	; 47
   032E 01                  968 	.db #0x01	; 1
   032F 2F                  969 	.db #0x2F	; 47
   0330 01                  970 	.db #0x01	; 1
   0331 2C                  971 	.db #0x2C	; 44
   0332 2F                  972 	.db #0x2F	; 47
   0333 74                  973 	.db #0x74	; 116	't'
   0334 41                  974 	.db #0x41	; 65	'A'
   0335 2D                  975 	.db #0x2D	; 45
   0336 41                  976 	.db #0x41	; 65	'A'
   0337 2D                  977 	.db #0x2D	; 45
   0338 01                  978 	.db #0x01	; 1
   0339 2D                  979 	.db #0x2D	; 45
   033A 6F                  980 	.db #0x6F	; 111	'o'
   033B AC                  981 	.db #0xAC	; 172
   033C 68                  982 	.db #0x68	; 104	'h'
   033D 6D                  983 	.db #0x6D	; 109	'm'
   033E 7E                  984 	.db #0x7E	; 126
   033F 2D                  985 	.db #0x2D	; 45
   0340 B4                  986 	.db #0xB4	; 180
   0341 73                  987 	.db #0x73	; 115	's'
   0342 7E                  988 	.db #0x7E	; 126
   0343 33                  989 	.db #0x33	; 51	'3'
   0344 B6                  990 	.db #0xB6	; 182
   0345 41                  991 	.db #0x41	; 65	'A'
   0346 2D                  992 	.db #0x2D	; 45
   0347 41                  993 	.db #0x41	; 65	'A'
   0348 2D                  994 	.db #0x2D	; 45
   0349 01                  995 	.db #0x01	; 1
   034A 2D                  996 	.db #0x2D	; 45
   034B 6F                  997 	.db #0x6F	; 111	'o'
   034C AC                  998 	.db #0xAC	; 172
   034D 68                  999 	.db #0x68	; 104	'h'
   034E 2D                 1000 	.db #0x2D	; 45
   034F 01                 1001 	.db #0x01	; 1
   0350 2D                 1002 	.db #0x2D	; 45
   0351 01                 1003 	.db #0x01	; 1
   0352 2A                 1004 	.db #0x2A	; 42
   0353 2D                 1005 	.db #0x2D	; 45
   0354 72                 1006 	.db #0x72	; 114	'r'
   0355 2F                 1007 	.db #0x2F	; 47
   0356 01                 1008 	.db #0x01	; 1
   0357 2F                 1009 	.db #0x2F	; 47
   0358 01                 1010 	.db #0x01	; 1
   0359 2C                 1011 	.db #0x2C	; 44
   035A 2F                 1012 	.db #0x2F	; 47
   035B 74                 1013 	.db #0x74	; 116	't'
   035C 41                 1014 	.db #0x41	; 65	'A'
   035D 2D                 1015 	.db #0x2D	; 45
   035E 41                 1016 	.db #0x41	; 65	'A'
   035F 2D                 1017 	.db #0x2D	; 45
   0360 01                 1018 	.db #0x01	; 1
   0361 2D                 1019 	.db #0x2D	; 45
   0362 6F                 1020 	.db #0x6F	; 111	'o'
   0363 3F                 1021 	.db #0x3F	; 63
   0364 03                 1022 	.db #0x03	; 3
   0365 6D                 1023 	.db #0x6D	; 109	'm'
   0366 6C                 1024 	.db #0x6C	; 108	'l'
   0367 68                 1025 	.db #0x68	; 104	'h'
   0368 3F                 1026 	.db #0x3F	; 63
   0369 04                 1027 	.db #0x04	; 4
   036A 2A                 1028 	.db #0x2A	; 42
   036B 2C                 1029 	.db #0x2C	; 44
   036C 2D                 1030 	.db #0x2D	; 45
   036D 2F                 1031 	.db #0x2F	; 47
   036E 31                 1032 	.db #0x31	; 49	'1'
   036F 2F                 1033 	.db #0x2F	; 47
   0370 2D                 1034 	.db #0x2D	; 45
   0371 2C                 1035 	.db #0x2C	; 44
   0372 2A                 1036 	.db #0x2A	; 42
   0373 2C                 1037 	.db #0x2C	; 44
   0374 2D                 1038 	.db #0x2D	; 45
   0375 2F                 1039 	.db #0x2F	; 47
   0376 31                 1040 	.db #0x31	; 49	'1'
   0377 2F                 1041 	.db #0x2F	; 47
   0378 2D                 1042 	.db #0x2D	; 45
   0379 2A                 1043 	.db #0x2A	; 42
   037A 3F                 1044 	.db #0x3F	; 63
   037B 03                 1045 	.db #0x03	; 3
   037C AF                 1046 	.db #0xAF	; 175
   037D AD                 1047 	.db #0xAD	; 173
   037E AC                 1048 	.db #0xAC	; 172
   037F A9                 1049 	.db #0xA9	; 169
   0380 00                 1050 	.db #0x00	; 0
   0381 3F                 1051 	.db #0x3F	; 63
   0382 03                 1052 	.db #0x03	; 3
   0383 2D                 1053 	.db #0x2D	; 45
   0384 01                 1054 	.db #0x01	; 1
   0385 2A                 1055 	.db #0x2A	; 42
   0386 2A                 1056 	.db #0x2A	; 42
   0387 6A                 1057 	.db #0x6A	; 106	'j'
   0388 2C                 1058 	.db #0x2C	; 44
   0389 01                 1059 	.db #0x01	; 1
   038A 2A                 1060 	.db #0x2A	; 42
   038B 2A                 1061 	.db #0x2A	; 42
   038C 6A                 1062 	.db #0x6A	; 106	'j'
   038D 6D                 1063 	.db #0x6D	; 109	'm'
   038E 6F                 1064 	.db #0x6F	; 111	'o'
   038F 2D                 1065 	.db #0x2D	; 45
   0390 01                 1066 	.db #0x01	; 1
   0391 2A                 1067 	.db #0x2A	; 42
   0392 2A                 1068 	.db #0x2A	; 42
   0393 6A                 1069 	.db #0x6A	; 106	'j'
   0394 2C                 1070 	.db #0x2C	; 44
   0395 01                 1071 	.db #0x01	; 1
   0396 2A                 1072 	.db #0x2A	; 42
   0397 2A                 1073 	.db #0x2A	; 42
   0398 6A                 1074 	.db #0x6A	; 106	'j'
   0399 68                 1075 	.db #0x68	; 104	'h'
   039A 6A                 1076 	.db #0x6A	; 106	'j'
   039B 2D                 1077 	.db #0x2D	; 45
   039C 01                 1078 	.db #0x01	; 1
   039D 2A                 1079 	.db #0x2A	; 42
   039E 2A                 1080 	.db #0x2A	; 42
   039F 6A                 1081 	.db #0x6A	; 106	'j'
   03A0 6C                 1082 	.db #0x6C	; 108	'l'
   03A1 2A                 1083 	.db #0x2A	; 42
   03A2 2A                 1084 	.db #0x2A	; 42
   03A3 6A                 1085 	.db #0x6A	; 106	'j'
   03A4 6D                 1086 	.db #0x6D	; 109	'm'
   03A5 6F                 1087 	.db #0x6F	; 111	'o'
   03A6 2D                 1088 	.db #0x2D	; 45
   03A7 01                 1089 	.db #0x01	; 1
   03A8 25                 1090 	.db #0x25	; 37
   03A9 25                 1091 	.db #0x25	; 37
   03AA 65                 1092 	.db #0x65	; 101	'e'
   03AB 6F                 1093 	.db #0x6F	; 111	'o'
   03AC 25                 1094 	.db #0x25	; 37
   03AD 25                 1095 	.db #0x25	; 37
   03AE 65                 1096 	.db #0x65	; 101	'e'
   03AF B1                 1097 	.db #0xB1	; 177
   03B0 3F                 1098 	.db #0x3F	; 63
   03B1 00                 1099 	.db #0x00	; 0
   03B2 A1                 1100 	.db #0xA1	; 161
   03B3 3F                 1101 	.db #0x3F	; 63
   03B4 03                 1102 	.db #0x03	; 3
   03B5 A5                 1103 	.db #0xA5	; 165
   03B6 AA                 1104 	.db #0xAA	; 170
   03B7 28                 1105 	.db #0x28	; 40
   03B8 01                 1106 	.db #0x01	; 1
   03B9 23                 1107 	.db #0x23	; 35
   03BA 01                 1108 	.db #0x01	; 1
   03BB A5                 1109 	.db #0xA5	; 165
   03BC BE                 1110 	.db #0xBE	; 190
   03BD AA                 1111 	.db #0xAA	; 170
   03BE BE                 1112 	.db #0xBE	; 190
   03BF AD                 1113 	.db #0xAD	; 173
   03C0 27                 1114 	.db #0x27	; 39
   03C1 01                 1115 	.db #0x01	; 1
   03C2 E7                 1116 	.db #0xE7	; 231
   03C3 41                 1117 	.db #0x41	; 65	'A'
   03C4 25                 1118 	.db #0x25	; 37
   03C5 25                 1119 	.db #0x25	; 37
   03C6 65                 1120 	.db #0x65	; 101	'e'
   03C7 1E                 1121 	.db #0x1E	; 30
   03C8 1E                 1122 	.db #0x1E	; 30
   03C9 5E                 1123 	.db #0x5E	; 94
   03CA 1E                 1124 	.db #0x1E	; 30
   03CB 1E                 1125 	.db #0x1E	; 30
   03CC 5E                 1126 	.db #0x5E	; 94
   03CD 5E                 1127 	.db #0x5E	; 94
   03CE 5E                 1128 	.db #0x5E	; 94
   03CF 81                 1129 	.db #0x81	; 129
   03D0 A1                 1130 	.db #0xA1	; 161
   03D1 A5                 1131 	.db #0xA5	; 165
   03D2 6A                 1132 	.db #0x6A	; 106	'j'
   03D3 23                 1133 	.db #0x23	; 35
   03D4 01                 1134 	.db #0x01	; 1
   03D5 25                 1135 	.db #0x25	; 37
   03D6 01                 1136 	.db #0x01	; 1
   03D7 28                 1137 	.db #0x28	; 40
   03D8 01                 1138 	.db #0x01	; 1
   03D9 AA                 1139 	.db #0xAA	; 170
   03DA BE                 1140 	.db #0xBE	; 190
   03DB A5                 1141 	.db #0xA5	; 165
   03DC BE                 1142 	.db #0xBE	; 190
   03DD B1                 1143 	.db #0xB1	; 177
   03DE 5E                 1144 	.db #0x5E	; 94
   03DF 1E                 1145 	.db #0x1E	; 30
   03E0 1C                 1146 	.db #0x1C	; 28
   03E1 1E                 1147 	.db #0x1E	; 30
   03E2 1C                 1148 	.db #0x1C	; 28
   03E3 1E                 1149 	.db #0x1E	; 30
   03E4 20                 1150 	.db #0x20	; 32
   03E5 61                 1151 	.db #0x61	; 97	'a'
   03E6 21                 1152 	.db #0x21	; 33
   03E7 20                 1153 	.db #0x20	; 32
   03E8 21                 1154 	.db #0x21	; 33
   03E9 20                 1155 	.db #0x20	; 32
   03EA 21                 1156 	.db #0x21	; 33
   03EB 23                 1157 	.db #0x23	; 35
   03EC 65                 1158 	.db #0x65	; 101	'e'
   03ED 25                 1159 	.db #0x25	; 37
   03EE 23                 1160 	.db #0x23	; 35
   03EF 25                 1161 	.db #0x25	; 37
   03F0 23                 1162 	.db #0x23	; 35
   03F1 25                 1163 	.db #0x25	; 37
   03F2 27                 1164 	.db #0x27	; 39
   03F3 68                 1165 	.db #0x68	; 104	'h'
   03F4 28                 1166 	.db #0x28	; 40
   03F5 27                 1167 	.db #0x27	; 39
   03F6 28                 1168 	.db #0x28	; 40
   03F7 27                 1169 	.db #0x27	; 39
   03F8 28                 1170 	.db #0x28	; 40
   03F9 2A                 1171 	.db #0x2A	; 42
   03FA 3F                 1172 	.db #0x3F	; 63
   03FB 00                 1173 	.db #0x00	; 0
   03FC A1                 1174 	.db #0xA1	; 161
   03FD 3F                 1175 	.db #0x3F	; 63
   03FE 03                 1176 	.db #0x03	; 3
   03FF A5                 1177 	.db #0xA5	; 165
   0400 AA                 1178 	.db #0xAA	; 170
   0401 28                 1179 	.db #0x28	; 40
   0402 01                 1180 	.db #0x01	; 1
   0403 23                 1181 	.db #0x23	; 35
   0404 01                 1182 	.db #0x01	; 1
   0405 A5                 1183 	.db #0xA5	; 165
   0406 BE                 1184 	.db #0xBE	; 190
   0407 AA                 1185 	.db #0xAA	; 170
   0408 BE                 1186 	.db #0xBE	; 190
   0409 AD                 1187 	.db #0xAD	; 173
   040A 27                 1188 	.db #0x27	; 39
   040B 01                 1189 	.db #0x01	; 1
   040C E7                 1190 	.db #0xE7	; 231
   040D 41                 1191 	.db #0x41	; 65	'A'
   040E 25                 1192 	.db #0x25	; 37
   040F 25                 1193 	.db #0x25	; 37
   0410 65                 1194 	.db #0x65	; 101	'e'
   0411 1E                 1195 	.db #0x1E	; 30
   0412 1E                 1196 	.db #0x1E	; 30
   0413 5E                 1197 	.db #0x5E	; 94
   0414 1E                 1198 	.db #0x1E	; 30
   0415 1E                 1199 	.db #0x1E	; 30
   0416 5E                 1200 	.db #0x5E	; 94
   0417 5E                 1201 	.db #0x5E	; 94
   0418 5E                 1202 	.db #0x5E	; 94
   0419 81                 1203 	.db #0x81	; 129
   041A A1                 1204 	.db #0xA1	; 161
   041B A5                 1205 	.db #0xA5	; 165
   041C 6A                 1206 	.db #0x6A	; 106	'j'
   041D 7E                 1207 	.db #0x7E	; 126
   041E 25                 1208 	.db #0x25	; 37
   041F 68                 1209 	.db #0x68	; 104	'h'
   0420 2C                 1210 	.db #0x2C	; 44
   0421 01                 1211 	.db #0x01	; 1
   0422 AD                 1212 	.db #0xAD	; 173
   0423 BE                 1213 	.db #0xBE	; 190
   0424 2C                 1214 	.db #0x2C	; 44
   0425 01                 1215 	.db #0x01	; 1
   0426 AA                 1216 	.db #0xAA	; 170
   0427 AC                 1217 	.db #0xAC	; 172
   0428 AA                 1218 	.db #0xAA	; 170
   0429 BE                 1219 	.db #0xBE	; 190
   042A 28                 1220 	.db #0x28	; 40
   042B 26                 1221 	.db #0x26	; 38
   042C EA                 1222 	.db #0xEA	; 234
   042D AC                 1223 	.db #0xAC	; 172
   042E BE                 1224 	.db #0xBE	; 190
   042F 2A                 1225 	.db #0x2A	; 42
   0430 28                 1226 	.db #0x28	; 40
   0431 A5                 1227 	.db #0xA5	; 165
   0432 A8                 1228 	.db #0xA8	; 168
   0433 41                 1229 	.db #0x41	; 65	'A'
   0434 3F                 1230 	.db #0x3F	; 63
   0435 01                 1231 	.db #0x01	; 1
   0436 2A                 1232 	.db #0x2A	; 42
   0437 41                 1233 	.db #0x41	; 65	'A'
   0438 2A                 1234 	.db #0x2A	; 42
   0439 01                 1235 	.db #0x01	; 1
   043A 2A                 1236 	.db #0x2A	; 42
   043B 6C                 1237 	.db #0x6C	; 108	'l'
   043C A8                 1238 	.db #0xA8	; 168
   043D 65                 1239 	.db #0x65	; 101	'e'
   043E 2A                 1240 	.db #0x2A	; 42
   043F 01                 1241 	.db #0x01	; 1
   0440 2A                 1242 	.db #0x2A	; 42
   0441 01                 1243 	.db #0x01	; 1
   0442 26                 1244 	.db #0x26	; 38
   0443 2A                 1245 	.db #0x2A	; 42
   0444 6D                 1246 	.db #0x6D	; 109	'm'
   0445 2C                 1247 	.db #0x2C	; 44
   0446 01                 1248 	.db #0x01	; 1
   0447 2C                 1249 	.db #0x2C	; 44
   0448 01                 1250 	.db #0x01	; 1
   0449 28                 1251 	.db #0x28	; 40
   044A 2C                 1252 	.db #0x2C	; 44
   044B 6F                 1253 	.db #0x6F	; 111	'o'
   044C 41                 1254 	.db #0x41	; 65	'A'
   044D 2A                 1255 	.db #0x2A	; 42
   044E 41                 1256 	.db #0x41	; 65	'A'
   044F 2A                 1257 	.db #0x2A	; 42
   0450 01                 1258 	.db #0x01	; 1
   0451 2A                 1259 	.db #0x2A	; 42
   0452 6C                 1260 	.db #0x6C	; 108	'l'
   0453 A8                 1261 	.db #0xA8	; 168
   0454 65                 1262 	.db #0x65	; 101	'e'
   0455 68                 1263 	.db #0x68	; 104	'h'
   0456 7E                 1264 	.db #0x7E	; 126
   0457 28                 1265 	.db #0x28	; 40
   0458 B1                 1266 	.db #0xB1	; 177
   0459 6F                 1267 	.db #0x6F	; 111	'o'
   045A 7E                 1268 	.db #0x7E	; 126
   045B 2F                 1269 	.db #0x2F	; 47
   045C B3                 1270 	.db #0xB3	; 179
   045D 41                 1271 	.db #0x41	; 65	'A'
   045E 2A                 1272 	.db #0x2A	; 42
   045F 41                 1273 	.db #0x41	; 65	'A'
   0460 2A                 1274 	.db #0x2A	; 42
   0461 01                 1275 	.db #0x01	; 1
   0462 2A                 1276 	.db #0x2A	; 42
   0463 6C                 1277 	.db #0x6C	; 108	'l'
   0464 A8                 1278 	.db #0xA8	; 168
   0465 65                 1279 	.db #0x65	; 101	'e'
   0466 2A                 1280 	.db #0x2A	; 42
   0467 01                 1281 	.db #0x01	; 1
   0468 2A                 1282 	.db #0x2A	; 42
   0469 01                 1283 	.db #0x01	; 1
   046A 26                 1284 	.db #0x26	; 38
   046B 2A                 1285 	.db #0x2A	; 42
   046C 6D                 1286 	.db #0x6D	; 109	'm'
   046D 2C                 1287 	.db #0x2C	; 44
   046E 01                 1288 	.db #0x01	; 1
   046F 2C                 1289 	.db #0x2C	; 44
   0470 01                 1290 	.db #0x01	; 1
   0471 28                 1291 	.db #0x28	; 40
   0472 2C                 1292 	.db #0x2C	; 44
   0473 6F                 1293 	.db #0x6F	; 111	'o'
   0474 41                 1294 	.db #0x41	; 65	'A'
   0475 2A                 1295 	.db #0x2A	; 42
   0476 41                 1296 	.db #0x41	; 65	'A'
   0477 2A                 1297 	.db #0x2A	; 42
   0478 01                 1298 	.db #0x01	; 1
   0479 2A                 1299 	.db #0x2A	; 42
   047A 6C                 1300 	.db #0x6C	; 108	'l'
   047B 3F                 1301 	.db #0x3F	; 63
   047C 03                 1302 	.db #0x03	; 3
   047D 6A                 1303 	.db #0x6A	; 106	'j'
   047E 68                 1304 	.db #0x68	; 104	'h'
   047F 65                 1305 	.db #0x65	; 101	'e'
   0480 01                 1306 	.db #0x01	; 1
   0481 3F                 1307 	.db #0x3F	; 63
   0482 04                 1308 	.db #0x04	; 4
   0483 2A                 1309 	.db #0x2A	; 42
   0484 2C                 1310 	.db #0x2C	; 44
   0485 2D                 1311 	.db #0x2D	; 45
   0486 2F                 1312 	.db #0x2F	; 47
   0487 31                 1313 	.db #0x31	; 49	'1'
   0488 2F                 1314 	.db #0x2F	; 47
   0489 2D                 1315 	.db #0x2D	; 45
   048A 2C                 1316 	.db #0x2C	; 44
   048B 2A                 1317 	.db #0x2A	; 42
   048C 2C                 1318 	.db #0x2C	; 44
   048D 2D                 1319 	.db #0x2D	; 45
   048E 2F                 1320 	.db #0x2F	; 47
   048F 31                 1321 	.db #0x31	; 49	'1'
   0490 2F                 1322 	.db #0x2F	; 47
   0491 2D                 1323 	.db #0x2D	; 45
   0492 3F                 1324 	.db #0x3F	; 63
   0493 03                 1325 	.db #0x03	; 3
   0494 AC                 1326 	.db #0xAC	; 172
   0495 AA                 1327 	.db #0xAA	; 170
   0496 A9                 1328 	.db #0xA9	; 169
   0497 A5                 1329 	.db #0xA5	; 165
   0498 00                 1330 	.db #0x00	; 0
   0499 7F                 1331 	.db #0x7F	; 127
   049A 80                 1332 	.db #0x80	; 128
   049B BE                 1333 	.db #0xBE	; 190
   049C 7F                 1334 	.db #0x7F	; 127
   049D 80                 1335 	.db #0x80	; 128
   049E BE                 1336 	.db #0xBE	; 190
   049F 7F                 1337 	.db #0x7F	; 127
   04A0 81                 1338 	.db #0x81	; 129
   04A1 7F                 1339 	.db #0x7F	; 127
   04A2 80                 1340 	.db #0x80	; 128
   04A3 BE                 1341 	.db #0xBE	; 190
   04A4 7F                 1342 	.db #0x7F	; 127
   04A5 80                 1343 	.db #0x80	; 128
   04A6 BE                 1344 	.db #0xBE	; 190
   04A7 7F                 1345 	.db #0x7F	; 127
   04A8 41                 1346 	.db #0x41	; 65	'A'
   04A9 7F                 1347 	.db #0x7F	; 127
   04AA 40                 1348 	.db #0x40	; 64
   04AB 7F                 1349 	.db #0x7F	; 127
   04AC 80                 1350 	.db #0x80	; 128
   04AD BE                 1351 	.db #0xBE	; 190
   04AE 7F                 1352 	.db #0x7F	; 127
   04AF 80                 1353 	.db #0x80	; 128
   04B0 7F                 1354 	.db #0x7F	; 127
   04B1 40                 1355 	.db #0x40	; 64
   04B2 7F                 1356 	.db #0x7F	; 127
   04B3 81                 1357 	.db #0x81	; 129
   04B4 7F                 1358 	.db #0x7F	; 127
   04B5 80                 1359 	.db #0x80	; 128
   04B6 BE                 1360 	.db #0xBE	; 190
   04B7 7F                 1361 	.db #0x7F	; 127
   04B8 80                 1362 	.db #0x80	; 128
   04B9 BE                 1363 	.db #0xBE	; 190
   04BA 7F                 1364 	.db #0x7F	; 127
   04BB 01                 1365 	.db #0x01	; 1
   04BC 7F                 1366 	.db #0x7F	; 127
   04BD 01                 1367 	.db #0x01	; 1
   04BE 7F                 1368 	.db #0x7F	; 127
   04BF 41                 1369 	.db #0x41	; 65	'A'
   04C0 7F                 1370 	.db #0x7F	; 127
   04C1 80                 1371 	.db #0x80	; 128
   04C2 BE                 1372 	.db #0xBE	; 190
   04C3 7F                 1373 	.db #0x7F	; 127
   04C4 40                 1374 	.db #0x40	; 64
   04C5 7F                 1375 	.db #0x7F	; 127
   04C6 80                 1376 	.db #0x80	; 128
   04C7 7F                 1377 	.db #0x7F	; 127
   04C8 81                 1378 	.db #0x81	; 129
   04C9 7F                 1379 	.db #0x7F	; 127
   04CA 80                 1380 	.db #0x80	; 128
   04CB BE                 1381 	.db #0xBE	; 190
   04CC 7F                 1382 	.db #0x7F	; 127
   04CD 40                 1383 	.db #0x40	; 64
   04CE 7F                 1384 	.db #0x7F	; 127
   04CF 80                 1385 	.db #0x80	; 128
   04D0 7F                 1386 	.db #0x7F	; 127
   04D1 81                 1387 	.db #0x81	; 129
   04D2 7F                 1388 	.db #0x7F	; 127
   04D3 40                 1389 	.db #0x40	; 64
   04D4 7F                 1390 	.db #0x7F	; 127
   04D5 80                 1391 	.db #0x80	; 128
   04D6 7F                 1392 	.db #0x7F	; 127
   04D7 40                 1393 	.db #0x40	; 64
   04D8 7F                 1394 	.db #0x7F	; 127
   04D9 80                 1395 	.db #0x80	; 128
   04DA 7F                 1396 	.db #0x7F	; 127
   04DB 81                 1397 	.db #0x81	; 129
   04DC 7F                 1398 	.db #0x7F	; 127
   04DD 40                 1399 	.db #0x40	; 64
   04DE 7F                 1400 	.db #0x7F	; 127
   04DF 80                 1401 	.db #0x80	; 128
   04E0 7F                 1402 	.db #0x7F	; 127
   04E1 40                 1403 	.db #0x40	; 64
   04E2 7F                 1404 	.db #0x7F	; 127
   04E3 80                 1405 	.db #0x80	; 128
   04E4 7F                 1406 	.db #0x7F	; 127
   04E5 01                 1407 	.db #0x01	; 1
   04E6 7F                 1408 	.db #0x7F	; 127
   04E7 01                 1409 	.db #0x01	; 1
   04E8 7F                 1410 	.db #0x7F	; 127
   04E9 41                 1411 	.db #0x41	; 65	'A'
   04EA 7F                 1412 	.db #0x7F	; 127
   04EB 80                 1413 	.db #0x80	; 128
   04EC BE                 1414 	.db #0xBE	; 190
   04ED 7F                 1415 	.db #0x7F	; 127
   04EE 40                 1416 	.db #0x40	; 64
   04EF 7F                 1417 	.db #0x7F	; 127
   04F0 80                 1418 	.db #0x80	; 128
   04F1 7F                 1419 	.db #0x7F	; 127
   04F2 81                 1420 	.db #0x81	; 129
   04F3 7F                 1421 	.db #0x7F	; 127
   04F4 80                 1422 	.db #0x80	; 128
   04F5 BE                 1423 	.db #0xBE	; 190
   04F6 7F                 1424 	.db #0x7F	; 127
   04F7 40                 1425 	.db #0x40	; 64
   04F8 7F                 1426 	.db #0x7F	; 127
   04F9 80                 1427 	.db #0x80	; 128
   04FA 7F                 1428 	.db #0x7F	; 127
   04FB 81                 1429 	.db #0x81	; 129
   04FC 7F                 1430 	.db #0x7F	; 127
   04FD 40                 1431 	.db #0x40	; 64
   04FE 7F                 1432 	.db #0x7F	; 127
   04FF 80                 1433 	.db #0x80	; 128
   0500 7F                 1434 	.db #0x7F	; 127
   0501 40                 1435 	.db #0x40	; 64
   0502 7F                 1436 	.db #0x7F	; 127
   0503 80                 1437 	.db #0x80	; 128
   0504 7F                 1438 	.db #0x7F	; 127
   0505 81                 1439 	.db #0x81	; 129
   0506 7F                 1440 	.db #0x7F	; 127
   0507 40                 1441 	.db #0x40	; 64
   0508 7F                 1442 	.db #0x7F	; 127
   0509 80                 1443 	.db #0x80	; 128
   050A 7F                 1444 	.db #0x7F	; 127
   050B 40                 1445 	.db #0x40	; 64
   050C 7F                 1446 	.db #0x7F	; 127
   050D 80                 1447 	.db #0x80	; 128
   050E 7F                 1448 	.db #0x7F	; 127
   050F 41                 1449 	.db #0x41	; 65	'A'
   0510 7F                 1450 	.db #0x7F	; 127
   0511 41                 1451 	.db #0x41	; 65	'A'
   0512 7F                 1452 	.db #0x7F	; 127
   0513 80                 1453 	.db #0x80	; 128
   0514 BE                 1454 	.db #0xBE	; 190
   0515 7F                 1455 	.db #0x7F	; 127
   0516 40                 1456 	.db #0x40	; 64
   0517 7F                 1457 	.db #0x7F	; 127
   0518 80                 1458 	.db #0x80	; 128
   0519 7F                 1459 	.db #0x7F	; 127
   051A 81                 1460 	.db #0x81	; 129
   051B 7F                 1461 	.db #0x7F	; 127
   051C 80                 1462 	.db #0x80	; 128
   051D BE                 1463 	.db #0xBE	; 190
   051E 7F                 1464 	.db #0x7F	; 127
   051F 40                 1465 	.db #0x40	; 64
   0520 7F                 1466 	.db #0x7F	; 127
   0521 80                 1467 	.db #0x80	; 128
   0522 7F                 1468 	.db #0x7F	; 127
   0523 81                 1469 	.db #0x81	; 129
   0524 7F                 1470 	.db #0x7F	; 127
   0525 40                 1471 	.db #0x40	; 64
   0526 7F                 1472 	.db #0x7F	; 127
   0527 80                 1473 	.db #0x80	; 128
   0528 7F                 1474 	.db #0x7F	; 127
   0529 40                 1475 	.db #0x40	; 64
   052A 7F                 1476 	.db #0x7F	; 127
   052B 80                 1477 	.db #0x80	; 128
   052C 7F                 1478 	.db #0x7F	; 127
   052D 81                 1479 	.db #0x81	; 129
   052E 7F                 1480 	.db #0x7F	; 127
   052F 40                 1481 	.db #0x40	; 64
   0530 7F                 1482 	.db #0x7F	; 127
   0531 80                 1483 	.db #0x80	; 128
   0532 7F                 1484 	.db #0x7F	; 127
   0533 40                 1485 	.db #0x40	; 64
   0534 7F                 1486 	.db #0x7F	; 127
   0535 80                 1487 	.db #0x80	; 128
   0536 7F                 1488 	.db #0x7F	; 127
   0537 01                 1489 	.db #0x01	; 1
   0538 7F                 1490 	.db #0x7F	; 127
   0539 01                 1491 	.db #0x01	; 1
   053A 7F                 1492 	.db #0x7F	; 127
   053B 41                 1493 	.db #0x41	; 65	'A'
   053C 7F                 1494 	.db #0x7F	; 127
   053D 80                 1495 	.db #0x80	; 128
   053E BE                 1496 	.db #0xBE	; 190
   053F 7F                 1497 	.db #0x7F	; 127
   0540 40                 1498 	.db #0x40	; 64
   0541 7F                 1499 	.db #0x7F	; 127
   0542 80                 1500 	.db #0x80	; 128
   0543 7F                 1501 	.db #0x7F	; 127
   0544 81                 1502 	.db #0x81	; 129
   0545 7F                 1503 	.db #0x7F	; 127
   0546 80                 1504 	.db #0x80	; 128
   0547 BE                 1505 	.db #0xBE	; 190
   0548 7F                 1506 	.db #0x7F	; 127
   0549 40                 1507 	.db #0x40	; 64
   054A 7F                 1508 	.db #0x7F	; 127
   054B 80                 1509 	.db #0x80	; 128
   054C 7F                 1510 	.db #0x7F	; 127
   054D 81                 1511 	.db #0x81	; 129
   054E 7F                 1512 	.db #0x7F	; 127
   054F 40                 1513 	.db #0x40	; 64
   0550 7F                 1514 	.db #0x7F	; 127
   0551 80                 1515 	.db #0x80	; 128
   0552 7F                 1516 	.db #0x7F	; 127
   0553 40                 1517 	.db #0x40	; 64
   0554 7F                 1518 	.db #0x7F	; 127
   0555 80                 1519 	.db #0x80	; 128
   0556 7F                 1520 	.db #0x7F	; 127
   0557 81                 1521 	.db #0x81	; 129
   0558 7F                 1522 	.db #0x7F	; 127
   0559 40                 1523 	.db #0x40	; 64
   055A 7F                 1524 	.db #0x7F	; 127
   055B 80                 1525 	.db #0x80	; 128
   055C 7F                 1526 	.db #0x7F	; 127
   055D 40                 1527 	.db #0x40	; 64
   055E 7F                 1528 	.db #0x7F	; 127
   055F 01                 1529 	.db #0x01	; 1
   0560 7F                 1530 	.db #0x7F	; 127
   0561 01                 1531 	.db #0x01	; 1
   0562 7F                 1532 	.db #0x7F	; 127
   0563 41                 1533 	.db #0x41	; 65	'A'
   0564 7F                 1534 	.db #0x7F	; 127
   0565 01                 1535 	.db #0x01	; 1
   0566 7F                 1536 	.db #0x7F	; 127
   0567 01                 1537 	.db #0x01	; 1
   0568 7F                 1538 	.db #0x7F	; 127
   0569 41                 1539 	.db #0x41	; 65	'A'
   056A 7F                 1540 	.db #0x7F	; 127
   056B 00                 1541 	.db #0x00	; 0
   056C 7F                 1542 	.db #0x7F	; 127
   056D 40                 1543 	.db #0x40	; 64
   056E 7E                 1544 	.db #0x7E	; 126
   056F 7F                 1545 	.db #0x7F	; 127
   0570 41                 1546 	.db #0x41	; 65	'A'
   0571 7F                 1547 	.db #0x7F	; 127
   0572 80                 1548 	.db #0x80	; 128
   0573 7F                 1549 	.db #0x7F	; 127
   0574 40                 1550 	.db #0x40	; 64
   0575 7F                 1551 	.db #0x7F	; 127
   0576 81                 1552 	.db #0x81	; 129
   0577 7F                 1553 	.db #0x7F	; 127
   0578 40                 1554 	.db #0x40	; 64
   0579 7F                 1555 	.db #0x7F	; 127
   057A 40                 1556 	.db #0x40	; 64
   057B 7F                 1557 	.db #0x7F	; 127
   057C 41                 1558 	.db #0x41	; 65	'A'
   057D 7F                 1559 	.db #0x7F	; 127
   057E 80                 1560 	.db #0x80	; 128
   057F 7F                 1561 	.db #0x7F	; 127
   0580 40                 1562 	.db #0x40	; 64
   0581 7F                 1563 	.db #0x7F	; 127
   0582 81                 1564 	.db #0x81	; 129
   0583 7F                 1565 	.db #0x7F	; 127
   0584 00                 1566 	.db #0x00	; 0
   0585 7F                 1567 	.db #0x7F	; 127
   0586 40                 1568 	.db #0x40	; 64
   0587 7E                 1569 	.db #0x7E	; 126
   0588 7F                 1570 	.db #0x7F	; 127
   0589 41                 1571 	.db #0x41	; 65	'A'
   058A 7F                 1572 	.db #0x7F	; 127
   058B 80                 1573 	.db #0x80	; 128
   058C 7F                 1574 	.db #0x7F	; 127
   058D 40                 1575 	.db #0x40	; 64
   058E 7F                 1576 	.db #0x7F	; 127
   058F 81                 1577 	.db #0x81	; 129
   0590 7F                 1578 	.db #0x7F	; 127
   0591 40                 1579 	.db #0x40	; 64
   0592 7F                 1580 	.db #0x7F	; 127
   0593 40                 1581 	.db #0x40	; 64
   0594 7F                 1582 	.db #0x7F	; 127
   0595 41                 1583 	.db #0x41	; 65	'A'
   0596 7F                 1584 	.db #0x7F	; 127
   0597 80                 1585 	.db #0x80	; 128
   0598 7F                 1586 	.db #0x7F	; 127
   0599 40                 1587 	.db #0x40	; 64
   059A 7F                 1588 	.db #0x7F	; 127
   059B 01                 1589 	.db #0x01	; 1
   059C 7F                 1590 	.db #0x7F	; 127
   059D 41                 1591 	.db #0x41	; 65	'A'
   059E 7E                 1592 	.db #0x7E	; 126
   059F 7F                 1593 	.db #0x7F	; 127
   05A0 00                 1594 	.db #0x00	; 0
   05A1 7F                 1595 	.db #0x7F	; 127
   05A2 40                 1596 	.db #0x40	; 64
   05A3 7E                 1597 	.db #0x7E	; 126
   05A4 7F                 1598 	.db #0x7F	; 127
   05A5 41                 1599 	.db #0x41	; 65	'A'
   05A6 7F                 1600 	.db #0x7F	; 127
   05A7 80                 1601 	.db #0x80	; 128
   05A8 7F                 1602 	.db #0x7F	; 127
   05A9 40                 1603 	.db #0x40	; 64
   05AA 7F                 1604 	.db #0x7F	; 127
   05AB 81                 1605 	.db #0x81	; 129
   05AC 7F                 1606 	.db #0x7F	; 127
   05AD 40                 1607 	.db #0x40	; 64
   05AE 7F                 1608 	.db #0x7F	; 127
   05AF 40                 1609 	.db #0x40	; 64
   05B0 7F                 1610 	.db #0x7F	; 127
   05B1 41                 1611 	.db #0x41	; 65	'A'
   05B2 7F                 1612 	.db #0x7F	; 127
   05B3 80                 1613 	.db #0x80	; 128
   05B4 7F                 1614 	.db #0x7F	; 127
   05B5 40                 1615 	.db #0x40	; 64
   05B6 7F                 1616 	.db #0x7F	; 127
   05B7 81                 1617 	.db #0x81	; 129
   05B8 7F                 1618 	.db #0x7F	; 127
   05B9 00                 1619 	.db #0x00	; 0
   05BA 7F                 1620 	.db #0x7F	; 127
   05BB 40                 1621 	.db #0x40	; 64
   05BC 7E                 1622 	.db #0x7E	; 126
   05BD 7F                 1623 	.db #0x7F	; 127
   05BE 41                 1624 	.db #0x41	; 65	'A'
   05BF 7F                 1625 	.db #0x7F	; 127
   05C0 80                 1626 	.db #0x80	; 128
   05C1 7F                 1627 	.db #0x7F	; 127
   05C2 40                 1628 	.db #0x40	; 64
   05C3 7F                 1629 	.db #0x7F	; 127
   05C4 81                 1630 	.db #0x81	; 129
   05C5 7F                 1631 	.db #0x7F	; 127
   05C6 40                 1632 	.db #0x40	; 64
   05C7 7F                 1633 	.db #0x7F	; 127
   05C8 40                 1634 	.db #0x40	; 64
   05C9 7F                 1635 	.db #0x7F	; 127
   05CA 41                 1636 	.db #0x41	; 65	'A'
   05CB 7F                 1637 	.db #0x7F	; 127
   05CC 80                 1638 	.db #0x80	; 128
   05CD 7F                 1639 	.db #0x7F	; 127
   05CE 40                 1640 	.db #0x40	; 64
   05CF 7F                 1641 	.db #0x7F	; 127
   05D0 01                 1642 	.db #0x01	; 1
   05D1 7F                 1643 	.db #0x7F	; 127
   05D2 41                 1644 	.db #0x41	; 65	'A'
   05D3 7E                 1645 	.db #0x7E	; 126
   05D4 7F                 1646 	.db #0x7F	; 127
   05D5 41                 1647 	.db #0x41	; 65	'A'
   05D6 7F                 1648 	.db #0x7F	; 127
   05D7 40                 1649 	.db #0x40	; 64
   05D8 7F                 1650 	.db #0x7F	; 127
   05D9 41                 1651 	.db #0x41	; 65	'A'
   05DA 7F                 1652 	.db #0x7F	; 127
   05DB 40                 1653 	.db #0x40	; 64
   05DC 7F                 1654 	.db #0x7F	; 127
   05DD 01                 1655 	.db #0x01	; 1
   05DE 7F                 1656 	.db #0x7F	; 127
   05DF 01                 1657 	.db #0x01	; 1
   05E0 7F                 1658 	.db #0x7F	; 127
   05E1 41                 1659 	.db #0x41	; 65	'A'
   05E2 7F                 1660 	.db #0x7F	; 127
   05E3 01                 1661 	.db #0x01	; 1
   05E4 7F                 1662 	.db #0x7F	; 127
   05E5 01                 1663 	.db #0x01	; 1
   05E6 7F                 1664 	.db #0x7F	; 127
   05E7 01                 1665 	.db #0x01	; 1
   05E8 7F                 1666 	.db #0x7F	; 127
   05E9 01                 1667 	.db #0x01	; 1
   05EA 00                 1668 	.db #0x00	; 0
   05EB 00                 1669 	.db #0x00	; 0
   05EC                    1670 _direccionLinea:
   05EC 00 C0              1671 	.dw #0xC000
   05EE 00 C8              1672 	.dw #0xC800
   05F0 00 D0              1673 	.dw #0xD000
   05F2 00 D8              1674 	.dw #0xD800
   05F4 00 E0              1675 	.dw #0xE000
   05F6 00 E8              1676 	.dw #0xE800
   05F8 00 F0              1677 	.dw #0xF000
   05FA 00 F8              1678 	.dw #0xF800
   05FC 50 C0              1679 	.dw #0xC050
   05FE 50 C8              1680 	.dw #0xC850
   0600 50 D0              1681 	.dw #0xD050
   0602 50 D8              1682 	.dw #0xD850
   0604 50 E0              1683 	.dw #0xE050
   0606 50 E8              1684 	.dw #0xE850
   0608 50 F0              1685 	.dw #0xF050
   060A 50 F8              1686 	.dw #0xF850
   060C A0 C0              1687 	.dw #0xC0A0
   060E A0 C8              1688 	.dw #0xC8A0
   0610 A0 D0              1689 	.dw #0xD0A0
   0612 A0 D8              1690 	.dw #0xD8A0
   0614 A0 E0              1691 	.dw #0xE0A0
   0616 A0 E8              1692 	.dw #0xE8A0
   0618 A0 F0              1693 	.dw #0xF0A0
   061A A0 F8              1694 	.dw #0xF8A0
   061C F0 C0              1695 	.dw #0xC0F0
   061E F0 C8              1696 	.dw #0xC8F0
   0620 F0 D0              1697 	.dw #0xD0F0
   0622 F0 D8              1698 	.dw #0xD8F0
   0624 F0 E0              1699 	.dw #0xE0F0
   0626 F0 E8              1700 	.dw #0xE8F0
   0628 F0 F0              1701 	.dw #0xF0F0
   062A F0 F8              1702 	.dw #0xF8F0
   062C 40 C1              1703 	.dw #0xC140
   062E 40 C9              1704 	.dw #0xC940
   0630 40 D1              1705 	.dw #0xD140
   0632 40 D9              1706 	.dw #0xD940
   0634 40 E1              1707 	.dw #0xE140
   0636 40 E9              1708 	.dw #0xE940
   0638 40 F1              1709 	.dw #0xF140
   063A 40 F9              1710 	.dw #0xF940
   063C 90 C1              1711 	.dw #0xC190
   063E 90 C9              1712 	.dw #0xC990
   0640 90 D1              1713 	.dw #0xD190
   0642 90 D9              1714 	.dw #0xD990
   0644 90 E1              1715 	.dw #0xE190
   0646 90 E9              1716 	.dw #0xE990
   0648 90 F1              1717 	.dw #0xF190
   064A 90 F9              1718 	.dw #0xF990
   064C E0 C1              1719 	.dw #0xC1E0
   064E E0 C9              1720 	.dw #0xC9E0
   0650 E0 D1              1721 	.dw #0xD1E0
   0652 E0 D9              1722 	.dw #0xD9E0
   0654 E0 E1              1723 	.dw #0xE1E0
   0656 E0 E9              1724 	.dw #0xE9E0
   0658 E0 F1              1725 	.dw #0xF1E0
   065A E0 F9              1726 	.dw #0xF9E0
   065C 30 C2              1727 	.dw #0xC230
   065E 30 CA              1728 	.dw #0xCA30
   0660 30 D2              1729 	.dw #0xD230
   0662 30 DA              1730 	.dw #0xDA30
   0664 30 E2              1731 	.dw #0xE230
   0666 30 EA              1732 	.dw #0xEA30
   0668 30 F2              1733 	.dw #0xF230
   066A 30 FA              1734 	.dw #0xFA30
   066C 80 C2              1735 	.dw #0xC280
   066E 80 CA              1736 	.dw #0xCA80
   0670 80 D2              1737 	.dw #0xD280
   0672 80 DA              1738 	.dw #0xDA80
   0674 80 E2              1739 	.dw #0xE280
   0676 80 EA              1740 	.dw #0xEA80
   0678 80 F2              1741 	.dw #0xF280
   067A 80 FA              1742 	.dw #0xFA80
   067C D0 C2              1743 	.dw #0xC2D0
   067E D0 CA              1744 	.dw #0xCAD0
   0680 D0 D2              1745 	.dw #0xD2D0
   0682 D0 DA              1746 	.dw #0xDAD0
   0684 D0 E2              1747 	.dw #0xE2D0
   0686 D0 EA              1748 	.dw #0xEAD0
   0688 D0 F2              1749 	.dw #0xF2D0
   068A D0 FA              1750 	.dw #0xFAD0
   068C 20 C3              1751 	.dw #0xC320
   068E 20 CB              1752 	.dw #0xCB20
   0690 20 D3              1753 	.dw #0xD320
   0692 20 DB              1754 	.dw #0xDB20
   0694 20 E3              1755 	.dw #0xE320
   0696 20 EB              1756 	.dw #0xEB20
   0698 20 F3              1757 	.dw #0xF320
   069A 20 FB              1758 	.dw #0xFB20
   069C 70 C3              1759 	.dw #0xC370
   069E 70 CB              1760 	.dw #0xCB70
   06A0 70 D3              1761 	.dw #0xD370
   06A2 70 DB              1762 	.dw #0xDB70
   06A4 70 E3              1763 	.dw #0xE370
   06A6 70 EB              1764 	.dw #0xEB70
   06A8 70 F3              1765 	.dw #0xF370
   06AA 70 FB              1766 	.dw #0xFB70
   06AC C0 C3              1767 	.dw #0xC3C0
   06AE C0 CB              1768 	.dw #0xCBC0
   06B0 C0 D3              1769 	.dw #0xD3C0
   06B2 C0 DB              1770 	.dw #0xDBC0
   06B4 C0 E3              1771 	.dw #0xE3C0
   06B6 C0 EB              1772 	.dw #0xEBC0
   06B8 C0 F3              1773 	.dw #0xF3C0
   06BA C0 FB              1774 	.dw #0xFBC0
   06BC 10 C4              1775 	.dw #0xC410
   06BE 10 CC              1776 	.dw #0xCC10
   06C0 10 D4              1777 	.dw #0xD410
   06C2 10 DC              1778 	.dw #0xDC10
   06C4 10 E4              1779 	.dw #0xE410
   06C6 10 EC              1780 	.dw #0xEC10
   06C8 10 F4              1781 	.dw #0xF410
   06CA 10 FC              1782 	.dw #0xFC10
   06CC 60 C4              1783 	.dw #0xC460
   06CE 60 CC              1784 	.dw #0xCC60
   06D0 60 D4              1785 	.dw #0xD460
   06D2 60 DC              1786 	.dw #0xDC60
   06D4 60 E4              1787 	.dw #0xE460
   06D6 60 EC              1788 	.dw #0xEC60
   06D8 60 F4              1789 	.dw #0xF460
   06DA 60 FC              1790 	.dw #0xFC60
   06DC B0 C4              1791 	.dw #0xC4B0
   06DE B0 CC              1792 	.dw #0xCCB0
   06E0 B0 D4              1793 	.dw #0xD4B0
   06E2 B0 DC              1794 	.dw #0xDCB0
   06E4 B0 E4              1795 	.dw #0xE4B0
   06E6 B0 EC              1796 	.dw #0xECB0
   06E8 B0 F4              1797 	.dw #0xF4B0
   06EA B0 FC              1798 	.dw #0xFCB0
   06EC 00 C5              1799 	.dw #0xC500
   06EE 00 CD              1800 	.dw #0xCD00
   06F0 00 D5              1801 	.dw #0xD500
   06F2 00 DD              1802 	.dw #0xDD00
   06F4 00 E5              1803 	.dw #0xE500
   06F6 00 ED              1804 	.dw #0xED00
   06F8 00 F5              1805 	.dw #0xF500
   06FA 00 FD              1806 	.dw #0xFD00
   06FC 50 C5              1807 	.dw #0xC550
   06FE 50 CD              1808 	.dw #0xCD50
   0700 50 D5              1809 	.dw #0xD550
   0702 50 DD              1810 	.dw #0xDD50
   0704 50 E5              1811 	.dw #0xE550
   0706 50 ED              1812 	.dw #0xED50
   0708 50 F5              1813 	.dw #0xF550
   070A 50 FD              1814 	.dw #0xFD50
   070C A0 C5              1815 	.dw #0xC5A0
   070E A0 CD              1816 	.dw #0xCDA0
   0710 A0 D5              1817 	.dw #0xD5A0
   0712 A0 DD              1818 	.dw #0xDDA0
   0714 A0 E5              1819 	.dw #0xE5A0
   0716 A0 ED              1820 	.dw #0xEDA0
   0718 A0 F5              1821 	.dw #0xF5A0
   071A A0 FD              1822 	.dw #0xFDA0
   071C F0 C5              1823 	.dw #0xC5F0
   071E F0 CD              1824 	.dw #0xCDF0
   0720 F0 D5              1825 	.dw #0xD5F0
   0722 F0 DD              1826 	.dw #0xDDF0
   0724 F0 E5              1827 	.dw #0xE5F0
   0726 F0 ED              1828 	.dw #0xEDF0
   0728 F0 F5              1829 	.dw #0xF5F0
   072A F0 FD              1830 	.dw #0xFDF0
   072C 40 C6              1831 	.dw #0xC640
   072E 40 CE              1832 	.dw #0xCE40
   0730 40 D6              1833 	.dw #0xD640
   0732 40 DE              1834 	.dw #0xDE40
   0734 40 E6              1835 	.dw #0xE640
   0736 40 EE              1836 	.dw #0xEE40
   0738 40 F6              1837 	.dw #0xF640
   073A 40 FE              1838 	.dw #0xFE40
   073C 90 C6              1839 	.dw #0xC690
   073E 90 CE              1840 	.dw #0xCE90
   0740 90 D6              1841 	.dw #0xD690
   0742 90 DE              1842 	.dw #0xDE90
   0744 90 E6              1843 	.dw #0xE690
   0746 90 EE              1844 	.dw #0xEE90
   0748 90 F6              1845 	.dw #0xF690
   074A 90 FE              1846 	.dw #0xFE90
   074C E0 C6              1847 	.dw #0xC6E0
   074E E0 CE              1848 	.dw #0xCEE0
   0750 E0 D6              1849 	.dw #0xD6E0
   0752 E0 DE              1850 	.dw #0xDEE0
   0754 E0 E6              1851 	.dw #0xE6E0
   0756 E0 EE              1852 	.dw #0xEEE0
   0758 E0 F6              1853 	.dw #0xF6E0
   075A E0 FE              1854 	.dw #0xFEE0
   075C 30 C7              1855 	.dw #0xC730
   075E 30 CF              1856 	.dw #0xCF30
   0760 30 D7              1857 	.dw #0xD730
   0762 30 DF              1858 	.dw #0xDF30
   0764 30 E7              1859 	.dw #0xE730
   0766 30 EF              1860 	.dw #0xEF30
   0768 30 F7              1861 	.dw #0xF730
   076A 30 FF              1862 	.dw #0xFF30
   076C 80 C7              1863 	.dw #0xC780
   076E 80 CF              1864 	.dw #0xCF80
   0770 80 D7              1865 	.dw #0xD780
   0772 80 DF              1866 	.dw #0xDF80
   0774 80 E7              1867 	.dw #0xE780
   0776 80 EF              1868 	.dw #0xEF80
   0778 80 F7              1869 	.dw #0xF780
   077A 80 FF              1870 	.dw #0xFF80
                           1871 ;alien6.c:156: void timerOff(void) {
                           1872 ;	---------------------------------
                           1873 ; Function timerOff
                           1874 ; ---------------------------------
   077C                    1875 _timerOff_start::
   077C                    1876 _timerOff:
                           1877 ;alien6.c:165: __endasm;
   077C F3            [ 4] 1878 	DI
   077D ED 56         [ 8] 1879 	IM 1
   077F 21 38 00      [10] 1880 	LD HL,#0X0038
   0782 36 FB         [10] 1881 	LD (HL),#0XFB ;EI
   0784 23            [ 6] 1882 	INC HL
   0785 36 C9         [10] 1883 	LD (HL),#0XC9 ;RET
   0787 FB            [ 4] 1884 	EI
   0788 C9            [10] 1885 	ret
   0789                    1886 _timerOff_end::
                           1887 ;alien6.c:171: unsigned long getTime()
                           1888 ;	---------------------------------
                           1889 ; Function getTime
                           1890 ; ---------------------------------
   0789                    1891 _getTime_start::
   0789                    1892 _getTime:
                           1893 ;alien6.c:174: nTime = (timer1 << 8) + timer0;
   0789 21r5Er03      [10] 1894 	ld	hl,#_timer1 + 0
   078C 56            [ 7] 1895 	ld	d, (hl)
   078D 1E 00         [ 7] 1896 	ld	e,#0x00
   078F 2Ar5Cr03      [16] 1897 	ld	hl,(_timer0)
   0792 19            [11] 1898 	add	hl,de
   0793 11 00 00      [10] 1899 	ld	de,#0x0000
                           1900 ;alien6.c:175: return nTime;
   0796 C9            [10] 1901 	ret
   0797                    1902 _getTime_end::
                           1903 ;alien6.c:181: void halt_me () {			
                           1904 ;	---------------------------------
                           1905 ; Function halt_me
                           1906 ; ---------------------------------
   0797                    1907 _halt_me_start::
   0797                    1908 _halt_me:
                           1909 ;alien6.c:188: __endasm;
   0797 76            [ 4] 1910 	halt
   0798 76            [ 4] 1911 	halt
   0799 76            [ 4] 1912 	halt
   079A 76            [ 4] 1913 	halt
   079B 76            [ 4] 1914 	halt
   079C C9            [10] 1915 	ret
   079D                    1916 _halt_me_end::
                           1917 ;alien6.c:194: void scr_waitVSYNC() {
                           1918 ;	---------------------------------
                           1919 ; Function scr_waitVSYNC
                           1920 ; ---------------------------------
   079D                    1921 _scr_waitVSYNC_start::
   079D                    1922 _scr_waitVSYNC:
                           1923 ;alien6.c:202: __endasm;
   079D                    1924 	 wait_vs:
   079D 06 F5         [ 7] 1925 	ld b, #0xF5
   079F ED 78         [12] 1926 	in a, (c)
   07A1 1F            [ 4] 1927 	rra
   07A2 30 F9         [12] 1928 	jr nc, wait_vs
   07A4 C9            [10] 1929 	ret
   07A5                    1930 _scr_waitVSYNC_end::
                           1931 ;alien6.c:208: void pause(unsigned char p){
                           1932 ;	---------------------------------
                           1933 ; Function pause
                           1934 ; ---------------------------------
   07A5                    1935 _pause_start::
   07A5                    1936 _pause:
                           1937 ;alien6.c:210: for (i=0; i < p; i++) {
   07A5 16 00         [ 7] 1938 	ld	d,#0x00
   07A7                    1939 00103$:
   07A7 21 02 00      [10] 1940 	ld	hl,#2
   07AA 39            [11] 1941 	add	hl,sp
   07AB 7A            [ 4] 1942 	ld	a,d
   07AC 96            [ 7] 1943 	sub	a, (hl)
   07AD D0            [11] 1944 	ret	NC
                           1945 ;alien6.c:213: __endasm;
   07AE 76            [ 4] 1946 	halt
                           1947 ;alien6.c:210: for (i=0; i < p; i++) {
   07AF 14            [ 4] 1948 	inc	d
   07B0 18 F5         [12] 1949 	jr	00103$
   07B2 C9            [10] 1950 	ret
   07B3                    1951 _pause_end::
                           1952 ;alien6.c:220: void set_colours()
                           1953 ;	---------------------------------
                           1954 ; Function set_colours
                           1955 ; ---------------------------------
   07B3                    1956 _set_colours_start::
   07B3                    1957 _set_colours:
                           1958 ;alien6.c:223: for (x=0; x<17; x++)
   07B3 1E 00         [ 7] 1959 	ld	e,#0x00
   07B5                    1960 00102$:
                           1961 ;alien6.c:225: cpc_SetColour(x,tintas[x]);
   07B5 21r14r00      [10] 1962 	ld	hl,#_tintas
   07B8 16 00         [ 7] 1963 	ld	d,#0x00
   07BA 19            [11] 1964 	add	hl, de
   07BB 66            [ 7] 1965 	ld	h,(hl)
   07BC D5            [11] 1966 	push	de
   07BD E5            [11] 1967 	push	hl
   07BE 33            [ 6] 1968 	inc	sp
   07BF 7B            [ 4] 1969 	ld	a,e
   07C0 F5            [11] 1970 	push	af
   07C1 33            [ 6] 1971 	inc	sp
   07C2 CDr00r00      [17] 1972 	call	_cpc_SetColour
   07C5 F1            [10] 1973 	pop	af
   07C6 D1            [10] 1974 	pop	de
                           1975 ;alien6.c:223: for (x=0; x<17; x++)
   07C7 1C            [ 4] 1976 	inc	e
   07C8 7B            [ 4] 1977 	ld	a,e
   07C9 D6 11         [ 7] 1978 	sub	a, #0x11
   07CB 38 E8         [12] 1979 	jr	C,00102$
   07CD C9            [10] 1980 	ret
   07CE                    1981 _set_colours_end::
                           1982 ;alien6.c:232: unsigned char detectarColision(unsigned char x1,unsigned char y1,unsigned char w1,unsigned char h1,unsigned char x2,unsigned char y2,unsigned char w2,unsigned char h2){
                           1983 ;	---------------------------------
                           1984 ; Function detectarColision
                           1985 ; ---------------------------------
   07CE                    1986 _detectarColision_start::
   07CE                    1987 _detectarColision:
                           1988 ;alien6.c:233: return ((x1 < x2 + w2) &&
   07CE 21 06 00      [10] 1989 	ld	hl, #6+0
   07D1 39            [11] 1990 	add	hl, sp
   07D2 5E            [ 7] 1991 	ld	e, (hl)
   07D3 16 00         [ 7] 1992 	ld	d,#0x00
   07D5 FD 21 08 00   [14] 1993 	ld	iy,#8
   07D9 FD 39         [15] 1994 	add	iy,sp
   07DB FD 6E 00      [19] 1995 	ld	l,0 (iy)
   07DE 26 00         [ 7] 1996 	ld	h,#0x00
   07E0 19            [11] 1997 	add	hl,de
   07E1 FD 21 02 00   [14] 1998 	ld	iy,#2
   07E5 FD 39         [15] 1999 	add	iy,sp
   07E7 FD 4E 00      [19] 2000 	ld	c,0 (iy)
   07EA 06 00         [ 7] 2001 	ld	b,#0x00
   07EC 79            [ 4] 2002 	ld	a,c
   07ED 95            [ 4] 2003 	sub	a, l
   07EE 78            [ 4] 2004 	ld	a,b
   07EF 9C            [ 4] 2005 	sbc	a, h
   07F0 E2rF5r07      [10] 2006 	jp	PO, 00122$
   07F3 EE 80         [ 7] 2007 	xor	a, #0x80
   07F5                    2008 00122$:
   07F5 F2r54r08      [10] 2009 	jp	P,00103$
                           2010 ;alien6.c:234: (x1 + w1 > x2) &&
   07F8 FD 21 04 00   [14] 2011 	ld	iy,#4
   07FC FD 39         [15] 2012 	add	iy,sp
   07FE FD 6E 00      [19] 2013 	ld	l,0 (iy)
   0801 26 00         [ 7] 2014 	ld	h,#0x00
   0803 09            [11] 2015 	add	hl,bc
   0804 7B            [ 4] 2016 	ld	a,e
   0805 95            [ 4] 2017 	sub	a, l
   0806 7A            [ 4] 2018 	ld	a,d
   0807 9C            [ 4] 2019 	sbc	a, h
   0808 E2r0Dr08      [10] 2020 	jp	PO, 00123$
   080B EE 80         [ 7] 2021 	xor	a, #0x80
   080D                    2022 00123$:
   080D F2r54r08      [10] 2023 	jp	P,00103$
                           2024 ;alien6.c:235: (y1 < y2 + h2) &&
   0810 21 07 00      [10] 2025 	ld	hl, #7+0
   0813 39            [11] 2026 	add	hl, sp
   0814 5E            [ 7] 2027 	ld	e, (hl)
   0815 16 00         [ 7] 2028 	ld	d,#0x00
   0817 FD 21 09 00   [14] 2029 	ld	iy,#9
   081B FD 39         [15] 2030 	add	iy,sp
   081D FD 6E 00      [19] 2031 	ld	l,0 (iy)
   0820 26 00         [ 7] 2032 	ld	h,#0x00
   0822 19            [11] 2033 	add	hl,de
   0823 FD 21 03 00   [14] 2034 	ld	iy,#3
   0827 FD 39         [15] 2035 	add	iy,sp
   0829 FD 4E 00      [19] 2036 	ld	c,0 (iy)
   082C 06 00         [ 7] 2037 	ld	b,#0x00
   082E 79            [ 4] 2038 	ld	a,c
   082F 95            [ 4] 2039 	sub	a, l
   0830 78            [ 4] 2040 	ld	a,b
   0831 9C            [ 4] 2041 	sbc	a, h
   0832 E2r37r08      [10] 2042 	jp	PO, 00124$
   0835 EE 80         [ 7] 2043 	xor	a, #0x80
   0837                    2044 00124$:
   0837 F2r54r08      [10] 2045 	jp	P,00103$
                           2046 ;alien6.c:236: (h1 + y1 > y2));
   083A FD 21 05 00   [14] 2047 	ld	iy,#5
   083E FD 39         [15] 2048 	add	iy,sp
   0840 FD 6E 00      [19] 2049 	ld	l,0 (iy)
   0843 26 00         [ 7] 2050 	ld	h,#0x00
   0845 09            [11] 2051 	add	hl,bc
   0846 4D            [ 4] 2052 	ld	c,l
   0847 44            [ 4] 2053 	ld	b,h
   0848 7B            [ 4] 2054 	ld	a,e
   0849 91            [ 4] 2055 	sub	a, c
   084A 7A            [ 4] 2056 	ld	a,d
   084B 98            [ 4] 2057 	sbc	a, b
   084C E2r51r08      [10] 2058 	jp	PO, 00125$
   084F EE 80         [ 7] 2059 	xor	a, #0x80
   0851                    2060 00125$:
   0851 FAr57r08      [10] 2061 	jp	M,00104$
   0854                    2062 00103$:
   0854 2E 00         [ 7] 2063 	ld	l,#0x00
   0856 C9            [10] 2064 	ret
   0857                    2065 00104$:
   0857 2E 01         [ 7] 2066 	ld	l,#0x01
   0859 C9            [10] 2067 	ret
   085A                    2068 _detectarColision_end::
                           2069 ;alien6.c:242: void letrasColorAzul(){
                           2070 ;	---------------------------------
                           2071 ; Function letrasColorAzul
                           2072 ; ---------------------------------
   085A                    2073 _letrasColorAzul_start::
   085A                    2074 _letrasColorAzul:
                           2075 ;alien6.c:243: cpc_SetInkGphStr(0,0);
   085A 21 00 00      [10] 2076 	ld	hl,#0x0000
   085D E5            [11] 2077 	push	hl
   085E CDr00r00      [17] 2078 	call	_cpc_SetInkGphStr
                           2079 ;alien6.c:244: cpc_SetInkGphStr(1,42);
   0861 21 01 2A      [10] 2080 	ld	hl, #0x2A01
   0864 E3            [19] 2081 	ex	(sp),hl
   0865 CDr00r00      [17] 2082 	call	_cpc_SetInkGphStr
                           2083 ;alien6.c:245: cpc_SetInkGphStr(2,34);
   0868 21 02 22      [10] 2084 	ld	hl, #0x2202
   086B E3            [19] 2085 	ex	(sp),hl
   086C CDr00r00      [17] 2086 	call	_cpc_SetInkGphStr
                           2087 ;alien6.c:246: cpc_SetInkGphStr(3,42);
   086F 21 03 2A      [10] 2088 	ld	hl, #0x2A03
   0872 E3            [19] 2089 	ex	(sp),hl
   0873 CDr00r00      [17] 2090 	call	_cpc_SetInkGphStr
                           2091 ;alien6.c:247: pause(2);
   0876 26 02         [ 7] 2092 	ld	h,#0x02
   0878 E3            [19] 2093 	ex	(sp),hl
   0879 33            [ 6] 2094 	inc	sp
   087A CDrA5r07      [17] 2095 	call	_pause
   087D 33            [ 6] 2096 	inc	sp
   087E C9            [10] 2097 	ret
   087F                    2098 _letrasColorAzul_end::
                           2099 ;alien6.c:253: void letrasColorRojo(){
                           2100 ;	---------------------------------
                           2101 ; Function letrasColorRojo
                           2102 ; ---------------------------------
   087F                    2103 _letrasColorRojo_start::
   087F                    2104 _letrasColorRojo:
                           2105 ;alien6.c:254: cpc_SetInkGphStr(0,0);
   087F 21 00 00      [10] 2106 	ld	hl,#0x0000
   0882 E5            [11] 2107 	push	hl
   0883 CDr00r00      [17] 2108 	call	_cpc_SetInkGphStr
                           2109 ;alien6.c:255: cpc_SetInkGphStr(1,40);
   0886 21 01 28      [10] 2110 	ld	hl, #0x2801
   0889 E3            [19] 2111 	ex	(sp),hl
   088A CDr00r00      [17] 2112 	call	_cpc_SetInkGphStr
                           2113 ;alien6.c:256: cpc_SetInkGphStr(2,136);
   088D 21 02 88      [10] 2114 	ld	hl, #0x8802
   0890 E3            [19] 2115 	ex	(sp),hl
   0891 CDr00r00      [17] 2116 	call	_cpc_SetInkGphStr
                           2117 ;alien6.c:257: cpc_SetInkGphStr(3,40);
   0894 21 03 28      [10] 2118 	ld	hl, #0x2803
   0897 E3            [19] 2119 	ex	(sp),hl
   0898 CDr00r00      [17] 2120 	call	_cpc_SetInkGphStr
                           2121 ;alien6.c:258: pause(2);
   089B 26 02         [ 7] 2122 	ld	h,#0x02
   089D E3            [19] 2123 	ex	(sp),hl
   089E 33            [ 6] 2124 	inc	sp
   089F CDrA5r07      [17] 2125 	call	_pause
   08A2 33            [ 6] 2126 	inc	sp
   08A3 C9            [10] 2127 	ret
   08A4                    2128 _letrasColorRojo_end::
                           2129 ;alien6.c:264: unsigned char pixelEstrella(unsigned char nPixel){
                           2130 ;	---------------------------------
                           2131 ; Function pixelEstrella
                           2132 ; ---------------------------------
   08A4                    2133 _pixelEstrella_start::
   08A4                    2134 _pixelEstrella:
                           2135 ;alien6.c:267: if(nPixel == 0)
   08A4 21 02 00      [10] 2136 	ld	hl, #2+0
   08A7 39            [11] 2137 	add	hl, sp
   08A8 7E            [ 7] 2138 	ld	a, (hl)
   08A9 B7            [ 4] 2139 	or	a, a
   08AA 20 03         [12] 2140 	jr	NZ,00102$
                           2141 ;alien6.c:269: nByte = 32;
   08AC 2E 20         [ 7] 2142 	ld	l,#0x20
   08AE C9            [10] 2143 	ret
   08AF                    2144 00102$:
                           2145 ;alien6.c:272: nByte = 16;
   08AF 2E 10         [ 7] 2146 	ld	l,#0x10
                           2147 ;alien6.c:275: return nByte;
   08B1 C9            [10] 2148 	ret
   08B2                    2149 _pixelEstrella_end::
                           2150 ;alien6.c:278: unsigned char GetMode0PixelColorByte(unsigned char nColor, unsigned char nPixel)
                           2151 ;	---------------------------------
                           2152 ; Function GetMode0PixelColorByte
                           2153 ; ---------------------------------
   08B2                    2154 _GetMode0PixelColorByte_start::
   08B2                    2155 _GetMode0PixelColorByte:
                           2156 ;alien6.c:286: if(nColor & 1)
   08B2 FD 21 02 00   [14] 2157 	ld	iy,#2
   08B6 FD 39         [15] 2158 	add	iy,sp
   08B8 FD 7E 00      [19] 2159 	ld	a,0 (iy)
   08BB E6 01         [ 7] 2160 	and	a, #0x01
   08BD 67            [ 4] 2161 	ld	h,a
                           2162 ;alien6.c:289: if(nColor & 2)
   08BE FD 7E 00      [19] 2163 	ld	a,0 (iy)
   08C1 E6 02         [ 7] 2164 	and	a, #0x02
   08C3 47            [ 4] 2165 	ld	b,a
                           2166 ;alien6.c:292: if(nColor & 4)
   08C4 FD 7E 00      [19] 2167 	ld	a,0 (iy)
   08C7 E6 04         [ 7] 2168 	and	a, #0x04
   08C9 6F            [ 4] 2169 	ld	l,a
                           2170 ;alien6.c:295: if(nColor & 8)
   08CA FD 7E 00      [19] 2171 	ld	a,0 (iy)
   08CD E6 08         [ 7] 2172 	and	a, #0x08
   08CF 4F            [ 4] 2173 	ld	c,a
                           2174 ;alien6.c:282: if(nPixel == 0)
   08D0 FD 21 03 00   [14] 2175 	ld	iy,#3
   08D4 FD 39         [15] 2176 	add	iy,sp
   08D6 FD 7E 00      [19] 2177 	ld	a,0 (iy)
                           2178 ;alien6.c:284: nByte &= 85;
   08D9 B7            [ 4] 2179 	or	a,a
   08DA 20 1B         [12] 2180 	jr	NZ,00118$
   08DC 5F            [ 4] 2181 	ld	e,a
                           2182 ;alien6.c:286: if(nColor & 1)
   08DD 7C            [ 4] 2183 	ld	a,h
   08DE B7            [ 4] 2184 	or	a, a
   08DF 28 02         [12] 2185 	jr	Z,00102$
                           2186 ;alien6.c:287: nByte |= 128;
   08E1 1E 80         [ 7] 2187 	ld	e,#0x80
   08E3                    2188 00102$:
                           2189 ;alien6.c:289: if(nColor & 2)
   08E3 78            [ 4] 2190 	ld	a,b
   08E4 B7            [ 4] 2191 	or	a, a
   08E5 28 02         [12] 2192 	jr	Z,00104$
                           2193 ;alien6.c:290: nByte |= 8;
   08E7 CB DB         [ 8] 2194 	set	3, e
   08E9                    2195 00104$:
                           2196 ;alien6.c:292: if(nColor & 4)
   08E9 7D            [ 4] 2197 	ld	a,l
   08EA B7            [ 4] 2198 	or	a, a
   08EB 28 02         [12] 2199 	jr	Z,00106$
                           2200 ;alien6.c:293: nByte |= 32;
   08ED CB EB         [ 8] 2201 	set	5, e
   08EF                    2202 00106$:
                           2203 ;alien6.c:295: if(nColor & 8)
   08EF 79            [ 4] 2204 	ld	a,c
   08F0 B7            [ 4] 2205 	or	a, a
   08F1 28 1E         [12] 2206 	jr	Z,00119$
                           2207 ;alien6.c:296: nByte |= 2;
   08F3 CB CB         [ 8] 2208 	set	1, e
   08F5 18 1A         [12] 2209 	jr	00119$
   08F7                    2210 00118$:
                           2211 ;alien6.c:300: nByte &= 170;
   08F7 1E 00         [ 7] 2212 	ld	e,#0x00
                           2213 ;alien6.c:302: if(nColor & 1)
   08F9 7C            [ 4] 2214 	ld	a,h
   08FA B7            [ 4] 2215 	or	a, a
   08FB 28 02         [12] 2216 	jr	Z,00110$
                           2217 ;alien6.c:303: nByte |= 64;
   08FD 1E 40         [ 7] 2218 	ld	e,#0x40
   08FF                    2219 00110$:
                           2220 ;alien6.c:305: if(nColor & 2)
   08FF 78            [ 4] 2221 	ld	a,b
   0900 B7            [ 4] 2222 	or	a, a
   0901 28 02         [12] 2223 	jr	Z,00112$
                           2224 ;alien6.c:306: nByte |= 4;
   0903 CB D3         [ 8] 2225 	set	2, e
   0905                    2226 00112$:
                           2227 ;alien6.c:308: if(nColor & 4)
   0905 7D            [ 4] 2228 	ld	a,l
   0906 B7            [ 4] 2229 	or	a, a
   0907 28 02         [12] 2230 	jr	Z,00114$
                           2231 ;alien6.c:309: nByte |= 16;
   0909 CB E3         [ 8] 2232 	set	4, e
   090B                    2233 00114$:
                           2234 ;alien6.c:311: if(nColor & 8)
   090B 79            [ 4] 2235 	ld	a,c
   090C B7            [ 4] 2236 	or	a, a
   090D 28 02         [12] 2237 	jr	Z,00119$
                           2238 ;alien6.c:312: nByte |= 1;
   090F CB C3         [ 8] 2239 	set	0, e
   0911                    2240 00119$:
                           2241 ;alien6.c:315: return nByte;
   0911 6B            [ 4] 2242 	ld	l,e
   0912 C9            [10] 2243 	ret
   0913                    2244 _GetMode0PixelColorByte_end::
                           2245 ;alien6.c:320: void inicializarEstrellas(){
                           2246 ;	---------------------------------
                           2247 ; Function inicializarEstrellas
                           2248 ; ---------------------------------
   0913                    2249 _inicializarEstrellas_start::
   0913                    2250 _inicializarEstrellas:
   0913 F5            [11] 2251 	push	af
                           2252 ;alien6.c:322: for(nStar = 0; nStar < STARS_NUM; nStar++)
   0914 21r65r03      [10] 2253 	ld	hl,#_nStar + 0
   0917 36 00         [10] 2254 	ld	(hl), #0x00
   0919                    2255 00102$:
                           2256 ;alien6.c:324: aStars[nStar].nX = cpc_Random() % 160;
   0919 FD 21r65r03   [14] 2257 	ld	iy,#_nStar
   091D FD 6E 00      [19] 2258 	ld	l,0 (iy)
   0920 26 00         [ 7] 2259 	ld	h,#0x00
   0922 29            [11] 2260 	add	hl, hl
   0923 29            [11] 2261 	add	hl, hl
   0924 29            [11] 2262 	add	hl, hl
   0925 3Er00         [ 7] 2263 	ld	a,#<(_aStars)
   0927 85            [ 4] 2264 	add	a, l
   0928 5F            [ 4] 2265 	ld	e,a
   0929 3Es00         [ 7] 2266 	ld	a,#>(_aStars)
   092B 8C            [ 4] 2267 	adc	a, h
   092C 57            [ 4] 2268 	ld	d,a
   092D D5            [11] 2269 	push	de
   092E CDr00r00      [17] 2270 	call	_cpc_Random
   0931 45            [ 4] 2271 	ld	b,l
   0932 3E A0         [ 7] 2272 	ld	a,#0xA0
   0934 F5            [11] 2273 	push	af
   0935 33            [ 6] 2274 	inc	sp
   0936 C5            [11] 2275 	push	bc
   0937 33            [ 6] 2276 	inc	sp
   0938 CDr00r00      [17] 2277 	call	__moduchar_rrx_s
   093B F1            [10] 2278 	pop	af
   093C 7D            [ 4] 2279 	ld	a,l
   093D D1            [10] 2280 	pop	de
   093E 12            [ 7] 2281 	ld	(de),a
                           2282 ;alien6.c:325: aStars[nStar].nY = (cpc_Random() % 184)+16;
   093F FD 21r65r03   [14] 2283 	ld	iy,#_nStar
   0943 FD 6E 00      [19] 2284 	ld	l,0 (iy)
   0946 26 00         [ 7] 2285 	ld	h,#0x00
   0948 29            [11] 2286 	add	hl, hl
   0949 29            [11] 2287 	add	hl, hl
   094A 29            [11] 2288 	add	hl, hl
   094B 11r00r00      [10] 2289 	ld	de,#_aStars
   094E 19            [11] 2290 	add	hl,de
   094F EB            [ 4] 2291 	ex	de,hl
   0950 13            [ 6] 2292 	inc	de
   0951 D5            [11] 2293 	push	de
   0952 CDr00r00      [17] 2294 	call	_cpc_Random
   0955 45            [ 4] 2295 	ld	b,l
   0956 3E B8         [ 7] 2296 	ld	a,#0xB8
   0958 F5            [11] 2297 	push	af
   0959 33            [ 6] 2298 	inc	sp
   095A C5            [11] 2299 	push	bc
   095B 33            [ 6] 2300 	inc	sp
   095C CDr00r00      [17] 2301 	call	__moduchar_rrx_s
   095F F1            [10] 2302 	pop	af
   0960 7D            [ 4] 2303 	ld	a,l
   0961 D1            [10] 2304 	pop	de
   0962 C6 10         [ 7] 2305 	add	a, #0x10
   0964 12            [ 7] 2306 	ld	(de),a
                           2307 ;alien6.c:326: aStars[nStar].nStarType = cpc_Random() % 3;
   0965 FD 21r65r03   [14] 2308 	ld	iy,#_nStar
   0969 FD 6E 00      [19] 2309 	ld	l,0 (iy)
   096C 26 00         [ 7] 2310 	ld	h,#0x00
   096E 29            [11] 2311 	add	hl, hl
   096F 29            [11] 2312 	add	hl, hl
   0970 29            [11] 2313 	add	hl, hl
   0971 11r00r00      [10] 2314 	ld	de,#_aStars
   0974 19            [11] 2315 	add	hl,de
   0975 23            [ 6] 2316 	inc	hl
   0976 23            [ 6] 2317 	inc	hl
   0977 55            [ 4] 2318 	ld	d,l
   0978 5C            [ 4] 2319 	ld	e,h
   0979 D5            [11] 2320 	push	de
   097A CDr00r00      [17] 2321 	call	_cpc_Random
   097D 45            [ 4] 2322 	ld	b,l
   097E 3E 03         [ 7] 2323 	ld	a,#0x03
   0980 F5            [11] 2324 	push	af
   0981 33            [ 6] 2325 	inc	sp
   0982 C5            [11] 2326 	push	bc
   0983 33            [ 6] 2327 	inc	sp
   0984 CDr00r00      [17] 2328 	call	__moduchar_rrx_s
   0987 F1            [10] 2329 	pop	af
   0988 7D            [ 4] 2330 	ld	a,l
   0989 D1            [10] 2331 	pop	de
   098A 6A            [ 4] 2332 	ld	l, d
   098B 63            [ 4] 2333 	ld	h, e
   098C 77            [ 7] 2334 	ld	(hl),a
                           2335 ;alien6.c:327: aStars[nStar].pLineAddress = (int *) direccionLinea[aStars[nStar].nY];
   098D FD 21r65r03   [14] 2336 	ld	iy,#_nStar
   0991 FD 6E 00      [19] 2337 	ld	l,0 (iy)
   0994 26 00         [ 7] 2338 	ld	h,#0x00
   0996 29            [11] 2339 	add	hl, hl
   0997 29            [11] 2340 	add	hl, hl
   0998 29            [11] 2341 	add	hl, hl
   0999 11r00r00      [10] 2342 	ld	de,#_aStars
   099C 19            [11] 2343 	add	hl,de
   099D 5D            [ 4] 2344 	ld	e, l
   099E 54            [ 4] 2345 	ld	d, h
   099F 13            [ 6] 2346 	inc	de
   09A0 13            [ 6] 2347 	inc	de
   09A1 13            [ 6] 2348 	inc	de
   09A2 23            [ 6] 2349 	inc	hl
   09A3 6E            [ 7] 2350 	ld	l,(hl)
   09A4 26 00         [ 7] 2351 	ld	h,#0x00
   09A6 29            [11] 2352 	add	hl, hl
   09A7 01rECr05      [10] 2353 	ld	bc,#_direccionLinea
   09AA 09            [11] 2354 	add	hl,bc
   09AB 4E            [ 7] 2355 	ld	c,(hl)
   09AC 23            [ 6] 2356 	inc	hl
   09AD 46            [ 7] 2357 	ld	b,(hl)
   09AE 79            [ 4] 2358 	ld	a,c
   09AF 12            [ 7] 2359 	ld	(de),a
   09B0 13            [ 6] 2360 	inc	de
   09B1 78            [ 4] 2361 	ld	a,b
   09B2 12            [ 7] 2362 	ld	(de),a
                           2363 ;alien6.c:328: aStars[nStar].columnOffset = aStars[nStar].nY/2;
   09B3 FD 21r65r03   [14] 2364 	ld	iy,#_nStar
   09B7 FD 6E 00      [19] 2365 	ld	l,0 (iy)
   09BA 26 00         [ 7] 2366 	ld	h,#0x00
   09BC 29            [11] 2367 	add	hl, hl
   09BD 29            [11] 2368 	add	hl, hl
   09BE 29            [11] 2369 	add	hl, hl
   09BF 11r00r00      [10] 2370 	ld	de,#_aStars
   09C2 19            [11] 2371 	add	hl,de
   09C3 7D            [ 4] 2372 	ld	a,l
   09C4 C6 05         [ 7] 2373 	add	a, #0x05
   09C6 5F            [ 4] 2374 	ld	e,a
   09C7 7C            [ 4] 2375 	ld	a,h
   09C8 CE 00         [ 7] 2376 	adc	a, #0x00
   09CA 57            [ 4] 2377 	ld	d,a
   09CB 23            [ 6] 2378 	inc	hl
   09CC 7E            [ 7] 2379 	ld	a,(hl)
   09CD CB 3F         [ 8] 2380 	srl	a
   09CF 12            [ 7] 2381 	ld	(de),a
                           2382 ;alien6.c:329: aStars[nStar].pCurrentAddress = aStars[nStar].pLineAddress+aStars[nStar].columnOffset;
   09D0 FD 21r65r03   [14] 2383 	ld	iy,#_nStar
   09D4 FD 6E 00      [19] 2384 	ld	l,0 (iy)
   09D7 26 00         [ 7] 2385 	ld	h,#0x00
   09D9 29            [11] 2386 	add	hl, hl
   09DA 29            [11] 2387 	add	hl, hl
   09DB 29            [11] 2388 	add	hl, hl
   09DC 3Er00         [ 7] 2389 	ld	a,#<(_aStars)
   09DE 85            [ 4] 2390 	add	a, l
   09DF 5F            [ 4] 2391 	ld	e,a
   09E0 3Es00         [ 7] 2392 	ld	a,#>(_aStars)
   09E2 8C            [ 4] 2393 	adc	a, h
   09E3 57            [ 4] 2394 	ld	d,a
   09E4 21 06 00      [10] 2395 	ld	hl,#0x0006
   09E7 19            [11] 2396 	add	hl,de
   09E8 E3            [19] 2397 	ex	(sp), hl
   09E9 6B            [ 4] 2398 	ld	l, e
   09EA 62            [ 4] 2399 	ld	h, d
   09EB 23            [ 6] 2400 	inc	hl
   09EC 23            [ 6] 2401 	inc	hl
   09ED 23            [ 6] 2402 	inc	hl
   09EE 4E            [ 7] 2403 	ld	c,(hl)
   09EF 23            [ 6] 2404 	inc	hl
   09F0 46            [ 7] 2405 	ld	b,(hl)
   09F1 EB            [ 4] 2406 	ex	de,hl
   09F2 11 05 00      [10] 2407 	ld	de, #0x0005
   09F5 19            [11] 2408 	add	hl, de
   09F6 6E            [ 7] 2409 	ld	l,(hl)
   09F7 26 00         [ 7] 2410 	ld	h,#0x00
   09F9 29            [11] 2411 	add	hl, hl
   09FA 09            [11] 2412 	add	hl,bc
   09FB 55            [ 4] 2413 	ld	d,l
   09FC 5C            [ 4] 2414 	ld	e,h
   09FD E1            [10] 2415 	pop	hl
   09FE E5            [11] 2416 	push	hl
   09FF 72            [ 7] 2417 	ld	(hl),d
   0A00 23            [ 6] 2418 	inc	hl
   0A01 73            [ 7] 2419 	ld	(hl),e
                           2420 ;alien6.c:322: for(nStar = 0; nStar < STARS_NUM; nStar++)
   0A02 21r65r03      [10] 2421 	ld	hl, #_nStar+0
   0A05 34            [11] 2422 	inc	(hl)
   0A06 3Ar65r03      [13] 2423 	ld	a,(#_nStar + 0)
   0A09 D6 0A         [ 7] 2424 	sub	a, #0x0A
   0A0B DAr19r09      [10] 2425 	jp	C,00102$
                           2426 ;alien6.c:331: lastMovedEstrella = 0;
   0A0E AF            [ 4] 2427 	xor	a, a
   0A0F 32r68r03      [13] 2428 	ld	(#_lastMovedEstrella + 0),a
   0A12 32r69r03      [13] 2429 	ld	(#_lastMovedEstrella + 1),a
   0A15 32r6Ar03      [13] 2430 	ld	(#_lastMovedEstrella + 2),a
   0A18 32r6Br03      [13] 2431 	ld	(#_lastMovedEstrella + 3),a
   0A1B F1            [10] 2432 	pop	af
   0A1C C9            [10] 2433 	ret
   0A1D                    2434 _inicializarEstrellas_end::
                           2435 ;alien6.c:334: void borrarEstrellas(){
                           2436 ;	---------------------------------
                           2437 ; Function borrarEstrellas
                           2438 ; ---------------------------------
   0A1D                    2439 _borrarEstrellas_start::
   0A1D                    2440 _borrarEstrellas:
   0A1D F5            [11] 2441 	push	af
   0A1E 3B            [ 6] 2442 	dec	sp
                           2443 ;alien6.c:335: for(nStar = 0; nStar < STARS_NUM; nStar++)
   0A1F 21r65r03      [10] 2444 	ld	hl,#_nStar + 0
   0A22 36 00         [10] 2445 	ld	(hl), #0x00
   0A24                    2446 00102$:
                           2447 ;alien6.c:337: pStar = &aStars[nStar];
   0A24 FD 21r65r03   [14] 2448 	ld	iy,#_nStar
   0A28 FD 6E 00      [19] 2449 	ld	l,0 (iy)
   0A2B 26 00         [ 7] 2450 	ld	h,#0x00
   0A2D 29            [11] 2451 	add	hl, hl
   0A2E 29            [11] 2452 	add	hl, hl
   0A2F 29            [11] 2453 	add	hl, hl
   0A30 11r00r00      [10] 2454 	ld	de,#_aStars
   0A33 19            [11] 2455 	add	hl,de
   0A34 22r66r03      [16] 2456 	ld	(_pStar),hl
                           2457 ;alien6.c:341: *pStar->pCurrentAddress ^= GetMode0PixelColorByte(pStar->nStarType + 1, pStar->nX % 2);
   0A37 ED 4Br66r03   [20] 2458 	ld	bc,(_pStar)
   0A3B 69            [ 4] 2459 	ld	l, c
   0A3C 60            [ 4] 2460 	ld	h, b
   0A3D 11 06 00      [10] 2461 	ld	de, #0x0006
   0A40 19            [11] 2462 	add	hl, de
   0A41 5E            [ 7] 2463 	ld	e,(hl)
   0A42 23            [ 6] 2464 	inc	hl
   0A43 56            [ 7] 2465 	ld	d,(hl)
   0A44 6B            [ 4] 2466 	ld	l, e
   0A45 62            [ 4] 2467 	ld	h, d
   0A46 7E            [ 7] 2468 	ld	a,(hl)
   0A47 FD 21 01 00   [14] 2469 	ld	iy,#1
   0A4B FD 39         [15] 2470 	add	iy,sp
   0A4D FD 77 00      [19] 2471 	ld	0 (iy),a
   0A50 23            [ 6] 2472 	inc	hl
   0A51 7E            [ 7] 2473 	ld	a,(hl)
   0A52 FD 77 01      [19] 2474 	ld	1 (iy),a
   0A55 0A            [ 7] 2475 	ld	a,(bc)
   0A56 E6 01         [ 7] 2476 	and	a, #0x01
   0A58 33            [ 6] 2477 	inc	sp
   0A59 F5            [11] 2478 	push	af
   0A5A 33            [ 6] 2479 	inc	sp
   0A5B 69            [ 4] 2480 	ld	l, c
   0A5C 60            [ 4] 2481 	ld	h, b
   0A5D 23            [ 6] 2482 	inc	hl
   0A5E 23            [ 6] 2483 	inc	hl
   0A5F 46            [ 7] 2484 	ld	b,(hl)
   0A60 04            [ 4] 2485 	inc	b
   0A61 D5            [11] 2486 	push	de
   0A62 21 02 00      [10] 2487 	ld	hl, #2+0
   0A65 39            [11] 2488 	add	hl, sp
   0A66 7E            [ 7] 2489 	ld	a, (hl)
   0A67 F5            [11] 2490 	push	af
   0A68 33            [ 6] 2491 	inc	sp
   0A69 C5            [11] 2492 	push	bc
   0A6A 33            [ 6] 2493 	inc	sp
   0A6B CDrB2r08      [17] 2494 	call	_GetMode0PixelColorByte
   0A6E F1            [10] 2495 	pop	af
   0A6F D1            [10] 2496 	pop	de
   0A70 26 00         [ 7] 2497 	ld	h,#0x00
   0A72 FD 21 01 00   [14] 2498 	ld	iy,#1
   0A76 FD 39         [15] 2499 	add	iy,sp
   0A78 FD 7E 00      [19] 2500 	ld	a,0 (iy)
   0A7B AD            [ 4] 2501 	xor	a, l
   0A7C 4F            [ 4] 2502 	ld	c,a
   0A7D FD 7E 01      [19] 2503 	ld	a,1 (iy)
   0A80 AC            [ 4] 2504 	xor	a, h
   0A81 47            [ 4] 2505 	ld	b,a
   0A82 79            [ 4] 2506 	ld	a,c
   0A83 12            [ 7] 2507 	ld	(de),a
   0A84 13            [ 6] 2508 	inc	de
   0A85 78            [ 4] 2509 	ld	a,b
   0A86 12            [ 7] 2510 	ld	(de),a
                           2511 ;alien6.c:335: for(nStar = 0; nStar < STARS_NUM; nStar++)
   0A87 21r65r03      [10] 2512 	ld	hl, #_nStar+0
   0A8A 34            [11] 2513 	inc	(hl)
   0A8B 3Ar65r03      [13] 2514 	ld	a,(#_nStar + 0)
   0A8E D6 0A         [ 7] 2515 	sub	a, #0x0A
   0A90 38 92         [12] 2516 	jr	C,00102$
   0A92 F1            [10] 2517 	pop	af
   0A93 33            [ 6] 2518 	inc	sp
   0A94 C9            [10] 2519 	ret
   0A95                    2520 _borrarEstrellas_end::
                           2521 ;alien6.c:346: void pintarEstrellas(){
                           2522 ;	---------------------------------
                           2523 ; Function pintarEstrellas
                           2524 ; ---------------------------------
   0A95                    2525 _pintarEstrellas_start::
   0A95                    2526 _pintarEstrellas:
   0A95 F5            [11] 2527 	push	af
   0A96 3B            [ 6] 2528 	dec	sp
                           2529 ;alien6.c:347: for(nStar = 0; nStar < STARS_NUM; nStar++)
   0A97 21r65r03      [10] 2530 	ld	hl,#_nStar + 0
   0A9A 36 00         [10] 2531 	ld	(hl), #0x00
   0A9C                    2532 00102$:
                           2533 ;alien6.c:349: pStar = &aStars[nStar];
   0A9C FD 21r65r03   [14] 2534 	ld	iy,#_nStar
   0AA0 FD 6E 00      [19] 2535 	ld	l,0 (iy)
   0AA3 26 00         [ 7] 2536 	ld	h,#0x00
   0AA5 29            [11] 2537 	add	hl, hl
   0AA6 29            [11] 2538 	add	hl, hl
   0AA7 29            [11] 2539 	add	hl, hl
   0AA8 11r00r00      [10] 2540 	ld	de,#_aStars
   0AAB 19            [11] 2541 	add	hl,de
   0AAC 22r66r03      [16] 2542 	ld	(_pStar),hl
                           2543 ;alien6.c:352: pStar->pCurrentAddress = (int *) direccionLinea[pStar->nY] + pStar->columnOffset;
   0AAF ED 5Br66r03   [20] 2544 	ld	de,(_pStar)
   0AB3 21 06 00      [10] 2545 	ld	hl,#0x0006
   0AB6 19            [11] 2546 	add	hl,de
   0AB7 FD 21 01 00   [14] 2547 	ld	iy,#1
   0ABB FD 39         [15] 2548 	add	iy,sp
   0ABD FD 75 00      [19] 2549 	ld	0 (iy),l
   0AC0 FD 74 01      [19] 2550 	ld	1 (iy),h
   0AC3 6B            [ 4] 2551 	ld	l, e
   0AC4 62            [ 4] 2552 	ld	h, d
   0AC5 23            [ 6] 2553 	inc	hl
   0AC6 6E            [ 7] 2554 	ld	l,(hl)
   0AC7 26 00         [ 7] 2555 	ld	h,#0x00
   0AC9 29            [11] 2556 	add	hl, hl
   0ACA 01rECr05      [10] 2557 	ld	bc,#_direccionLinea
   0ACD 09            [11] 2558 	add	hl,bc
   0ACE 4E            [ 7] 2559 	ld	c,(hl)
   0ACF 23            [ 6] 2560 	inc	hl
   0AD0 46            [ 7] 2561 	ld	b,(hl)
   0AD1 EB            [ 4] 2562 	ex	de,hl
   0AD2 11 05 00      [10] 2563 	ld	de, #0x0005
   0AD5 19            [11] 2564 	add	hl, de
   0AD6 6E            [ 7] 2565 	ld	l,(hl)
   0AD7 26 00         [ 7] 2566 	ld	h,#0x00
   0AD9 29            [11] 2567 	add	hl, hl
   0ADA 09            [11] 2568 	add	hl,bc
   0ADB 55            [ 4] 2569 	ld	d,l
   0ADC 5C            [ 4] 2570 	ld	e,h
   0ADD FD 6E 00      [19] 2571 	ld	l,0 (iy)
   0AE0 FD 66 01      [19] 2572 	ld	h,1 (iy)
   0AE3 72            [ 7] 2573 	ld	(hl),d
   0AE4 23            [ 6] 2574 	inc	hl
   0AE5 73            [ 7] 2575 	ld	(hl),e
   0AE6 ED 4Br66r03   [20] 2576 	ld	bc,(_pStar)
   0AEA 69            [ 4] 2577 	ld	l, c
   0AEB 60            [ 4] 2578 	ld	h, b
                           2579 ;alien6.c:354: *pStar->pCurrentAddress ^= GetMode0PixelColorByte(pStar->nStarType + 1, pStar->nX % 2);
   0AEC 11 06 00      [10] 2580 	ld	de, #0x0006
   0AEF 19            [11] 2581 	add	hl, de
   0AF0 5E            [ 7] 2582 	ld	e,(hl)
   0AF1 23            [ 6] 2583 	inc	hl
   0AF2 56            [ 7] 2584 	ld	d,(hl)
   0AF3 6B            [ 4] 2585 	ld	l, e
   0AF4 62            [ 4] 2586 	ld	h, d
   0AF5 7E            [ 7] 2587 	ld	a,(hl)
   0AF6 FD 77 00      [19] 2588 	ld	0 (iy),a
   0AF9 23            [ 6] 2589 	inc	hl
   0AFA 7E            [ 7] 2590 	ld	a,(hl)
   0AFB FD 77 01      [19] 2591 	ld	1 (iy),a
   0AFE 0A            [ 7] 2592 	ld	a,(bc)
   0AFF E6 01         [ 7] 2593 	and	a, #0x01
   0B01 33            [ 6] 2594 	inc	sp
   0B02 F5            [11] 2595 	push	af
   0B03 33            [ 6] 2596 	inc	sp
   0B04 69            [ 4] 2597 	ld	l, c
   0B05 60            [ 4] 2598 	ld	h, b
   0B06 23            [ 6] 2599 	inc	hl
   0B07 23            [ 6] 2600 	inc	hl
   0B08 46            [ 7] 2601 	ld	b,(hl)
   0B09 04            [ 4] 2602 	inc	b
   0B0A D5            [11] 2603 	push	de
   0B0B 21 02 00      [10] 2604 	ld	hl, #2+0
   0B0E 39            [11] 2605 	add	hl, sp
   0B0F 7E            [ 7] 2606 	ld	a, (hl)
   0B10 F5            [11] 2607 	push	af
   0B11 33            [ 6] 2608 	inc	sp
   0B12 C5            [11] 2609 	push	bc
   0B13 33            [ 6] 2610 	inc	sp
   0B14 CDrB2r08      [17] 2611 	call	_GetMode0PixelColorByte
   0B17 F1            [10] 2612 	pop	af
   0B18 D1            [10] 2613 	pop	de
   0B19 26 00         [ 7] 2614 	ld	h,#0x00
   0B1B FD 21 01 00   [14] 2615 	ld	iy,#1
   0B1F FD 39         [15] 2616 	add	iy,sp
   0B21 FD 7E 00      [19] 2617 	ld	a,0 (iy)
   0B24 AD            [ 4] 2618 	xor	a, l
   0B25 4F            [ 4] 2619 	ld	c,a
   0B26 FD 7E 01      [19] 2620 	ld	a,1 (iy)
   0B29 AC            [ 4] 2621 	xor	a, h
   0B2A 47            [ 4] 2622 	ld	b,a
   0B2B 79            [ 4] 2623 	ld	a,c
   0B2C 12            [ 7] 2624 	ld	(de),a
   0B2D 13            [ 6] 2625 	inc	de
   0B2E 78            [ 4] 2626 	ld	a,b
   0B2F 12            [ 7] 2627 	ld	(de),a
                           2628 ;alien6.c:347: for(nStar = 0; nStar < STARS_NUM; nStar++)
   0B30 21r65r03      [10] 2629 	ld	hl, #_nStar+0
   0B33 34            [11] 2630 	inc	(hl)
   0B34 3Ar65r03      [13] 2631 	ld	a,(#_nStar + 0)
   0B37 D6 0A         [ 7] 2632 	sub	a, #0x0A
   0B39 DAr9Cr0A      [10] 2633 	jp	C,00102$
   0B3C F1            [10] 2634 	pop	af
   0B3D 33            [ 6] 2635 	inc	sp
   0B3E C9            [10] 2636 	ret
   0B3F                    2637 _pintarEstrellas_end::
                           2638 ;alien6.c:359: void moverEstrellas(){
                           2639 ;	---------------------------------
                           2640 ; Function moverEstrellas
                           2641 ; ---------------------------------
   0B3F                    2642 _moverEstrellas_start::
   0B3F                    2643 _moverEstrellas:
                           2644 ;alien6.c:361: for(nStar = 0; nStar < STARS_NUM; nStar++)
   0B3F 21r65r03      [10] 2645 	ld	hl,#_nStar + 0
   0B42 36 00         [10] 2646 	ld	(hl), #0x00
   0B44                    2647 00108$:
                           2648 ;alien6.c:363: pStar = &aStars[nStar];
   0B44 FD 21r65r03   [14] 2649 	ld	iy,#_nStar
   0B48 FD 6E 00      [19] 2650 	ld	l,0 (iy)
   0B4B 26 00         [ 7] 2651 	ld	h,#0x00
   0B4D 29            [11] 2652 	add	hl, hl
   0B4E 29            [11] 2653 	add	hl, hl
   0B4F 29            [11] 2654 	add	hl, hl
   0B50 11r00r00      [10] 2655 	ld	de,#_aStars
   0B53 19            [11] 2656 	add	hl,de
   0B54 22r66r03      [16] 2657 	ld	(_pStar),hl
                           2658 ;alien6.c:365: switch(pStar->nStarType)
   0B57 ED 4Br66r03   [20] 2659 	ld	bc,(_pStar)
   0B5B 69            [ 4] 2660 	ld	l, c
   0B5C 60            [ 4] 2661 	ld	h, b
   0B5D 23            [ 6] 2662 	inc	hl
   0B5E 23            [ 6] 2663 	inc	hl
   0B5F 5E            [ 7] 2664 	ld	e,(hl)
   0B60 3E 02         [ 7] 2665 	ld	a,#0x02
   0B62 93            [ 4] 2666 	sub	a, e
   0B63 38 22         [12] 2667 	jr	C,00104$
                           2668 ;alien6.c:368: pStar->nY += 1;
   0B65 03            [ 6] 2669 	inc	bc
   0B66 0A            [ 7] 2670 	ld	a,(bc)
   0B67 57            [ 4] 2671 	ld	d,a
                           2672 ;alien6.c:365: switch(pStar->nStarType)
   0B68 D5            [11] 2673 	push	de
   0B69 16 00         [ 7] 2674 	ld	d,#0x00
   0B6B 21r72r0B      [10] 2675 	ld	hl,#00124$
   0B6E 19            [11] 2676 	add	hl,de
   0B6F 19            [11] 2677 	add	hl,de
                           2678 ;alien6.c:367: case 0: //slow star
   0B70 D1            [10] 2679 	pop	de
   0B71 E9            [ 4] 2680 	jp	(hl)
   0B72                    2681 00124$:
   0B72 18 04         [12] 2682 	jr	00101$
   0B74 18 07         [12] 2683 	jr	00102$
   0B76 18 0B         [12] 2684 	jr	00103$
   0B78                    2685 00101$:
                           2686 ;alien6.c:368: pStar->nY += 1;
   0B78 7A            [ 4] 2687 	ld	a,d
   0B79 3C            [ 4] 2688 	inc	a
   0B7A 02            [ 7] 2689 	ld	(bc),a
                           2690 ;alien6.c:369: break;
   0B7B 18 0A         [12] 2691 	jr	00104$
                           2692 ;alien6.c:370: case 1: //medium star
   0B7D                    2693 00102$:
                           2694 ;alien6.c:371: pStar->nY += 2;
   0B7D 7A            [ 4] 2695 	ld	a,d
   0B7E C6 02         [ 7] 2696 	add	a, #0x02
   0B80 02            [ 7] 2697 	ld	(bc),a
                           2698 ;alien6.c:372: break;
   0B81 18 04         [12] 2699 	jr	00104$
                           2700 ;alien6.c:373: case 2: //fast star
   0B83                    2701 00103$:
                           2702 ;alien6.c:374: pStar->nY += 3;
   0B83 7A            [ 4] 2703 	ld	a,d
   0B84 C6 03         [ 7] 2704 	add	a, #0x03
   0B86 02            [ 7] 2705 	ld	(bc),a
                           2706 ;alien6.c:376: }
   0B87                    2707 00104$:
                           2708 ;alien6.c:365: switch(pStar->nStarType)
   0B87 2Ar66r03      [16] 2709 	ld	hl,(_pStar)
                           2710 ;alien6.c:368: pStar->nY += 1;
   0B8A 23            [ 6] 2711 	inc	hl
                           2712 ;alien6.c:378: if(pStar->nY >= 200)
   0B8B 7E            [ 7] 2713 	ld	a, (hl)
   0B8C D6 C8         [ 7] 2714 	sub	a, #0xC8
   0B8E 38 02         [12] 2715 	jr	C,00109$
                           2716 ;alien6.c:380: pStar->nY = 16;
   0B90 36 10         [10] 2717 	ld	(hl),#0x10
   0B92                    2718 00109$:
                           2719 ;alien6.c:361: for(nStar = 0; nStar < STARS_NUM; nStar++)
   0B92 21r65r03      [10] 2720 	ld	hl, #_nStar+0
   0B95 34            [11] 2721 	inc	(hl)
   0B96 3Ar65r03      [13] 2722 	ld	a,(#_nStar + 0)
   0B99 D6 0A         [ 7] 2723 	sub	a, #0x0A
   0B9B 38 A7         [12] 2724 	jr	C,00108$
   0B9D C9            [10] 2725 	ret
   0B9E                    2726 _moverEstrellas_end::
                           2727 ;alien6.c:392: void crearExplosionProta(unsigned char x, unsigned char y){
                           2728 ;	---------------------------------
                           2729 ; Function crearExplosionProta
                           2730 ; ---------------------------------
   0B9E                    2731 _crearExplosionProta_start::
   0B9E                    2732 _crearExplosionProta:
   0B9E 21 F9 FF      [10] 2733 	ld	hl,#-7
   0BA1 39            [11] 2734 	add	hl,sp
   0BA2 F9            [ 6] 2735 	ld	sp,hl
                           2736 ;alien6.c:395: explosiones_prota[0].cx=x-SALTO_EXPLOSION_PROTA;
   0BA3 21 09 00      [10] 2737 	ld	hl, #9+0
   0BA6 39            [11] 2738 	add	hl, sp
   0BA7 7E            [ 7] 2739 	ld	a, (hl)
   0BA8 C6 FC         [ 7] 2740 	add	a,#0xFC
   0BAA 57            [ 4] 2741 	ld	d,a
   0BAB 21r77r02      [10] 2742 	ld	hl,#_explosiones_prota
   0BAE 72            [ 7] 2743 	ld	(hl),d
                           2744 ;alien6.c:396: explosiones_prota[0].cy=y;
   0BAF 23            [ 6] 2745 	inc	hl
   0BB0 FD 21 0A 00   [14] 2746 	ld	iy,#10
   0BB4 FD 39         [15] 2747 	add	iy,sp
   0BB6 FD 7E 00      [19] 2748 	ld	a,0 (iy)
   0BB9 77            [ 7] 2749 	ld	(hl),a
                           2750 ;alien6.c:397: explosiones_prota[1].cx=x-SALTO_EXPLOSION_PROTA;
   0BBA 21r7Br02      [10] 2751 	ld	hl,#_explosiones_prota + 4
   0BBD 72            [ 7] 2752 	ld	(hl),d
                           2753 ;alien6.c:398: explosiones_prota[1].cy=y-SALTO_EXPLOSION_PROTA*2;
   0BBE FD 7E 00      [19] 2754 	ld	a,0 (iy)
   0BC1 C6 F8         [ 7] 2755 	add	a,#0xF8
   0BC3 5F            [ 4] 2756 	ld	e,a
   0BC4 21r7Cr02      [10] 2757 	ld	hl,#(_explosiones_prota + 0x0005)
   0BC7 73            [ 7] 2758 	ld	(hl),e
                           2759 ;alien6.c:399: explosiones_prota[2].cx=x;
   0BC8 21r7Fr02      [10] 2760 	ld	hl,#_explosiones_prota + 8
   0BCB FD 21 09 00   [14] 2761 	ld	iy,#9
   0BCF FD 39         [15] 2762 	add	iy,sp
   0BD1 FD 7E 00      [19] 2763 	ld	a,0 (iy)
   0BD4 77            [ 7] 2764 	ld	(hl),a
                           2765 ;alien6.c:400: explosiones_prota[2].cy=y-SALTO_EXPLOSION_PROTA*2;
   0BD5 21r80r02      [10] 2766 	ld	hl,#_explosiones_prota + 9
   0BD8 73            [ 7] 2767 	ld	(hl),e
                           2768 ;alien6.c:401: explosiones_prota[3].cx=x+SALTO_EXPLOSION_PROTA;
   0BD9 FD 56 00      [19] 2769 	ld	d,0 (iy)
   0BDC 14            [ 4] 2770 	inc	d
   0BDD 14            [ 4] 2771 	inc	d
   0BDE 14            [ 4] 2772 	inc	d
   0BDF 14            [ 4] 2773 	inc	d
   0BE0 21r83r02      [10] 2774 	ld	hl,#(_explosiones_prota + 0x000c)
   0BE3 72            [ 7] 2775 	ld	(hl),d
                           2776 ;alien6.c:402: explosiones_prota[3].cy=y-SALTO_EXPLOSION_PROTA*2;
   0BE4 21r84r02      [10] 2777 	ld	hl,#_explosiones_prota + 13
   0BE7 73            [ 7] 2778 	ld	(hl),e
                           2779 ;alien6.c:403: explosiones_prota[4].cx=x+SALTO_EXPLOSION_PROTA;
   0BE8 21r87r02      [10] 2780 	ld	hl,#_explosiones_prota + 16
   0BEB 72            [ 7] 2781 	ld	(hl),d
                           2782 ;alien6.c:404: explosiones_prota[4].cy=y;
   0BEC 21r88r02      [10] 2783 	ld	hl,#_explosiones_prota + 17
   0BEF FD 21 0A 00   [14] 2784 	ld	iy,#10
   0BF3 FD 39         [15] 2785 	add	iy,sp
   0BF5 FD 7E 00      [19] 2786 	ld	a,0 (iy)
   0BF8 77            [ 7] 2787 	ld	(hl),a
                           2788 ;alien6.c:405: for (i=0;i<5;i++){
   0BF9 FD 21 00 00   [14] 2789 	ld	iy,#0
   0BFD FD 39         [15] 2790 	add	iy,sp
   0BFF FD 36 00 00   [19] 2791 	ld	0 (iy),#0x00
   0C03                    2792 00102$:
                           2793 ;alien6.c:406: explosiones_prota[i].memoriaPantalla = direccionLinea[explosiones_prota[i].cy]+explosiones_prota[i].cx;
   0C03 FD 21 00 00   [14] 2794 	ld	iy,#0
   0C07 FD 39         [15] 2795 	add	iy,sp
   0C09 FD 6E 00      [19] 2796 	ld	l,0 (iy)
   0C0C 26 00         [ 7] 2797 	ld	h,#0x00
   0C0E 29            [11] 2798 	add	hl, hl
   0C0F 29            [11] 2799 	add	hl, hl
   0C10 3Er77         [ 7] 2800 	ld	a,#<(_explosiones_prota)
   0C12 85            [ 4] 2801 	add	a, l
   0C13 4F            [ 4] 2802 	ld	c,a
   0C14 3Es02         [ 7] 2803 	ld	a,#>(_explosiones_prota)
   0C16 8C            [ 4] 2804 	adc	a, h
   0C17 47            [ 4] 2805 	ld	b,a
   0C18 21 02 00      [10] 2806 	ld	hl,#0x0002
   0C1B 09            [11] 2807 	add	hl,bc
   0C1C FD 21 05 00   [14] 2808 	ld	iy,#5
   0C20 FD 39         [15] 2809 	add	iy,sp
   0C22 FD 75 00      [19] 2810 	ld	0 (iy),l
   0C25 FD 74 01      [19] 2811 	ld	1 (iy),h
   0C28 69            [ 4] 2812 	ld	l, c
   0C29 60            [ 4] 2813 	ld	h, b
   0C2A 23            [ 6] 2814 	inc	hl
   0C2B 6E            [ 7] 2815 	ld	l,(hl)
   0C2C 26 00         [ 7] 2816 	ld	h,#0x00
   0C2E 29            [11] 2817 	add	hl, hl
   0C2F 11rECr05      [10] 2818 	ld	de,#_direccionLinea
   0C32 19            [11] 2819 	add	hl,de
   0C33 5E            [ 7] 2820 	ld	e,(hl)
   0C34 23            [ 6] 2821 	inc	hl
   0C35 56            [ 7] 2822 	ld	d,(hl)
   0C36 0A            [ 7] 2823 	ld	a,(bc)
   0C37 6F            [ 4] 2824 	ld	l,a
   0C38 26 00         [ 7] 2825 	ld	h,#0x00
   0C3A 19            [11] 2826 	add	hl,de
   0C3B 4D            [ 4] 2827 	ld	c,l
   0C3C 44            [ 4] 2828 	ld	b,h
   0C3D FD 6E 00      [19] 2829 	ld	l,0 (iy)
   0C40 FD 66 01      [19] 2830 	ld	h,1 (iy)
   0C43 71            [ 7] 2831 	ld	(hl),c
   0C44 23            [ 6] 2832 	inc	hl
   0C45 70            [ 7] 2833 	ld	(hl),b
                           2834 ;alien6.c:407: cpc_PutSpXOR((char *)explosion_sprite[0][0],16,4,explosiones_prota[i].memoriaPantalla);
   0C46 ED 5Br63r02   [20] 2835 	ld	de, (#_explosion_sprite + 0)
   0C4A C5            [11] 2836 	push	bc
   0C4B 21 10 04      [10] 2837 	ld	hl,#0x0410
   0C4E E5            [11] 2838 	push	hl
   0C4F D5            [11] 2839 	push	de
   0C50 CDr00r00      [17] 2840 	call	_cpc_PutSpXOR
   0C53 21 06 00      [10] 2841 	ld	hl,#6
   0C56 39            [11] 2842 	add	hl,sp
   0C57 F9            [ 6] 2843 	ld	sp,hl
                           2844 ;alien6.c:405: for (i=0;i<5;i++){
   0C58 FD 21 00 00   [14] 2845 	ld	iy,#0
   0C5C FD 39         [15] 2846 	add	iy,sp
   0C5E FD 34 00      [23] 2847 	inc	0 (iy)
   0C61 FD 7E 00      [19] 2848 	ld	a,0 (iy)
   0C64 D6 05         [ 7] 2849 	sub	a, #0x05
   0C66 38 9B         [12] 2850 	jr	C,00102$
                           2851 ;alien6.c:409: fase_explosion_prota=0;
   0C68 21r8Fr02      [10] 2852 	ld	hl,#_fase_explosion_prota + 0
   0C6B 36 00         [10] 2853 	ld	(hl), #0x00
                           2854 ;alien6.c:410: fin_explosion_prota=0;
   0C6D 21r91r02      [10] 2855 	ld	hl,#_fin_explosion_prota + 0
   0C70 36 00         [10] 2856 	ld	(hl), #0x00
                           2857 ;alien6.c:411: explosion_prota_lastUpdated = getTime();
   0C72 CDr89r07      [17] 2858 	call	_getTime
   0C75 FD 21 01 00   [14] 2859 	ld	iy,#1
   0C79 FD 39         [15] 2860 	add	iy,sp
   0C7B FD 72 03      [19] 2861 	ld	3 (iy),d
   0C7E FD 73 02      [19] 2862 	ld	2 (iy),e
   0C81 FD 74 01      [19] 2863 	ld	1 (iy),h
   0C84 FD 75 00      [19] 2864 	ld	0 (iy),l
   0C87 11r8Br02      [10] 2865 	ld	de, #_explosion_prota_lastUpdated
   0C8A 21 01 00      [10] 2866 	ld	hl, #1
   0C8D 39            [11] 2867 	add	hl, sp
   0C8E 01 04 00      [10] 2868 	ld	bc, #4
   0C91 ED B0         [21] 2869 	ldir
                           2870 ;alien6.c:412: explosion_prota_activada=1;
   0C93 21r90r02      [10] 2871 	ld	hl,#_explosion_prota_activada + 0
   0C96 36 01         [10] 2872 	ld	(hl), #0x01
   0C98 21 07 00      [10] 2873 	ld	hl,#7
   0C9B 39            [11] 2874 	add	hl,sp
   0C9C F9            [ 6] 2875 	ld	sp,hl
   0C9D C9            [10] 2876 	ret
   0C9E                    2877 _crearExplosionProta_end::
                           2878 ;alien6.c:415: void animarExplosionProta(){
                           2879 ;	---------------------------------
                           2880 ; Function animarExplosionProta
                           2881 ; ---------------------------------
   0C9E                    2882 _animarExplosionProta_start::
   0C9E                    2883 _animarExplosionProta:
                           2884 ;alien6.c:416: if ((explosion_prota_activada) && (fase_explosion_prota<4)){
   0C9E 3Ar90r02      [13] 2885 	ld	a,(#_explosion_prota_activada + 0)
   0CA1 B7            [ 4] 2886 	or	a, a
   0CA2 C8            [11] 2887 	ret	Z
   0CA3 3Ar8Fr02      [13] 2888 	ld	a,(#_fase_explosion_prota + 0)
   0CA6 D6 04         [ 7] 2889 	sub	a, #0x04
   0CA8 D0            [11] 2890 	ret	NC
                           2891 ;alien6.c:418: explosiones_prota[0].cx=explosiones_prota[0].cx-SALTO_EXPLOSION_PROTA;
   0CA9 11r77r02      [10] 2892 	ld	de,#_explosiones_prota+0
   0CAC 1A            [ 7] 2893 	ld	a,(de)
   0CAD C6 FC         [ 7] 2894 	add	a,#0xFC
   0CAF 12            [ 7] 2895 	ld	(de),a
                           2896 ;alien6.c:419: explosiones_prota[1].cx=explosiones_prota[1].cx-SALTO_EXPLOSION_PROTA;
   0CB0 11r7Br02      [10] 2897 	ld	de,#_explosiones_prota + 4
   0CB3 1A            [ 7] 2898 	ld	a,(de)
   0CB4 C6 FC         [ 7] 2899 	add	a,#0xFC
   0CB6 12            [ 7] 2900 	ld	(de),a
                           2901 ;alien6.c:420: explosiones_prota[1].cy=explosiones_prota[1].cy-SALTO_EXPLOSION_PROTA*2;
   0CB7 11r7Cr02      [10] 2902 	ld	de,#_explosiones_prota + 5
   0CBA 1A            [ 7] 2903 	ld	a,(de)
   0CBB C6 F8         [ 7] 2904 	add	a,#0xF8
   0CBD 12            [ 7] 2905 	ld	(de),a
                           2906 ;alien6.c:421: explosiones_prota[2].cy=explosiones_prota[2].cy-SALTO_EXPLOSION_PROTA*2;
   0CBE 11r80r02      [10] 2907 	ld	de,#_explosiones_prota + 9
   0CC1 1A            [ 7] 2908 	ld	a,(de)
   0CC2 C6 F8         [ 7] 2909 	add	a,#0xF8
   0CC4 12            [ 7] 2910 	ld	(de),a
                           2911 ;alien6.c:422: explosiones_prota[3].cx=explosiones_prota[3].cx+SALTO_EXPLOSION_PROTA;
   0CC5 21r83r02      [10] 2912 	ld	hl,#_explosiones_prota + 12
   0CC8 7E            [ 7] 2913 	ld	a,(hl)
   0CC9 C6 04         [ 7] 2914 	add	a, #0x04
   0CCB 77            [ 7] 2915 	ld	(hl),a
                           2916 ;alien6.c:423: explosiones_prota[3].cy=explosiones_prota[3].cy-SALTO_EXPLOSION_PROTA*2;
   0CCC 11r84r02      [10] 2917 	ld	de,#_explosiones_prota + 13
   0CCF 1A            [ 7] 2918 	ld	a,(de)
   0CD0 C6 F8         [ 7] 2919 	add	a,#0xF8
   0CD2 12            [ 7] 2920 	ld	(de),a
                           2921 ;alien6.c:424: explosiones_prota[4].cx=explosiones_prota[4].cx+SALTO_EXPLOSION_PROTA;
   0CD3 21r87r02      [10] 2922 	ld	hl,#_explosiones_prota + 16
   0CD6 7E            [ 7] 2923 	ld	a,(hl)
   0CD7 C6 04         [ 7] 2924 	add	a, #0x04
   0CD9 77            [ 7] 2925 	ld	(hl),a
   0CDA C9            [10] 2926 	ret
   0CDB                    2927 _animarExplosionProta_end::
                           2928 ;alien6.c:429: void actualizarExplosionProta(){
                           2929 ;	---------------------------------
                           2930 ; Function actualizarExplosionProta
                           2931 ; ---------------------------------
   0CDB                    2932 _actualizarExplosionProta_start::
   0CDB                    2933 _actualizarExplosionProta:
   0CDB F5            [11] 2934 	push	af
   0CDC 3B            [ 6] 2935 	dec	sp
                           2936 ;alien6.c:431: if (explosion_prota_activada){
   0CDD 3Ar90r02      [13] 2937 	ld	a,(#_explosion_prota_activada + 0)
   0CE0 B7            [ 4] 2938 	or	a, a
   0CE1 CArD0r0D      [10] 2939 	jp	Z,00112$
                           2940 ;alien6.c:432: for (i=0;i<5;i++){
   0CE4 FD 21 00 00   [14] 2941 	ld	iy,#0
   0CE8 FD 39         [15] 2942 	add	iy,sp
   0CEA FD 36 00 00   [19] 2943 	ld	0 (iy),#0x00
   0CEE                    2944 00108$:
                           2945 ;alien6.c:433: cpc_PutSpXOR((char *)explosion_sprite[0][fase_explosion_prota],16,4,explosiones_prota[i].memoriaPantalla);
   0CEE FD 21 00 00   [14] 2946 	ld	iy,#0
   0CF2 FD 39         [15] 2947 	add	iy,sp
   0CF4 FD 6E 00      [19] 2948 	ld	l,0 (iy)
   0CF7 26 00         [ 7] 2949 	ld	h,#0x00
   0CF9 29            [11] 2950 	add	hl, hl
   0CFA 29            [11] 2951 	add	hl, hl
   0CFB FD 21 01 00   [14] 2952 	ld	iy,#1
   0CFF FD 39         [15] 2953 	add	iy,sp
   0D01 FD 75 00      [19] 2954 	ld	0 (iy),l
   0D04 FD 74 01      [19] 2955 	ld	1 (iy),h
   0D07 3Er77         [ 7] 2956 	ld	a,#<(_explosiones_prota)
   0D09 FD 86 00      [19] 2957 	add	a, 0 (iy)
   0D0C F5            [11] 2958 	push	af
   0D0D 3Es02         [ 7] 2959 	ld	a,#>(_explosiones_prota)
   0D0F FD 8E 01      [19] 2960 	adc	a, 1 (iy)
   0D12 67            [ 4] 2961 	ld	h,a
   0D13 F1            [10] 2962 	pop	af
   0D14 6F            [ 4] 2963 	ld	l,a
   0D15 23            [ 6] 2964 	inc	hl
   0D16 23            [ 6] 2965 	inc	hl
   0D17 4E            [ 7] 2966 	ld	c,(hl)
   0D18 23            [ 6] 2967 	inc	hl
   0D19 46            [ 7] 2968 	ld	b,(hl)
   0D1A 3Ar8Fr02      [13] 2969 	ld	a,(#_fase_explosion_prota + 0)
   0D1D 87            [ 4] 2970 	add	a, a
   0D1E 5F            [ 4] 2971 	ld	e,a
   0D1F 21r63r02      [10] 2972 	ld	hl,#_explosion_sprite
   0D22 16 00         [ 7] 2973 	ld	d,#0x00
   0D24 19            [11] 2974 	add	hl, de
   0D25 5E            [ 7] 2975 	ld	e,(hl)
   0D26 23            [ 6] 2976 	inc	hl
   0D27 56            [ 7] 2977 	ld	d,(hl)
   0D28 C5            [11] 2978 	push	bc
   0D29 21 10 04      [10] 2979 	ld	hl,#0x0410
   0D2C E5            [11] 2980 	push	hl
   0D2D D5            [11] 2981 	push	de
   0D2E CDr00r00      [17] 2982 	call	_cpc_PutSpXOR
   0D31 21 06 00      [10] 2983 	ld	hl,#6
   0D34 39            [11] 2984 	add	hl,sp
   0D35 F9            [ 6] 2985 	ld	sp,hl
                           2986 ;alien6.c:432: for (i=0;i<5;i++){
   0D36 FD 21 00 00   [14] 2987 	ld	iy,#0
   0D3A FD 39         [15] 2988 	add	iy,sp
   0D3C FD 34 00      [23] 2989 	inc	0 (iy)
   0D3F FD 7E 00      [19] 2990 	ld	a,0 (iy)
   0D42 D6 05         [ 7] 2991 	sub	a, #0x05
   0D44 38 A8         [12] 2992 	jr	C,00108$
                           2993 ;alien6.c:435: fase_explosion_prota++;
   0D46 21r8Fr02      [10] 2994 	ld	hl, #_fase_explosion_prota+0
   0D49 34            [11] 2995 	inc	(hl)
                           2996 ;alien6.c:436: if (fase_explosion_prota<4){
   0D4A 3Ar8Fr02      [13] 2997 	ld	a,(#_fase_explosion_prota + 0)
   0D4D D6 04         [ 7] 2998 	sub	a, #0x04
   0D4F 30 7A         [12] 2999 	jr	NC,00104$
                           3000 ;alien6.c:437: for (i=0;i<5;i++){
   0D51 FD 21 00 00   [14] 3001 	ld	iy,#0
   0D55 FD 39         [15] 3002 	add	iy,sp
   0D57 FD 36 00 00   [19] 3003 	ld	0 (iy),#0x00
   0D5B                    3004 00110$:
                           3005 ;alien6.c:438: explosiones_prota[i].memoriaPantalla = direccionLinea[explosiones_prota[i].cy]+explosiones_prota[i].cx;
   0D5B FD 21 00 00   [14] 3006 	ld	iy,#0
   0D5F FD 39         [15] 3007 	add	iy,sp
   0D61 FD 6E 00      [19] 3008 	ld	l,0 (iy)
   0D64 26 00         [ 7] 3009 	ld	h,#0x00
   0D66 29            [11] 3010 	add	hl, hl
   0D67 29            [11] 3011 	add	hl, hl
   0D68 3Er77         [ 7] 3012 	ld	a,#<(_explosiones_prota)
   0D6A 85            [ 4] 3013 	add	a, l
   0D6B 5F            [ 4] 3014 	ld	e,a
   0D6C 3Es02         [ 7] 3015 	ld	a,#>(_explosiones_prota)
   0D6E 8C            [ 4] 3016 	adc	a, h
   0D6F 57            [ 4] 3017 	ld	d,a
   0D70 21 02 00      [10] 3018 	ld	hl,#0x0002
   0D73 19            [11] 3019 	add	hl,de
   0D74 FD 21 01 00   [14] 3020 	ld	iy,#1
   0D78 FD 39         [15] 3021 	add	iy,sp
   0D7A FD 75 00      [19] 3022 	ld	0 (iy),l
   0D7D FD 74 01      [19] 3023 	ld	1 (iy),h
   0D80 6B            [ 4] 3024 	ld	l, e
   0D81 62            [ 4] 3025 	ld	h, d
   0D82 23            [ 6] 3026 	inc	hl
   0D83 6E            [ 7] 3027 	ld	l,(hl)
   0D84 26 00         [ 7] 3028 	ld	h,#0x00
   0D86 29            [11] 3029 	add	hl, hl
   0D87 01rECr05      [10] 3030 	ld	bc,#_direccionLinea
   0D8A 09            [11] 3031 	add	hl,bc
   0D8B 4E            [ 7] 3032 	ld	c,(hl)
   0D8C 23            [ 6] 3033 	inc	hl
   0D8D 46            [ 7] 3034 	ld	b,(hl)
   0D8E 1A            [ 7] 3035 	ld	a,(de)
   0D8F 6F            [ 4] 3036 	ld	l,a
   0D90 26 00         [ 7] 3037 	ld	h,#0x00
   0D92 09            [11] 3038 	add	hl,bc
   0D93 EB            [ 4] 3039 	ex	de,hl
   0D94 FD 6E 00      [19] 3040 	ld	l,0 (iy)
   0D97 FD 66 01      [19] 3041 	ld	h,1 (iy)
   0D9A 73            [ 7] 3042 	ld	(hl),e
   0D9B 23            [ 6] 3043 	inc	hl
   0D9C 72            [ 7] 3044 	ld	(hl),d
                           3045 ;alien6.c:439: cpc_PutSpXOR((char *)explosion_sprite[0][fase_explosion_prota],16,4,explosiones_prota[i].memoriaPantalla);
   0D9D 3Ar8Fr02      [13] 3046 	ld	a,(#_fase_explosion_prota + 0)
   0DA0 87            [ 4] 3047 	add	a, a
   0DA1 4F            [ 4] 3048 	ld	c,a
   0DA2 21r63r02      [10] 3049 	ld	hl,#_explosion_sprite
   0DA5 06 00         [ 7] 3050 	ld	b,#0x00
   0DA7 09            [11] 3051 	add	hl, bc
   0DA8 4E            [ 7] 3052 	ld	c,(hl)
   0DA9 23            [ 6] 3053 	inc	hl
   0DAA 46            [ 7] 3054 	ld	b,(hl)
   0DAB D5            [11] 3055 	push	de
   0DAC 21 10 04      [10] 3056 	ld	hl,#0x0410
   0DAF E5            [11] 3057 	push	hl
   0DB0 C5            [11] 3058 	push	bc
   0DB1 CDr00r00      [17] 3059 	call	_cpc_PutSpXOR
   0DB4 21 06 00      [10] 3060 	ld	hl,#6
   0DB7 39            [11] 3061 	add	hl,sp
   0DB8 F9            [ 6] 3062 	ld	sp,hl
                           3063 ;alien6.c:437: for (i=0;i<5;i++){
   0DB9 FD 21 00 00   [14] 3064 	ld	iy,#0
   0DBD FD 39         [15] 3065 	add	iy,sp
   0DBF FD 34 00      [23] 3066 	inc	0 (iy)
   0DC2 FD 7E 00      [19] 3067 	ld	a,0 (iy)
   0DC5 D6 05         [ 7] 3068 	sub	a, #0x05
   0DC7 38 92         [12] 3069 	jr	C,00110$
   0DC9 18 05         [12] 3070 	jr	00112$
   0DCB                    3071 00104$:
                           3072 ;alien6.c:442: explosion_prota_activada=0;
   0DCB 21r90r02      [10] 3073 	ld	hl,#_explosion_prota_activada + 0
   0DCE 36 00         [10] 3074 	ld	(hl), #0x00
   0DD0                    3075 00112$:
   0DD0 F1            [10] 3076 	pop	af
   0DD1 33            [ 6] 3077 	inc	sp
   0DD2 C9            [10] 3078 	ret
   0DD3                    3079 _actualizarExplosionProta_end::
                           3080 ;alien6.c:452: void inicializarExplosiones(){
                           3081 ;	---------------------------------
                           3082 ; Function inicializarExplosiones
                           3083 ; ---------------------------------
   0DD3                    3084 _inicializarExplosiones_start::
   0DD3                    3085 _inicializarExplosiones:
                           3086 ;alien6.c:455: for (i=0;i<MAX_EXPLOSIONES;i++){
   0DD3 16 00         [ 7] 3087 	ld	d,#0x00
   0DD5                    3088 00102$:
                           3089 ;alien6.c:456: explosiones[i].activo=0;
   0DD5 6A            [ 4] 3090 	ld	l,d
   0DD6 26 00         [ 7] 3091 	ld	h,#0x00
   0DD8 29            [11] 3092 	add	hl, hl
   0DD9 29            [11] 3093 	add	hl, hl
   0DDA 29            [11] 3094 	add	hl, hl
   0DDB 29            [11] 3095 	add	hl, hl
   0DDC 3ErA2         [ 7] 3096 	ld	a,#<(_explosiones)
   0DDE 85            [ 4] 3097 	add	a, l
   0DDF 4F            [ 4] 3098 	ld	c,a
   0DE0 3Es01         [ 7] 3099 	ld	a,#>(_explosiones)
   0DE2 8C            [ 4] 3100 	adc	a, h
   0DE3 47            [ 4] 3101 	ld	b,a
   0DE4 69            [ 4] 3102 	ld	l, c
   0DE5 60            [ 4] 3103 	ld	h, b
   0DE6 23            [ 6] 3104 	inc	hl
   0DE7 23            [ 6] 3105 	inc	hl
   0DE8 36 00         [10] 3106 	ld	(hl),#0x00
                           3107 ;alien6.c:457: explosiones[i].tipo=0;
   0DEA AF            [ 4] 3108 	xor	a, a
   0DEB 02            [ 7] 3109 	ld	(bc),a
                           3110 ;alien6.c:458: explosiones[i].fase=0;
   0DEC 69            [ 4] 3111 	ld	l, c
   0DED 60            [ 4] 3112 	ld	h, b
   0DEE 23            [ 6] 3113 	inc	hl
   0DEF 36 00         [10] 3114 	ld	(hl),#0x00
                           3115 ;alien6.c:459: explosiones[i].cx=0;
   0DF1 69            [ 4] 3116 	ld	l, c
   0DF2 60            [ 4] 3117 	ld	h, b
   0DF3 23            [ 6] 3118 	inc	hl
   0DF4 23            [ 6] 3119 	inc	hl
   0DF5 23            [ 6] 3120 	inc	hl
   0DF6 36 00         [10] 3121 	ld	(hl),#0x00
                           3122 ;alien6.c:460: explosiones[i].cy=0;
   0DF8 21 04 00      [10] 3123 	ld	hl,#0x0004
   0DFB 09            [11] 3124 	add	hl,bc
   0DFC 36 00         [10] 3125 	ld	(hl),#0x00
                           3126 ;alien6.c:461: explosiones[i].ox=0;
   0DFE 21 05 00      [10] 3127 	ld	hl,#0x0005
   0E01 09            [11] 3128 	add	hl,bc
   0E02 36 00         [10] 3129 	ld	(hl),#0x00
                           3130 ;alien6.c:462: explosiones[i].oy=0;
   0E04 21 06 00      [10] 3131 	ld	hl,#0x0006
   0E07 09            [11] 3132 	add	hl,bc
   0E08 36 00         [10] 3133 	ld	(hl),#0x00
                           3134 ;alien6.c:463: explosiones[i].memoriaPantalla=0;
   0E0A 21 09 00      [10] 3135 	ld	hl,#0x0009
   0E0D 09            [11] 3136 	add	hl,bc
   0E0E AF            [ 4] 3137 	xor	a, a
   0E0F 77            [ 7] 3138 	ld	(hl), a
   0E10 23            [ 6] 3139 	inc	hl
   0E11 77            [ 7] 3140 	ld	(hl), a
                           3141 ;alien6.c:464: explosiones[i].h=0;
   0E12 21 07 00      [10] 3142 	ld	hl,#0x0007
   0E15 09            [11] 3143 	add	hl,bc
   0E16 36 00         [10] 3144 	ld	(hl),#0x00
                           3145 ;alien6.c:465: explosiones[i].w=0;
   0E18 21 08 00      [10] 3146 	ld	hl,#0x0008
   0E1B 09            [11] 3147 	add	hl,bc
   0E1C 36 00         [10] 3148 	ld	(hl),#0x00
                           3149 ;alien6.c:466: explosiones[i].lastmoved=0;
   0E1E 21 0C 00      [10] 3150 	ld	hl,#0x000C
   0E21 09            [11] 3151 	add	hl,bc
   0E22 AF            [ 4] 3152 	xor	a, a
   0E23 77            [ 7] 3153 	ld	(hl), a
   0E24 23            [ 6] 3154 	inc	hl
   0E25 77            [ 7] 3155 	ld	(hl), a
   0E26 23            [ 6] 3156 	inc	hl
   0E27 AF            [ 4] 3157 	xor	a, a
   0E28 77            [ 7] 3158 	ld	(hl), a
   0E29 23            [ 6] 3159 	inc	hl
   0E2A 77            [ 7] 3160 	ld	(hl), a
                           3161 ;alien6.c:455: for (i=0;i<MAX_EXPLOSIONES;i++){
   0E2B 14            [ 4] 3162 	inc	d
   0E2C 7A            [ 4] 3163 	ld	a,d
   0E2D D6 06         [ 7] 3164 	sub	a, #0x06
   0E2F 38 A4         [12] 3165 	jr	C,00102$
                           3166 ;alien6.c:468: explosiones_activas=0;
   0E31 21r62r02      [10] 3167 	ld	hl,#_explosiones_activas + 0
   0E34 36 00         [10] 3168 	ld	(hl), #0x00
                           3169 ;alien6.c:469: explosion_sprite[0][0]=&explosion02000;
   0E36 21rA5r00      [10] 3170 	ld	hl,#_explosion02000
   0E39 22r63r02      [16] 3171 	ld	(_explosion_sprite), hl
                           3172 ;alien6.c:470: explosion_sprite[0][1]=&explosion02001;
   0E3C 21rE5r00      [10] 3173 	ld	hl,#_explosion02001
   0E3F 22r65r02      [16] 3174 	ld	((_explosion_sprite + 0x0002)), hl
                           3175 ;alien6.c:471: explosion_sprite[0][2]=&explosion02002;
   0E42 21r25r01      [10] 3176 	ld	hl,#_explosion02002
   0E45 22r67r02      [16] 3177 	ld	((_explosion_sprite + 0x0004)), hl
                           3178 ;alien6.c:472: explosion_sprite[0][3]=&explosion02003;
   0E48 21r65r01      [10] 3179 	ld	hl,#_explosion02003
   0E4B 22r69r02      [16] 3180 	ld	((_explosion_sprite + 0x0006)), hl
                           3181 ;alien6.c:473: explosion_sprite[1][0]=&toque000;
   0E4E 21r80r02      [10] 3182 	ld	hl,#_toque000
   0E51 22r6Br02      [16] 3183 	ld	((_explosion_sprite + 0x0008)), hl
                           3184 ;alien6.c:474: explosion_sprite[1][1]=&toque001;
   0E54 21r90r02      [10] 3185 	ld	hl,#_toque001
   0E57 22r6Dr02      [16] 3186 	ld	((_explosion_sprite + 0x000a)), hl
                           3187 ;alien6.c:475: explosion_sprite[1][2]=&toque002;
   0E5A 21rA0r02      [10] 3188 	ld	hl,#_toque002
   0E5D 22r6Fr02      [16] 3189 	ld	((_explosion_sprite + 0x000c)), hl
                           3190 ;alien6.c:476: explosion_sprite[1][3]=&toque003;
   0E60 21rB0r02      [10] 3191 	ld	hl,#_toque003
   0E63 22r71r02      [16] 3192 	ld	((_explosion_sprite + 0x000e)), hl
   0E66 C9            [10] 3193 	ret
   0E67                    3194 _inicializarExplosiones_end::
                           3195 ;alien6.c:479: void crearExplosion(unsigned char tipo, unsigned char x, unsigned char y){
                           3196 ;	---------------------------------
                           3197 ; Function crearExplosion
                           3198 ; ---------------------------------
   0E67                    3199 _crearExplosion_start::
   0E67                    3200 _crearExplosion:
   0E67 F5            [11] 3201 	push	af
   0E68 F5            [11] 3202 	push	af
   0E69 3B            [ 6] 3203 	dec	sp
                           3204 ;alien6.c:482: while (explosiones[i].activo==1) { 
   0E6A 01rA2r01      [10] 3205 	ld	bc,#_explosiones+0
   0E6D 1E 00         [ 7] 3206 	ld	e,#0x00
   0E6F                    3207 00101$:
   0E6F 6B            [ 4] 3208 	ld	l,e
   0E70 26 00         [ 7] 3209 	ld	h,#0x00
   0E72 29            [11] 3210 	add	hl, hl
   0E73 29            [11] 3211 	add	hl, hl
   0E74 29            [11] 3212 	add	hl, hl
   0E75 29            [11] 3213 	add	hl, hl
   0E76 FD 21 03 00   [14] 3214 	ld	iy,#3
   0E7A FD 39         [15] 3215 	add	iy,sp
   0E7C FD 75 00      [19] 3216 	ld	0 (iy),l
   0E7F FD 74 01      [19] 3217 	ld	1 (iy),h
   0E82 21 03 00      [10] 3218 	ld	hl,#3
   0E85 39            [11] 3219 	add	hl,sp
   0E86 7E            [ 7] 3220 	ld	a,(hl)
   0E87 81            [ 4] 3221 	add	a, c
   0E88 77            [ 7] 3222 	ld	(hl),a
   0E89 23            [ 6] 3223 	inc	hl
   0E8A 7E            [ 7] 3224 	ld	a,(hl)
   0E8B 88            [ 4] 3225 	adc	a, b
   0E8C 77            [ 7] 3226 	ld	(hl),a
   0E8D FD 6E 00      [19] 3227 	ld	l,0 (iy)
   0E90 FD 66 01      [19] 3228 	ld	h,1 (iy)
   0E93 23            [ 6] 3229 	inc	hl
   0E94 23            [ 6] 3230 	inc	hl
   0E95 7E            [ 7] 3231 	ld	a,(hl)
   0E96 3D            [ 4] 3232 	dec	a
   0E97 20 03         [12] 3233 	jr	NZ,00112$
                           3234 ;alien6.c:483: i++;
   0E99 1C            [ 4] 3235 	inc	e
   0E9A 18 D3         [12] 3236 	jr	00101$
   0E9C                    3237 00112$:
   0E9C FD 21 00 00   [14] 3238 	ld	iy,#0
   0EA0 FD 39         [15] 3239 	add	iy,sp
   0EA2 FD 73 00      [19] 3240 	ld	0 (iy),e
                           3241 ;alien6.c:485: explosiones[i].activo=1;
   0EA5 36 01         [10] 3242 	ld	(hl),#0x01
                           3243 ;alien6.c:486: explosiones[i].tipo=tipo;
   0EA7 21 03 00      [10] 3244 	ld	hl, #3
   0EAA 39            [11] 3245 	add	hl, sp
   0EAB 7E            [ 7] 3246 	ld	a, (hl)
   0EAC 23            [ 6] 3247 	inc	hl
   0EAD 66            [ 7] 3248 	ld	h, (hl)
   0EAE 6F            [ 4] 3249 	ld	l, a
   0EAF FD 21 07 00   [14] 3250 	ld	iy,#7
   0EB3 FD 39         [15] 3251 	add	iy,sp
   0EB5 FD 7E 00      [19] 3252 	ld	a,0 (iy)
   0EB8 77            [ 7] 3253 	ld	(hl),a
                           3254 ;alien6.c:487: explosiones[i].fase=0;
   0EB9 FD 21 03 00   [14] 3255 	ld	iy,#3
   0EBD FD 39         [15] 3256 	add	iy,sp
   0EBF FD 6E 00      [19] 3257 	ld	l,0 (iy)
   0EC2 FD 66 01      [19] 3258 	ld	h,1 (iy)
   0EC5 23            [ 6] 3259 	inc	hl
   0EC6 36 00         [10] 3260 	ld	(hl),#0x00
                           3261 ;alien6.c:488: explosiones[i].cx=x;
   0EC8 FD 6E 00      [19] 3262 	ld	l,0 (iy)
   0ECB FD 66 01      [19] 3263 	ld	h,1 (iy)
   0ECE 23            [ 6] 3264 	inc	hl
   0ECF 23            [ 6] 3265 	inc	hl
   0ED0 23            [ 6] 3266 	inc	hl
   0ED1 FD 21 08 00   [14] 3267 	ld	iy,#8
   0ED5 FD 39         [15] 3268 	add	iy,sp
   0ED7 FD 7E 00      [19] 3269 	ld	a,0 (iy)
   0EDA 77            [ 7] 3270 	ld	(hl),a
                           3271 ;alien6.c:489: explosiones[i].cy=y;
   0EDB FD 21 03 00   [14] 3272 	ld	iy,#3
   0EDF FD 39         [15] 3273 	add	iy,sp
   0EE1 FD 7E 00      [19] 3274 	ld	a,0 (iy)
   0EE4 C6 04         [ 7] 3275 	add	a, #0x04
   0EE6 5F            [ 4] 3276 	ld	e,a
   0EE7 FD 7E 01      [19] 3277 	ld	a,1 (iy)
   0EEA CE 00         [ 7] 3278 	adc	a, #0x00
   0EEC 57            [ 4] 3279 	ld	d,a
   0EED 21 09 00      [10] 3280 	ld	hl, #9+0
   0EF0 39            [11] 3281 	add	hl, sp
   0EF1 7E            [ 7] 3282 	ld	a, (hl)
   0EF2 12            [ 7] 3283 	ld	(de),a
                           3284 ;alien6.c:490: explosiones[i].memoriaPantalla = direccionLinea[explosiones[i].cy]+explosiones[i].cx;
   0EF3 21 01 00      [10] 3285 	ld	hl,#1
   0EF6 39            [11] 3286 	add	hl,sp
   0EF7 FD 21 03 00   [14] 3287 	ld	iy,#3
   0EFB FD 39         [15] 3288 	add	iy,sp
   0EFD FD 7E 00      [19] 3289 	ld	a,0 (iy)
   0F00 C6 09         [ 7] 3290 	add	a, #0x09
   0F02 77            [ 7] 3291 	ld	(hl),a
   0F03 FD 7E 01      [19] 3292 	ld	a,1 (iy)
   0F06 CE 00         [ 7] 3293 	adc	a, #0x00
   0F08 23            [ 6] 3294 	inc	hl
   0F09 77            [ 7] 3295 	ld	(hl),a
   0F0A FD 21 09 00   [14] 3296 	ld	iy,#9
   0F0E FD 39         [15] 3297 	add	iy,sp
   0F10 FD 6E 00      [19] 3298 	ld	l,0 (iy)
   0F13 26 00         [ 7] 3299 	ld	h,#0x00
   0F15 29            [11] 3300 	add	hl, hl
   0F16 11rECr05      [10] 3301 	ld	de,#_direccionLinea
   0F19 19            [11] 3302 	add	hl,de
   0F1A 5E            [ 7] 3303 	ld	e,(hl)
   0F1B 23            [ 6] 3304 	inc	hl
   0F1C 56            [ 7] 3305 	ld	d,(hl)
   0F1D FD 21 08 00   [14] 3306 	ld	iy,#8
   0F21 FD 39         [15] 3307 	add	iy,sp
   0F23 FD 6E 00      [19] 3308 	ld	l,0 (iy)
   0F26 26 00         [ 7] 3309 	ld	h,#0x00
   0F28 19            [11] 3310 	add	hl,de
   0F29 EB            [ 4] 3311 	ex	de,hl
   0F2A 21 01 00      [10] 3312 	ld	hl, #1
   0F2D 39            [11] 3313 	add	hl, sp
   0F2E 7E            [ 7] 3314 	ld	a, (hl)
   0F2F 23            [ 6] 3315 	inc	hl
   0F30 66            [ 7] 3316 	ld	h, (hl)
   0F31 6F            [ 4] 3317 	ld	l, a
   0F32 73            [ 7] 3318 	ld	(hl),e
   0F33 23            [ 6] 3319 	inc	hl
   0F34 72            [ 7] 3320 	ld	(hl),d
                           3321 ;alien6.c:492: explosiones[i].h=16;
   0F35 21 01 00      [10] 3322 	ld	hl,#1
   0F38 39            [11] 3323 	add	hl,sp
   0F39 FD 21 03 00   [14] 3324 	ld	iy,#3
   0F3D FD 39         [15] 3325 	add	iy,sp
   0F3F FD 7E 00      [19] 3326 	ld	a,0 (iy)
   0F42 C6 07         [ 7] 3327 	add	a, #0x07
   0F44 77            [ 7] 3328 	ld	(hl),a
   0F45 FD 7E 01      [19] 3329 	ld	a,1 (iy)
   0F48 CE 00         [ 7] 3330 	adc	a, #0x00
   0F4A 23            [ 6] 3331 	inc	hl
   0F4B 77            [ 7] 3332 	ld	(hl),a
                           3333 ;alien6.c:493: explosiones[i].w=4;
   0F4C FD 7E 00      [19] 3334 	ld	a,0 (iy)
   0F4F C6 08         [ 7] 3335 	add	a, #0x08
   0F51 5F            [ 4] 3336 	ld	e,a
   0F52 FD 7E 01      [19] 3337 	ld	a,1 (iy)
   0F55 CE 00         [ 7] 3338 	adc	a, #0x00
   0F57 57            [ 4] 3339 	ld	d,a
                           3340 ;alien6.c:491: if (!tipo){
   0F58 21 07 00      [10] 3341 	ld	hl, #7+0
   0F5B 39            [11] 3342 	add	hl, sp
   0F5C 7E            [ 7] 3343 	ld	a, (hl)
   0F5D B7            [ 4] 3344 	or	a, a
   0F5E 20 0F         [12] 3345 	jr	NZ,00105$
                           3346 ;alien6.c:492: explosiones[i].h=16;
   0F60 21 01 00      [10] 3347 	ld	hl, #1
   0F63 39            [11] 3348 	add	hl, sp
   0F64 7E            [ 7] 3349 	ld	a, (hl)
   0F65 23            [ 6] 3350 	inc	hl
   0F66 66            [ 7] 3351 	ld	h, (hl)
   0F67 6F            [ 4] 3352 	ld	l, a
   0F68 36 10         [10] 3353 	ld	(hl),#0x10
                           3354 ;alien6.c:493: explosiones[i].w=4;
   0F6A 3E 04         [ 7] 3355 	ld	a,#0x04
   0F6C 12            [ 7] 3356 	ld	(de),a
   0F6D 18 0D         [12] 3357 	jr	00106$
   0F6F                    3358 00105$:
                           3359 ;alien6.c:495: explosiones[i].h=8;
   0F6F 21 01 00      [10] 3360 	ld	hl, #1
   0F72 39            [11] 3361 	add	hl, sp
   0F73 7E            [ 7] 3362 	ld	a, (hl)
   0F74 23            [ 6] 3363 	inc	hl
   0F75 66            [ 7] 3364 	ld	h, (hl)
   0F76 6F            [ 4] 3365 	ld	l, a
   0F77 36 08         [10] 3366 	ld	(hl),#0x08
                           3367 ;alien6.c:496: explosiones[i].w=2;
   0F79 3E 02         [ 7] 3368 	ld	a,#0x02
   0F7B 12            [ 7] 3369 	ld	(de),a
   0F7C                    3370 00106$:
                           3371 ;alien6.c:498: explosiones_activas++;
   0F7C 21r62r02      [10] 3372 	ld	hl, #_explosiones_activas+0
   0F7F 34            [11] 3373 	inc	(hl)
                           3374 ;alien6.c:499: cpc_PutSpXOR((char *)explosion_sprite[tipo][0],explosiones[i].h,explosiones[i].w,explosiones[i].memoriaPantalla);
   0F80 FD 21 00 00   [14] 3375 	ld	iy,#0
   0F84 FD 39         [15] 3376 	add	iy,sp
   0F86 FD 6E 00      [19] 3377 	ld	l,0 (iy)
   0F89 26 00         [ 7] 3378 	ld	h,#0x00
   0F8B 29            [11] 3379 	add	hl, hl
   0F8C 29            [11] 3380 	add	hl, hl
   0F8D 29            [11] 3381 	add	hl, hl
   0F8E 29            [11] 3382 	add	hl, hl
   0F8F 09            [11] 3383 	add	hl,bc
   0F90 5D            [ 4] 3384 	ld	e,l
   0F91 54            [ 4] 3385 	ld	d,h
   0F92 01 09 00      [10] 3386 	ld	bc, #0x0009
   0F95 09            [11] 3387 	add	hl, bc
   0F96 7E            [ 7] 3388 	ld	a,(hl)
   0F97 FD 21 01 00   [14] 3389 	ld	iy,#1
   0F9B FD 39         [15] 3390 	add	iy,sp
   0F9D FD 77 00      [19] 3391 	ld	0 (iy),a
   0FA0 23            [ 6] 3392 	inc	hl
   0FA1 7E            [ 7] 3393 	ld	a,(hl)
   0FA2 FD 77 01      [19] 3394 	ld	1 (iy),a
   0FA5 D5            [11] 3395 	push	de
   0FA6 FD E1         [14] 3396 	pop	iy
   0FA8 FD 46 08      [19] 3397 	ld	b,8 (iy)
   0FAB EB            [ 4] 3398 	ex	de,hl
   0FAC 11 07 00      [10] 3399 	ld	de, #0x0007
   0FAF 19            [11] 3400 	add	hl, de
   0FB0 4E            [ 7] 3401 	ld	c,(hl)
   0FB1 FD 21 07 00   [14] 3402 	ld	iy,#7
   0FB5 FD 39         [15] 3403 	add	iy,sp
   0FB7 FD 6E 00      [19] 3404 	ld	l,0 (iy)
   0FBA 26 00         [ 7] 3405 	ld	h,#0x00
   0FBC 29            [11] 3406 	add	hl, hl
   0FBD 29            [11] 3407 	add	hl, hl
   0FBE 29            [11] 3408 	add	hl, hl
   0FBF 11r63r02      [10] 3409 	ld	de,#_explosion_sprite
   0FC2 19            [11] 3410 	add	hl,de
   0FC3 5E            [ 7] 3411 	ld	e,(hl)
   0FC4 23            [ 6] 3412 	inc	hl
   0FC5 56            [ 7] 3413 	ld	d,(hl)
   0FC6 21 01 00      [10] 3414 	ld	hl, #1
   0FC9 39            [11] 3415 	add	hl, sp
   0FCA 7E            [ 7] 3416 	ld	a, (hl)
   0FCB 23            [ 6] 3417 	inc	hl
   0FCC 66            [ 7] 3418 	ld	h, (hl)
   0FCD 6F            [ 4] 3419 	ld	l, a
   0FCE E5            [11] 3420 	push	hl
   0FCF C5            [11] 3421 	push	bc
   0FD0 D5            [11] 3422 	push	de
   0FD1 CDr00r00      [17] 3423 	call	_cpc_PutSpXOR
   0FD4 21 06 00      [10] 3424 	ld	hl,#6
   0FD7 39            [11] 3425 	add	hl,sp
   0FD8 F9            [ 6] 3426 	ld	sp,hl
   0FD9 F1            [10] 3427 	pop	af
   0FDA F1            [10] 3428 	pop	af
   0FDB 33            [ 6] 3429 	inc	sp
   0FDC C9            [10] 3430 	ret
   0FDD                    3431 _crearExplosion_end::
                           3432 ;alien6.c:502: void actualizarExplosiones(){
                           3433 ;	---------------------------------
                           3434 ; Function actualizarExplosiones
                           3435 ; ---------------------------------
   0FDD                    3436 _actualizarExplosiones_start::
   0FDD                    3437 _actualizarExplosiones:
   0FDD F5            [11] 3438 	push	af
   0FDE F5            [11] 3439 	push	af
   0FDF 3B            [ 6] 3440 	dec	sp
                           3441 ;alien6.c:504: if (explosiones_activas>0){
   0FE0 3Ar62r02      [13] 3442 	ld	a,(#_explosiones_activas + 0)
   0FE3 B7            [ 4] 3443 	or	a, a
   0FE4 CAr9Dr10      [10] 3444 	jp	Z,00108$
                           3445 ;alien6.c:505: for (i=0;i<MAX_EXPLOSIONES;i++){
   0FE7 FD 21 00 00   [14] 3446 	ld	iy,#0
   0FEB FD 39         [15] 3447 	add	iy,sp
   0FED FD 36 00 00   [19] 3448 	ld	0 (iy),#0x00
   0FF1                    3449 00106$:
                           3450 ;alien6.c:506: if (explosiones[i].activo==1){
   0FF1 FD 21 00 00   [14] 3451 	ld	iy,#0
   0FF5 FD 39         [15] 3452 	add	iy,sp
   0FF7 FD 6E 00      [19] 3453 	ld	l,0 (iy)
   0FFA 26 00         [ 7] 3454 	ld	h,#0x00
   0FFC 29            [11] 3455 	add	hl, hl
   0FFD 29            [11] 3456 	add	hl, hl
   0FFE 29            [11] 3457 	add	hl, hl
   0FFF 29            [11] 3458 	add	hl, hl
   1000 FD 21 03 00   [14] 3459 	ld	iy,#3
   1004 FD 39         [15] 3460 	add	iy,sp
   1006 FD 75 00      [19] 3461 	ld	0 (iy),l
   1009 FD 74 01      [19] 3462 	ld	1 (iy),h
   100C 3ErA2         [ 7] 3463 	ld	a,#<(_explosiones)
   100E 21 03 00      [10] 3464 	ld	hl,#3
   1011 39            [11] 3465 	add	hl,sp
   1012 86            [ 7] 3466 	add	a, (hl)
   1013 5F            [ 4] 3467 	ld	e,a
   1014 3Es01         [ 7] 3468 	ld	a,#>(_explosiones)
   1016 23            [ 6] 3469 	inc	hl
   1017 8E            [ 7] 3470 	adc	a, (hl)
   1018 57            [ 4] 3471 	ld	d,a
   1019 6B            [ 4] 3472 	ld	l, e
   101A 62            [ 4] 3473 	ld	h, d
   101B 23            [ 6] 3474 	inc	hl
   101C 23            [ 6] 3475 	inc	hl
   101D 7E            [ 7] 3476 	ld	a,(hl)
   101E 3D            [ 4] 3477 	dec	a
   101F 20 6B         [12] 3478 	jr	NZ,00107$
                           3479 ;alien6.c:507: cpc_PutSpXOR((char *)explosion_sprite[explosiones[i].tipo][explosiones[i].fase],explosiones[i].h,explosiones[i].w,explosiones[i].memoriaPantalla);
   1021 6B            [ 4] 3480 	ld	l, e
   1022 62            [ 4] 3481 	ld	h, d
   1023 01 09 00      [10] 3482 	ld	bc, #0x0009
   1026 09            [11] 3483 	add	hl, bc
   1027 7E            [ 7] 3484 	ld	a,(hl)
   1028 FD 77 00      [19] 3485 	ld	0 (iy),a
   102B 23            [ 6] 3486 	inc	hl
   102C 7E            [ 7] 3487 	ld	a,(hl)
   102D FD 77 01      [19] 3488 	ld	1 (iy),a
   1030 6B            [ 4] 3489 	ld	l, e
   1031 62            [ 4] 3490 	ld	h, d
   1032 01 08 00      [10] 3491 	ld	bc, #0x0008
   1035 09            [11] 3492 	add	hl, bc
   1036 7E            [ 7] 3493 	ld	a,(hl)
   1037 FD 21 02 00   [14] 3494 	ld	iy,#2
   103B FD 39         [15] 3495 	add	iy,sp
   103D FD 77 00      [19] 3496 	ld	0 (iy),a
   1040 6B            [ 4] 3497 	ld	l, e
   1041 62            [ 4] 3498 	ld	h, d
   1042 01 07 00      [10] 3499 	ld	bc, #0x0007
   1045 09            [11] 3500 	add	hl, bc
   1046 7E            [ 7] 3501 	ld	a,(hl)
   1047 FD 21 01 00   [14] 3502 	ld	iy,#1
   104B FD 39         [15] 3503 	add	iy,sp
   104D FD 77 00      [19] 3504 	ld	0 (iy),a
   1050 1A            [ 7] 3505 	ld	a,(de)
   1051 6F            [ 4] 3506 	ld	l,a
   1052 26 00         [ 7] 3507 	ld	h,#0x00
   1054 29            [11] 3508 	add	hl, hl
   1055 29            [11] 3509 	add	hl, hl
   1056 29            [11] 3510 	add	hl, hl
   1057 3Er63         [ 7] 3511 	ld	a,#<(_explosion_sprite)
   1059 85            [ 4] 3512 	add	a, l
   105A 4F            [ 4] 3513 	ld	c,a
   105B 3Es02         [ 7] 3514 	ld	a,#>(_explosion_sprite)
   105D 8C            [ 4] 3515 	adc	a, h
   105E 47            [ 4] 3516 	ld	b,a
   105F EB            [ 4] 3517 	ex	de,hl
   1060 23            [ 6] 3518 	inc	hl
   1061 7E            [ 7] 3519 	ld	a,(hl)
   1062 87            [ 4] 3520 	add	a, a
   1063 81            [ 4] 3521 	add	a,c
   1064 5F            [ 4] 3522 	ld	e,a
   1065 78            [ 4] 3523 	ld	a,b
   1066 CE 00         [ 7] 3524 	adc	a, #0x00
   1068 57            [ 4] 3525 	ld	d,a
   1069 EB            [ 4] 3526 	ex	de,hl
   106A 5E            [ 7] 3527 	ld	e,(hl)
   106B 23            [ 6] 3528 	inc	hl
   106C 56            [ 7] 3529 	ld	d,(hl)
   106D 21 03 00      [10] 3530 	ld	hl, #3
   1070 39            [11] 3531 	add	hl, sp
   1071 4E            [ 7] 3532 	ld	c, (hl)
   1072 23            [ 6] 3533 	inc	hl
   1073 46            [ 7] 3534 	ld	b, (hl)
   1074 C5            [11] 3535 	push	bc
   1075 21 04 00      [10] 3536 	ld	hl, #4+0
   1078 39            [11] 3537 	add	hl, sp
   1079 7E            [ 7] 3538 	ld	a, (hl)
   107A F5            [11] 3539 	push	af
   107B 33            [ 6] 3540 	inc	sp
   107C 21 04 00      [10] 3541 	ld	hl, #4+0
   107F 39            [11] 3542 	add	hl, sp
   1080 7E            [ 7] 3543 	ld	a, (hl)
   1081 F5            [11] 3544 	push	af
   1082 33            [ 6] 3545 	inc	sp
   1083 D5            [11] 3546 	push	de
   1084 CDr00r00      [17] 3547 	call	_cpc_PutSpXOR
   1087 21 06 00      [10] 3548 	ld	hl,#6
   108A 39            [11] 3549 	add	hl,sp
   108B F9            [ 6] 3550 	ld	sp,hl
   108C                    3551 00107$:
                           3552 ;alien6.c:505: for (i=0;i<MAX_EXPLOSIONES;i++){
   108C FD 21 00 00   [14] 3553 	ld	iy,#0
   1090 FD 39         [15] 3554 	add	iy,sp
   1092 FD 34 00      [23] 3555 	inc	0 (iy)
   1095 FD 7E 00      [19] 3556 	ld	a,0 (iy)
   1098 D6 06         [ 7] 3557 	sub	a, #0x06
   109A DArF1r0F      [10] 3558 	jp	C,00106$
   109D                    3559 00108$:
   109D F1            [10] 3560 	pop	af
   109E F1            [10] 3561 	pop	af
   109F 33            [ 6] 3562 	inc	sp
   10A0 C9            [10] 3563 	ret
   10A1                    3564 _actualizarExplosiones_end::
                           3565 ;alien6.c:513: void animarExplosiones(){
                           3566 ;	---------------------------------
                           3567 ; Function animarExplosiones
                           3568 ; ---------------------------------
   10A1                    3569 _animarExplosiones_start::
   10A1                    3570 _animarExplosiones:
                           3571 ;alien6.c:515: if (explosiones_activas>0){
   10A1 3Ar62r02      [13] 3572 	ld	a,(#_explosiones_activas + 0)
   10A4 B7            [ 4] 3573 	or	a, a
   10A5 C8            [11] 3574 	ret	Z
                           3575 ;alien6.c:516: for (i=0;i<MAX_EXPLOSIONES;i++){
   10A6 1E 00         [ 7] 3576 	ld	e,#0x00
   10A8                    3577 00109$:
                           3578 ;alien6.c:517: if (explosiones[i].activo==1){
   10A8 6B            [ 4] 3579 	ld	l,e
   10A9 26 00         [ 7] 3580 	ld	h,#0x00
   10AB 29            [11] 3581 	add	hl, hl
   10AC 29            [11] 3582 	add	hl, hl
   10AD 29            [11] 3583 	add	hl, hl
   10AE 29            [11] 3584 	add	hl, hl
   10AF 3ErA2         [ 7] 3585 	ld	a,#<(_explosiones)
   10B1 85            [ 4] 3586 	add	a, l
   10B2 4F            [ 4] 3587 	ld	c,a
   10B3 3Es01         [ 7] 3588 	ld	a,#>(_explosiones)
   10B5 8C            [ 4] 3589 	adc	a, h
   10B6 47            [ 4] 3590 	ld	b,a
   10B7 C5            [11] 3591 	push	bc
   10B8 FD E1         [14] 3592 	pop	iy
   10BA FD 23         [10] 3593 	inc	iy
   10BC FD 23         [10] 3594 	inc	iy
   10BE FD 7E 00      [19] 3595 	ld	a, 0 (iy)
   10C1 3D            [ 4] 3596 	dec	a
   10C2 20 15         [12] 3597 	jr	NZ,00110$
                           3598 ;alien6.c:518: if (explosiones[i].fase<3){
   10C4 69            [ 4] 3599 	ld	l, c
   10C5 60            [ 4] 3600 	ld	h, b
   10C6 23            [ 6] 3601 	inc	hl
   10C7 56            [ 7] 3602 	ld	d,(hl)
   10C8 7A            [ 4] 3603 	ld	a,d
   10C9 D6 03         [ 7] 3604 	sub	a, #0x03
   10CB 30 04         [12] 3605 	jr	NC,00102$
                           3606 ;alien6.c:519: explosiones[i].fase++;
   10CD 14            [ 4] 3607 	inc	d
   10CE 72            [ 7] 3608 	ld	(hl),d
   10CF 18 08         [12] 3609 	jr	00110$
   10D1                    3610 00102$:
                           3611 ;alien6.c:523: explosiones[i].activo=0;
   10D1 FD 36 00 00   [19] 3612 	ld	0 (iy), #0x00
                           3613 ;alien6.c:524: explosiones_activas--;
   10D5 21r62r02      [10] 3614 	ld	hl, #_explosiones_activas+0
   10D8 35            [11] 3615 	dec	(hl)
   10D9                    3616 00110$:
                           3617 ;alien6.c:516: for (i=0;i<MAX_EXPLOSIONES;i++){
   10D9 1C            [ 4] 3618 	inc	e
   10DA 7B            [ 4] 3619 	ld	a,e
   10DB D6 06         [ 7] 3620 	sub	a, #0x06
   10DD 38 C9         [12] 3621 	jr	C,00109$
   10DF C9            [10] 3622 	ret
   10E0                    3623 _animarExplosiones_end::
                           3624 ;alien6.c:538: void inicializarDisparosMalos(){
                           3625 ;	---------------------------------
                           3626 ; Function inicializarDisparosMalos
                           3627 ; ---------------------------------
   10E0                    3628 _inicializarDisparosMalos_start::
   10E0                    3629 _inicializarDisparosMalos:
   10E0 3B            [ 6] 3630 	dec	sp
                           3631 ;alien6.c:541: for (k=0;k<MAX_DISPAROS_MALOS;k++){
   10E1 FD 21 00 00   [14] 3632 	ld	iy,#0
   10E5 FD 39         [15] 3633 	add	iy,sp
   10E7 FD 36 00 00   [19] 3634 	ld	0 (iy),#0x00
   10EB 11 00 00      [10] 3635 	ld	de,#0x0000
   10EE                    3636 00103$:
   10EE 21rD9r00      [10] 3637 	ld	hl,#_MAX_DISPAROS_MALOS
   10F1 FD 21 00 00   [14] 3638 	ld	iy,#0
   10F5 FD 39         [15] 3639 	add	iy,sp
   10F7 FD 7E 00      [19] 3640 	ld	a,0 (iy)
   10FA 96            [ 7] 3641 	sub	a, (hl)
   10FB 30 4F         [12] 3642 	jr	NC,00101$
                           3643 ;alien6.c:542: disparosMalos[k].activo=0;
   10FD 21r9Cr00      [10] 3644 	ld	hl,#_disparosMalos
   1100 19            [11] 3645 	add	hl,de
   1101 4D            [ 4] 3646 	ld	c,l
   1102 44            [ 4] 3647 	ld	b,h
   1103 21 06 00      [10] 3648 	ld	hl,#0x0006
   1106 09            [11] 3649 	add	hl,bc
   1107 36 00         [10] 3650 	ld	(hl),#0x00
                           3651 ;alien6.c:543: disparosMalos[k].sp0=shot3;
   1109 69            [ 4] 3652 	ld	l, c
   110A 60            [ 4] 3653 	ld	h, b
   110B 36rF1         [10] 3654 	ld	(hl),#<(_shot3)
   110D 23            [ 6] 3655 	inc	hl
   110E 36s01         [10] 3656 	ld	(hl),#>(_shot3)
                           3657 ;alien6.c:544: disparosMalos[k].cx=0;
   1110 69            [ 4] 3658 	ld	l, c
   1111 60            [ 4] 3659 	ld	h, b
   1112 23            [ 6] 3660 	inc	hl
   1113 23            [ 6] 3661 	inc	hl
   1114 36 00         [10] 3662 	ld	(hl),#0x00
                           3663 ;alien6.c:545: disparosMalos[k].cy=0;
   1116 69            [ 4] 3664 	ld	l, c
   1117 60            [ 4] 3665 	ld	h, b
   1118 23            [ 6] 3666 	inc	hl
   1119 23            [ 6] 3667 	inc	hl
   111A 23            [ 6] 3668 	inc	hl
   111B 36 00         [10] 3669 	ld	(hl),#0x00
                           3670 ;alien6.c:546: disparosMalos[k].ox=0;
   111D 21 04 00      [10] 3671 	ld	hl,#0x0004
   1120 09            [11] 3672 	add	hl,bc
   1121 36 00         [10] 3673 	ld	(hl),#0x00
                           3674 ;alien6.c:547: disparosMalos[k].oy=0;
   1123 21 05 00      [10] 3675 	ld	hl,#0x0005
   1126 09            [11] 3676 	add	hl,bc
   1127 36 00         [10] 3677 	ld	(hl),#0x00
                           3678 ;alien6.c:548: disparosMalos[k].nuevo=0;
   1129 21 09 00      [10] 3679 	ld	hl,#0x0009
   112C 09            [11] 3680 	add	hl,bc
   112D 36 00         [10] 3681 	ld	(hl),#0x00
                           3682 ;alien6.c:549: disparosMalos[k].dead=0;
   112F 21 0A 00      [10] 3683 	ld	hl,#0x000A
   1132 09            [11] 3684 	add	hl,bc
   1133 36 00         [10] 3685 	ld	(hl),#0x00
                           3686 ;alien6.c:550: disparosMalos[k].lastmoved=0;
   1135 21 0B 00      [10] 3687 	ld	hl,#0x000B
   1138 09            [11] 3688 	add	hl,bc
   1139 AF            [ 4] 3689 	xor	a, a
   113A 77            [ 7] 3690 	ld	(hl), a
   113B 23            [ 6] 3691 	inc	hl
   113C 77            [ 7] 3692 	ld	(hl), a
   113D 23            [ 6] 3693 	inc	hl
   113E AF            [ 4] 3694 	xor	a, a
   113F 77            [ 7] 3695 	ld	(hl), a
   1140 23            [ 6] 3696 	inc	hl
   1141 77            [ 7] 3697 	ld	(hl), a
                           3698 ;alien6.c:541: for (k=0;k<MAX_DISPAROS_MALOS;k++){
   1142 21 0F 00      [10] 3699 	ld	hl,#0x000F
   1145 19            [11] 3700 	add	hl,de
   1146 EB            [ 4] 3701 	ex	de,hl
   1147 FD 34 00      [23] 3702 	inc	0 (iy)
   114A 18 A2         [12] 3703 	jr	00103$
   114C                    3704 00101$:
                           3705 ;alien6.c:552: disparos_malos_activos=0;
   114C 21rD8r00      [10] 3706 	ld	hl,#_disparos_malos_activos + 0
   114F 36 00         [10] 3707 	ld	(hl), #0x00
   1151 33            [ 6] 3708 	inc	sp
   1152 C9            [10] 3709 	ret
   1153                    3710 _inicializarDisparosMalos_end::
                           3711 ;alien6.c:555: void crearDisparoMalo(unsigned char x, unsigned char y, unsigned speed){
                           3712 ;	---------------------------------
                           3713 ; Function crearDisparoMalo
                           3714 ; ---------------------------------
   1153                    3715 _crearDisparoMalo_start::
   1153                    3716 _crearDisparoMalo:
   1153 F5            [11] 3717 	push	af
                           3718 ;alien6.c:558: while (disparosMalos[k].activo==1){
   1154 FD 21 01 00   [14] 3719 	ld	iy,#1
   1158 FD 39         [15] 3720 	add	iy,sp
   115A FD 36 00 00   [19] 3721 	ld	0 (iy),#0x00
   115E 01 00 00      [10] 3722 	ld	bc,#0x0000
   1161                    3723 00101$:
   1161 21r9Cr00      [10] 3724 	ld	hl,#_disparosMalos
   1164 09            [11] 3725 	add	hl,bc
   1165 EB            [ 4] 3726 	ex	de,hl
   1166 21 06 00      [10] 3727 	ld	hl,#0x0006
   1169 19            [11] 3728 	add	hl,de
   116A 7E            [ 7] 3729 	ld	a,(hl)
   116B 3D            [ 4] 3730 	dec	a
   116C 20 08         [12] 3731 	jr	NZ,00103$
                           3732 ;alien6.c:559: k++;
   116E 21 0F 00      [10] 3733 	ld	hl,#0x000F
   1171 09            [11] 3734 	add	hl,bc
   1172 4D            [ 4] 3735 	ld	c,l
   1173 44            [ 4] 3736 	ld	b,h
   1174 18 EB         [12] 3737 	jr	00101$
   1176                    3738 00103$:
                           3739 ;alien6.c:561: disparosMalos[k].activo=1;
   1176 36 01         [10] 3740 	ld	(hl),#0x01
                           3741 ;alien6.c:562: disparosMalos[k].cx=x+1;
   1178 4B            [ 4] 3742 	ld	c, e
   1179 42            [ 4] 3743 	ld	b, d
   117A 03            [ 6] 3744 	inc	bc
   117B 03            [ 6] 3745 	inc	bc
   117C 21 01 00      [10] 3746 	ld	hl,#1
   117F 39            [11] 3747 	add	hl,sp
   1180 FD 21 04 00   [14] 3748 	ld	iy,#4
   1184 FD 39         [15] 3749 	add	iy,sp
   1186 FD 7E 00      [19] 3750 	ld	a,0 (iy)
   1189 3C            [ 4] 3751 	inc	a
   118A 77            [ 7] 3752 	ld	(hl),a
   118B 21 01 00      [10] 3753 	ld	hl, #1+0
   118E 39            [11] 3754 	add	hl, sp
   118F 7E            [ 7] 3755 	ld	a, (hl)
   1190 02            [ 7] 3756 	ld	(bc),a
                           3757 ;alien6.c:563: disparosMalos[k].cy=y-1;
   1191 4B            [ 4] 3758 	ld	c, e
   1192 42            [ 4] 3759 	ld	b, d
   1193 03            [ 6] 3760 	inc	bc
   1194 03            [ 6] 3761 	inc	bc
   1195 03            [ 6] 3762 	inc	bc
   1196 21 00 00      [10] 3763 	ld	hl,#0
   1199 39            [11] 3764 	add	hl,sp
   119A FD 21 05 00   [14] 3765 	ld	iy,#5
   119E FD 39         [15] 3766 	add	iy,sp
   11A0 FD 7E 00      [19] 3767 	ld	a,0 (iy)
   11A3 C6 FF         [ 7] 3768 	add	a,#0xFF
   11A5 77            [ 7] 3769 	ld	(hl),a
   11A6 21 00 00      [10] 3770 	ld	hl, #0+0
   11A9 39            [11] 3771 	add	hl, sp
   11AA 7E            [ 7] 3772 	ld	a, (hl)
   11AB 02            [ 7] 3773 	ld	(bc),a
                           3774 ;alien6.c:564: disparosMalos[k].ox=x+1;
   11AC 21 04 00      [10] 3775 	ld	hl,#0x0004
   11AF 19            [11] 3776 	add	hl,de
   11B0 FD 21 01 00   [14] 3777 	ld	iy,#1
   11B4 FD 39         [15] 3778 	add	iy,sp
   11B6 FD 7E 00      [19] 3779 	ld	a,0 (iy)
   11B9 77            [ 7] 3780 	ld	(hl),a
                           3781 ;alien6.c:565: disparosMalos[k].oy=y-1;
   11BA 21 05 00      [10] 3782 	ld	hl,#0x0005
   11BD 19            [11] 3783 	add	hl,de
   11BE FD 21 00 00   [14] 3784 	ld	iy,#0
   11C2 FD 39         [15] 3785 	add	iy,sp
   11C4 FD 7E 00      [19] 3786 	ld	a,0 (iy)
   11C7 77            [ 7] 3787 	ld	(hl),a
                           3788 ;alien6.c:566: disparosMalos[k].sp0=shot3;
   11C8 6B            [ 4] 3789 	ld	l, e
   11C9 62            [ 4] 3790 	ld	h, d
   11CA 36rF1         [10] 3791 	ld	(hl),#<(_shot3)
   11CC 23            [ 6] 3792 	inc	hl
   11CD 36s01         [10] 3793 	ld	(hl),#>(_shot3)
                           3794 ;alien6.c:567: disparosMalos[k].nuevo=1;
   11CF 21 09 00      [10] 3795 	ld	hl,#0x0009
   11D2 19            [11] 3796 	add	hl,de
   11D3 36 01         [10] 3797 	ld	(hl),#0x01
                           3798 ;alien6.c:568: disparosMalos[k].dead=0;
   11D5 21 0A 00      [10] 3799 	ld	hl,#0x000A
   11D8 19            [11] 3800 	add	hl,de
   11D9 36 00         [10] 3801 	ld	(hl),#0x00
                           3802 ;alien6.c:569: disparosMalos[k].speed=speed;
   11DB 21 08 00      [10] 3803 	ld	hl,#0x0008
   11DE 19            [11] 3804 	add	hl,de
   11DF FD 21 06 00   [14] 3805 	ld	iy,#6
   11E3 FD 39         [15] 3806 	add	iy,sp
   11E5 FD 7E 00      [19] 3807 	ld	a,0 (iy)
   11E8 77            [ 7] 3808 	ld	(hl),a
                           3809 ;alien6.c:571: disparosMalos[k].lastmoved=0;
   11E9 21 0B 00      [10] 3810 	ld	hl,#0x000B
   11EC 19            [11] 3811 	add	hl,de
   11ED 36 00         [10] 3812 	ld	(hl),#0x00
   11EF 23            [ 6] 3813 	inc	hl
   11F0 36 00         [10] 3814 	ld	(hl),#0x00
   11F2 23            [ 6] 3815 	inc	hl
   11F3 36 00         [10] 3816 	ld	(hl),#0x00
   11F5 23            [ 6] 3817 	inc	hl
   11F6 36 00         [10] 3818 	ld	(hl),#0x00
                           3819 ;alien6.c:572: disparosMalos[k].moved=0;
   11F8 21 07 00      [10] 3820 	ld	hl,#0x0007
   11FB 19            [11] 3821 	add	hl,de
   11FC 36 00         [10] 3822 	ld	(hl),#0x00
                           3823 ;alien6.c:573: disparos_malos_activos++;
   11FE 21rD8r00      [10] 3824 	ld	hl, #_disparos_malos_activos+0
   1201 34            [11] 3825 	inc	(hl)
                           3826 ;alien6.c:574: if (SONIDO_ACTIVADO) cpc_WyzStartEffect(0,0);
   1202 21 00 00      [10] 3827 	ld	hl,#0x0000
   1205 E5            [11] 3828 	push	hl
   1206 CDr00r00      [17] 3829 	call	_cpc_WyzStartEffect
   1209 F1            [10] 3830 	pop	af
   120A F1            [10] 3831 	pop	af
   120B C9            [10] 3832 	ret
   120C                    3833 _crearDisparoMalo_end::
                           3834 ;alien6.c:577: void moverDisparosMalos(){
                           3835 ;	---------------------------------
                           3836 ; Function moverDisparosMalos
                           3837 ; ---------------------------------
   120C                    3838 _moverDisparosMalos_start::
   120C                    3839 _moverDisparosMalos:
   120C 21 EF FF      [10] 3840 	ld	hl,#-17
   120F 39            [11] 3841 	add	hl,sp
   1210 F9            [ 6] 3842 	ld	sp,hl
                           3843 ;alien6.c:582: lapso=getTime();
   1211 CDr89r07      [17] 3844 	call	_getTime
   1214 FD 21 00 00   [14] 3845 	ld	iy,#0
   1218 FD 39         [15] 3846 	add	iy,sp
   121A FD 75 00      [19] 3847 	ld	0 (iy),l
   121D FD 74 01      [19] 3848 	ld	1 (iy),h
   1220 FD 73 02      [19] 3849 	ld	2 (iy),e
   1223 FD 72 03      [19] 3850 	ld	3 (iy),d
                           3851 ;alien6.c:583: if (disparos_malos_activos>0){
   1226 3ArD8r00      [13] 3852 	ld	a,(#_disparos_malos_activos + 0)
   1229 B7            [ 4] 3853 	or	a, a
   122A CArE8r13      [10] 3854 	jp	Z,00118$
                           3855 ;alien6.c:584: for (i=0;i<MAX_DISPAROS_MALOS;i++){
   122D FD 21 04 00   [14] 3856 	ld	iy,#4
   1231 FD 39         [15] 3857 	add	iy,sp
   1233 FD 36 00 00   [19] 3858 	ld	0 (iy),#0x00
   1237 21 0F 00      [10] 3859 	ld	hl, #15
   123A 39            [11] 3860 	add	hl, sp
   123B AF            [ 4] 3861 	xor	a, a
   123C 77            [ 7] 3862 	ld	(hl), a
   123D 23            [ 6] 3863 	inc	hl
   123E 77            [ 7] 3864 	ld	(hl), a
   123F 21 0D 00      [10] 3865 	ld	hl, #13
   1242 39            [11] 3866 	add	hl, sp
   1243 AF            [ 4] 3867 	xor	a, a
   1244 77            [ 7] 3868 	ld	(hl), a
   1245 23            [ 6] 3869 	inc	hl
   1246 77            [ 7] 3870 	ld	(hl), a
   1247                    3871 00116$:
   1247 21rD9r00      [10] 3872 	ld	hl,#_MAX_DISPAROS_MALOS
   124A FD 21 04 00   [14] 3873 	ld	iy,#4
   124E FD 39         [15] 3874 	add	iy,sp
   1250 FD 7E 00      [19] 3875 	ld	a,0 (iy)
   1253 96            [ 7] 3876 	sub	a, (hl)
   1254 D2rE8r13      [10] 3877 	jp	NC,00118$
                           3878 ;alien6.c:585: if ((disparosMalos[i].activo) && (!disparosMalos[i].dead) && (lapso-disparosMalos[i].lastmoved>disparosMalos[i].speed)){
   1257 3Er9C         [ 7] 3879 	ld	a,#<(_disparosMalos)
   1259 21 0D 00      [10] 3880 	ld	hl,#13
   125C 39            [11] 3881 	add	hl,sp
   125D FD 21 0B 00   [14] 3882 	ld	iy,#11
   1261 FD 39         [15] 3883 	add	iy,sp
   1263 86            [ 7] 3884 	add	a, (hl)
   1264 FD 77 00      [19] 3885 	ld	0 (iy),a
   1267 3Es00         [ 7] 3886 	ld	a,#>(_disparosMalos)
   1269 23            [ 6] 3887 	inc	hl
   126A 8E            [ 7] 3888 	adc	a, (hl)
   126B FD 23         [10] 3889 	inc	iy
   126D FD 77 00      [19] 3890 	ld	0 (iy),a
   1270 FD 21 0B 00   [14] 3891 	ld	iy,#11
   1274 FD 39         [15] 3892 	add	iy,sp
   1276 FD 6E 00      [19] 3893 	ld	l,0 (iy)
   1279 FD 66 01      [19] 3894 	ld	h,1 (iy)
   127C 11 06 00      [10] 3895 	ld	de, #0x0006
   127F 19            [11] 3896 	add	hl, de
   1280 7E            [ 7] 3897 	ld	a,(hl)
   1281 B7            [ 4] 3898 	or	a, a
   1282 CArC2r13      [10] 3899 	jp	Z,00117$
   1285 21 09 00      [10] 3900 	ld	hl,#9
   1288 39            [11] 3901 	add	hl,sp
   1289 FD 7E 00      [19] 3902 	ld	a,0 (iy)
   128C C6 0A         [ 7] 3903 	add	a, #0x0A
   128E 77            [ 7] 3904 	ld	(hl),a
   128F FD 7E 01      [19] 3905 	ld	a,1 (iy)
   1292 CE 00         [ 7] 3906 	adc	a, #0x00
   1294 23            [ 6] 3907 	inc	hl
   1295 77            [ 7] 3908 	ld	(hl),a
   1296 21 09 00      [10] 3909 	ld	hl, #9
   1299 39            [11] 3910 	add	hl, sp
   129A 7E            [ 7] 3911 	ld	a, (hl)
   129B 23            [ 6] 3912 	inc	hl
   129C 66            [ 7] 3913 	ld	h, (hl)
   129D 6F            [ 4] 3914 	ld	l, a
   129E 7E            [ 7] 3915 	ld	a,(hl)
   129F B7            [ 4] 3916 	or	a, a
   12A0 C2rC2r13      [10] 3917 	jp	NZ,00117$
   12A3 21 0B 00      [10] 3918 	ld	hl, #11
   12A6 39            [11] 3919 	add	hl, sp
   12A7 7E            [ 7] 3920 	ld	a, (hl)
   12A8 23            [ 6] 3921 	inc	hl
   12A9 66            [ 7] 3922 	ld	h, (hl)
   12AA 6F            [ 4] 3923 	ld	l, a
   12AB 11 0B 00      [10] 3924 	ld	de, #0x000B
   12AE 19            [11] 3925 	add	hl, de
   12AF 5E            [ 7] 3926 	ld	e,(hl)
   12B0 23            [ 6] 3927 	inc	hl
   12B1 56            [ 7] 3928 	ld	d,(hl)
   12B2 23            [ 6] 3929 	inc	hl
   12B3 4E            [ 7] 3930 	ld	c,(hl)
   12B4 23            [ 6] 3931 	inc	hl
   12B5 46            [ 7] 3932 	ld	b,(hl)
   12B6 21 05 00      [10] 3933 	ld	hl,#5
   12B9 39            [11] 3934 	add	hl,sp
   12BA FD 21 00 00   [14] 3935 	ld	iy,#0
   12BE FD 39         [15] 3936 	add	iy,sp
   12C0 FD 7E 00      [19] 3937 	ld	a,0 (iy)
   12C3 93            [ 4] 3938 	sub	a, e
   12C4 77            [ 7] 3939 	ld	(hl),a
   12C5 FD 7E 01      [19] 3940 	ld	a,1 (iy)
   12C8 9A            [ 4] 3941 	sbc	a, d
   12C9 23            [ 6] 3942 	inc	hl
   12CA 77            [ 7] 3943 	ld	(hl),a
   12CB FD 7E 02      [19] 3944 	ld	a,2 (iy)
   12CE 99            [ 4] 3945 	sbc	a, c
   12CF 23            [ 6] 3946 	inc	hl
   12D0 77            [ 7] 3947 	ld	(hl),a
   12D1 FD 7E 03      [19] 3948 	ld	a,3 (iy)
   12D4 98            [ 4] 3949 	sbc	a, b
   12D5 23            [ 6] 3950 	inc	hl
   12D6 77            [ 7] 3951 	ld	(hl),a
   12D7 21 0B 00      [10] 3952 	ld	hl, #11
   12DA 39            [11] 3953 	add	hl, sp
   12DB 7E            [ 7] 3954 	ld	a, (hl)
   12DC 23            [ 6] 3955 	inc	hl
   12DD 66            [ 7] 3956 	ld	h, (hl)
   12DE 6F            [ 4] 3957 	ld	l, a
   12DF 11 08 00      [10] 3958 	ld	de, #0x0008
   12E2 19            [11] 3959 	add	hl, de
   12E3 5E            [ 7] 3960 	ld	e,(hl)
   12E4 16 00         [ 7] 3961 	ld	d,#0x00
   12E6 01 00 00      [10] 3962 	ld	bc,#0x0000
   12E9 7B            [ 4] 3963 	ld	a,e
   12EA FD 21 05 00   [14] 3964 	ld	iy,#5
   12EE FD 39         [15] 3965 	add	iy,sp
   12F0 FD 96 00      [19] 3966 	sub	a, 0 (iy)
   12F3 7A            [ 4] 3967 	ld	a,d
   12F4 FD 9E 01      [19] 3968 	sbc	a, 1 (iy)
   12F7 79            [ 4] 3969 	ld	a,c
   12F8 FD 9E 02      [19] 3970 	sbc	a, 2 (iy)
   12FB 78            [ 4] 3971 	ld	a,b
   12FC FD 9E 03      [19] 3972 	sbc	a, 3 (iy)
   12FF E2r04r13      [10] 3973 	jp	PO, 00153$
   1302 EE 80         [ 7] 3974 	xor	a, #0x80
   1304                    3975 00153$:
   1304 F2rC2r13      [10] 3976 	jp	P,00117$
                           3977 ;alien6.c:586: if (disparosMalos[i].cy<(199-SALTO_DISPARO_MALO)){
   1307 21 05 00      [10] 3978 	ld	hl,#5
   130A 39            [11] 3979 	add	hl,sp
   130B FD 21 0B 00   [14] 3980 	ld	iy,#11
   130F FD 39         [15] 3981 	add	iy,sp
   1311 FD 7E 00      [19] 3982 	ld	a,0 (iy)
   1314 C6 03         [ 7] 3983 	add	a, #0x03
   1316 77            [ 7] 3984 	ld	(hl),a
   1317 FD 7E 01      [19] 3985 	ld	a,1 (iy)
   131A CE 00         [ 7] 3986 	adc	a, #0x00
   131C 23            [ 6] 3987 	inc	hl
   131D 77            [ 7] 3988 	ld	(hl),a
   131E FD 21 05 00   [14] 3989 	ld	iy,#5
   1322 FD 39         [15] 3990 	add	iy,sp
   1324 FD 6E 00      [19] 3991 	ld	l,0 (iy)
   1327 FD 66 01      [19] 3992 	ld	h,1 (iy)
   132A 5E            [ 7] 3993 	ld	e,(hl)
   132B 7B            [ 4] 3994 	ld	a,e
   132C D6 C5         [ 7] 3995 	sub	a, #0xC5
   132E 30 75         [12] 3996 	jr	NC,00106$
                           3997 ;alien6.c:587: disparosMalos[i].cy=disparosMalos[i].cy + SALTO_DISPARO_MALO;
   1330 1C            [ 4] 3998 	inc	e
   1331 1C            [ 4] 3999 	inc	e
   1332 FD 6E 00      [19] 4000 	ld	l,0 (iy)
   1335 FD 66 01      [19] 4001 	ld	h,1 (iy)
   1338 73            [ 7] 4002 	ld	(hl),e
                           4003 ;alien6.c:594: if (detectarColision(disparosMalos[i].cx,disparosMalos[i].cy,2,4,prota.cx,prota.cy,4,16)){  
   1339 21rDDr00      [10] 4004 	ld	hl, #(_prota + 0x0003) + 0
   133C 56            [ 7] 4005 	ld	d,(hl)
   133D 21rDCr00      [10] 4006 	ld	hl, #(_prota + 0x0002) + 0
   1340 4E            [ 7] 4007 	ld	c,(hl)
   1341 21 0B 00      [10] 4008 	ld	hl, #11
   1344 39            [11] 4009 	add	hl, sp
   1345 7E            [ 7] 4010 	ld	a, (hl)
   1346 23            [ 6] 4011 	inc	hl
   1347 66            [ 7] 4012 	ld	h, (hl)
   1348 6F            [ 4] 4013 	ld	l, a
   1349 23            [ 6] 4014 	inc	hl
   134A 23            [ 6] 4015 	inc	hl
   134B 7E            [ 7] 4016 	ld	a,(hl)
   134C FD 21 05 00   [14] 4017 	ld	iy,#5
   1350 FD 39         [15] 4018 	add	iy,sp
   1352 FD 77 00      [19] 4019 	ld	0 (iy),a
   1355 21 04 10      [10] 4020 	ld	hl,#0x1004
   1358 E5            [11] 4021 	push	hl
   1359 D5            [11] 4022 	push	de
   135A 33            [ 6] 4023 	inc	sp
   135B 79            [ 4] 4024 	ld	a,c
   135C F5            [11] 4025 	push	af
   135D 33            [ 6] 4026 	inc	sp
   135E 21 02 04      [10] 4027 	ld	hl,#0x0402
   1361 E5            [11] 4028 	push	hl
   1362 7B            [ 4] 4029 	ld	a,e
   1363 F5            [11] 4030 	push	af
   1364 33            [ 6] 4031 	inc	sp
   1365 FD 7E 00      [19] 4032 	ld	a,0 (iy)
   1368 F5            [11] 4033 	push	af
   1369 33            [ 6] 4034 	inc	sp
   136A CDrCEr07      [17] 4035 	call	_detectarColision
   136D F1            [10] 4036 	pop	af
   136E F1            [10] 4037 	pop	af
   136F F1            [10] 4038 	pop	af
   1370 F1            [10] 4039 	pop	af
   1371 7D            [ 4] 4040 	ld	a,l
   1372 B7            [ 4] 4041 	or	a, a
   1373 28 3A         [12] 4042 	jr	Z,00107$
                           4043 ;alien6.c:596: disparosMalos[i].dead=1;
   1375 FD 21 09 00   [14] 4044 	ld	iy,#9
   1379 FD 39         [15] 4045 	add	iy,sp
   137B FD 6E 00      [19] 4046 	ld	l,0 (iy)
   137E FD 66 01      [19] 4047 	ld	h,1 (iy)
   1381 36 01         [10] 4048 	ld	(hl),#0x01
                           4049 ;alien6.c:598: prota.dead=1;
   1383 21rE8r00      [10] 4050 	ld	hl,#_prota + 14
   1386 36 01         [10] 4051 	ld	(hl),#0x01
                           4052 ;alien6.c:600: crearExplosionProta(prota.cx, prota.cy);  //explosion chula
   1388 3ArDDr00      [13] 4053 	ld	a, (#(_prota + 0x0003) + 0)
   138B 21rDCr00      [10] 4054 	ld	hl, #(_prota + 0x0002) + 0
   138E 56            [ 7] 4055 	ld	d,(hl)
   138F F5            [11] 4056 	push	af
   1390 33            [ 6] 4057 	inc	sp
   1391 D5            [11] 4058 	push	de
   1392 33            [ 6] 4059 	inc	sp
   1393 CDr9Er0B      [17] 4060 	call	_crearExplosionProta
                           4061 ;alien6.c:602: if (SONIDO_ACTIVADO) cpc_WyzStartEffect(2,2);
   1396 21 02 02      [10] 4062 	ld	hl, #0x0202
   1399 E3            [19] 4063 	ex	(sp),hl
   139A CDr00r00      [17] 4064 	call	_cpc_WyzStartEffect
   139D F1            [10] 4065 	pop	af
                           4066 ;alien6.c:603: hostilidad=0;
   139E 21r95r02      [10] 4067 	ld	hl,#_hostilidad + 0
   13A1 36 00         [10] 4068 	ld	(hl), #0x00
   13A3 18 0A         [12] 4069 	jr	00107$
   13A5                    4070 00106$:
                           4071 ;alien6.c:607: disparosMalos[i].dead=1;
   13A5 21 09 00      [10] 4072 	ld	hl, #9
   13A8 39            [11] 4073 	add	hl, sp
   13A9 7E            [ 7] 4074 	ld	a, (hl)
   13AA 23            [ 6] 4075 	inc	hl
   13AB 66            [ 7] 4076 	ld	h, (hl)
   13AC 6F            [ 4] 4077 	ld	l, a
   13AD 36 01         [10] 4078 	ld	(hl),#0x01
   13AF                    4079 00107$:
                           4080 ;alien6.c:609: disparosMalos[i].moved=1;
   13AF 3Er9C         [ 7] 4081 	ld	a,#<(_disparosMalos)
   13B1 21 0F 00      [10] 4082 	ld	hl,#15
   13B4 39            [11] 4083 	add	hl,sp
   13B5 86            [ 7] 4084 	add	a, (hl)
   13B6 5F            [ 4] 4085 	ld	e,a
   13B7 3Es00         [ 7] 4086 	ld	a,#>(_disparosMalos)
   13B9 23            [ 6] 4087 	inc	hl
   13BA 8E            [ 7] 4088 	adc	a, (hl)
   13BB 57            [ 4] 4089 	ld	d,a
   13BC 21 07 00      [10] 4090 	ld	hl,#0x0007
   13BF 19            [11] 4091 	add	hl,de
   13C0 36 01         [10] 4092 	ld	(hl),#0x01
   13C2                    4093 00117$:
                           4094 ;alien6.c:584: for (i=0;i<MAX_DISPAROS_MALOS;i++){
   13C2 21 0F 00      [10] 4095 	ld	hl,#15
   13C5 39            [11] 4096 	add	hl,sp
   13C6 7E            [ 7] 4097 	ld	a,(hl)
   13C7 C6 0F         [ 7] 4098 	add	a, #0x0F
   13C9 77            [ 7] 4099 	ld	(hl),a
   13CA 23            [ 6] 4100 	inc	hl
   13CB 7E            [ 7] 4101 	ld	a,(hl)
   13CC CE 00         [ 7] 4102 	adc	a, #0x00
   13CE 77            [ 7] 4103 	ld	(hl),a
   13CF 21 0D 00      [10] 4104 	ld	hl,#13
   13D2 39            [11] 4105 	add	hl,sp
   13D3 7E            [ 7] 4106 	ld	a,(hl)
   13D4 C6 0F         [ 7] 4107 	add	a, #0x0F
   13D6 77            [ 7] 4108 	ld	(hl),a
   13D7 23            [ 6] 4109 	inc	hl
   13D8 7E            [ 7] 4110 	ld	a,(hl)
   13D9 CE 00         [ 7] 4111 	adc	a, #0x00
   13DB 77            [ 7] 4112 	ld	(hl),a
   13DC FD 21 04 00   [14] 4113 	ld	iy,#4
   13E0 FD 39         [15] 4114 	add	iy,sp
   13E2 FD 34 00      [23] 4115 	inc	0 (iy)
   13E5 C3r47r12      [10] 4116 	jp	00116$
   13E8                    4117 00118$:
   13E8 21 11 00      [10] 4118 	ld	hl,#17
   13EB 39            [11] 4119 	add	hl,sp
   13EC F9            [ 6] 4120 	ld	sp,hl
   13ED C9            [10] 4121 	ret
   13EE                    4122 _moverDisparosMalos_end::
                           4123 ;alien6.c:616: void borrarDisparosMalos(){
                           4124 ;	---------------------------------
                           4125 ; Function borrarDisparosMalos
                           4126 ; ---------------------------------
   13EE                    4127 _borrarDisparosMalos_start::
   13EE                    4128 _borrarDisparosMalos:
   13EE 21 F9 FF      [10] 4129 	ld	hl,#-7
   13F1 39            [11] 4130 	add	hl,sp
   13F2 F9            [ 6] 4131 	ld	sp,hl
                           4132 ;alien6.c:619: if (disparos_malos_activos>0){
   13F3 3ArD8r00      [13] 4133 	ld	a,(#_disparos_malos_activos + 0)
   13F6 B7            [ 4] 4134 	or	a, a
   13F7 CArC5r14      [10] 4135 	jp	Z,00113$
                           4136 ;alien6.c:620: for (k=0;k<MAX_DISPAROS_MALOS;k++){
   13FA FD 21 00 00   [14] 4137 	ld	iy,#0
   13FE FD 39         [15] 4138 	add	iy,sp
   1400 FD 36 00 00   [19] 4139 	ld	0 (iy),#0x00
   1404 21 05 00      [10] 4140 	ld	hl, #5
   1407 39            [11] 4141 	add	hl, sp
   1408 AF            [ 4] 4142 	xor	a, a
   1409 77            [ 7] 4143 	ld	(hl), a
   140A 23            [ 6] 4144 	inc	hl
   140B 77            [ 7] 4145 	ld	(hl), a
   140C                    4146 00111$:
   140C 21rD9r00      [10] 4147 	ld	hl,#_MAX_DISPAROS_MALOS
   140F FD 21 00 00   [14] 4148 	ld	iy,#0
   1413 FD 39         [15] 4149 	add	iy,sp
   1415 FD 7E 00      [19] 4150 	ld	a,0 (iy)
   1418 96            [ 7] 4151 	sub	a, (hl)
   1419 D2rC5r14      [10] 4152 	jp	NC,00113$
                           4153 ;alien6.c:621: if ((disparosMalos[k].activo==1) && (disparosMalos[k].nuevo==0) && (disparosMalos[k].moved)){
   141C 3Er9C         [ 7] 4154 	ld	a,#<(_disparosMalos)
   141E 21 05 00      [10] 4155 	ld	hl,#5
   1421 39            [11] 4156 	add	hl,sp
   1422 86            [ 7] 4157 	add	a, (hl)
   1423 5F            [ 4] 4158 	ld	e,a
   1424 3Es00         [ 7] 4159 	ld	a,#>(_disparosMalos)
   1426 23            [ 6] 4160 	inc	hl
   1427 8E            [ 7] 4161 	adc	a, (hl)
   1428 57            [ 4] 4162 	ld	d,a
   1429 21 06 00      [10] 4163 	ld	hl,#0x0006
   142C 19            [11] 4164 	add	hl,de
   142D FD 21 03 00   [14] 4165 	ld	iy,#3
   1431 FD 39         [15] 4166 	add	iy,sp
   1433 FD 75 00      [19] 4167 	ld	0 (iy),l
   1436 FD 74 01      [19] 4168 	ld	1 (iy),h
   1439 FD 6E 00      [19] 4169 	ld	l,0 (iy)
   143C FD 66 01      [19] 4170 	ld	h,1 (iy)
   143F 7E            [ 7] 4171 	ld	a,(hl)
   1440 3D            [ 4] 4172 	dec	a
   1441 20 69         [12] 4173 	jr	NZ,00112$
   1443 D5            [11] 4174 	push	de
   1444 FD E1         [14] 4175 	pop	iy
   1446 FD 7E 09      [19] 4176 	ld	a,9 (iy)
   1449 B7            [ 4] 4177 	or	a, a
   144A 20 60         [12] 4178 	jr	NZ,00112$
   144C D5            [11] 4179 	push	de
   144D FD E1         [14] 4180 	pop	iy
   144F FD 7E 07      [19] 4181 	ld	a,7 (iy)
   1452 B7            [ 4] 4182 	or	a, a
   1453 28 57         [12] 4183 	jr	Z,00112$
                           4184 ;alien6.c:622: cpc_PutSpXOR(disparosMalos[k].sp0,4,2,direccionLinea[disparosMalos[k].oy]+disparosMalos[k].ox);
   1455 D5            [11] 4185 	push	de
   1456 FD E1         [14] 4186 	pop	iy
   1458 FD 6E 05      [19] 4187 	ld	l,5 (iy)
   145B 26 00         [ 7] 4188 	ld	h,#0x00
   145D 29            [11] 4189 	add	hl, hl
   145E 01rECr05      [10] 4190 	ld	bc,#_direccionLinea
   1461 09            [11] 4191 	add	hl,bc
   1462 4E            [ 7] 4192 	ld	c,(hl)
   1463 23            [ 6] 4193 	inc	hl
   1464 46            [ 7] 4194 	ld	b,(hl)
   1465 D5            [11] 4195 	push	de
   1466 FD E1         [14] 4196 	pop	iy
   1468 FD 6E 04      [19] 4197 	ld	l,4 (iy)
   146B 26 00         [ 7] 4198 	ld	h,#0x00
   146D 09            [11] 4199 	add	hl,bc
   146E 4D            [ 4] 4200 	ld	c,l
   146F 44            [ 4] 4201 	ld	b,h
   1470 6B            [ 4] 4202 	ld	l, e
   1471 62            [ 4] 4203 	ld	h, d
   1472 7E            [ 7] 4204 	ld	a,(hl)
   1473 FD 21 01 00   [14] 4205 	ld	iy,#1
   1477 FD 39         [15] 4206 	add	iy,sp
   1479 FD 77 00      [19] 4207 	ld	0 (iy),a
   147C 23            [ 6] 4208 	inc	hl
   147D 7E            [ 7] 4209 	ld	a,(hl)
   147E FD 77 01      [19] 4210 	ld	1 (iy),a
   1481 D5            [11] 4211 	push	de
   1482 C5            [11] 4212 	push	bc
   1483 21 04 02      [10] 4213 	ld	hl,#0x0204
   1486 E5            [11] 4214 	push	hl
   1487 FD 6E 00      [19] 4215 	ld	l,0 (iy)
   148A FD 66 01      [19] 4216 	ld	h,1 (iy)
   148D E5            [11] 4217 	push	hl
   148E CDr00r00      [17] 4218 	call	_cpc_PutSpXOR
   1491 21 06 00      [10] 4219 	ld	hl,#6
   1494 39            [11] 4220 	add	hl,sp
   1495 F9            [ 6] 4221 	ld	sp,hl
   1496 FD E1         [14] 4222 	pop	iy
   1498 FD 7E 0A      [19] 4223 	ld	a,10 (iy)
   149B B7            [ 4] 4224 	or	a, a
   149C 28 0E         [12] 4225 	jr	Z,00112$
                           4226 ;alien6.c:624: disparosMalos[k].activo=0;
   149E 21 03 00      [10] 4227 	ld	hl, #3
   14A1 39            [11] 4228 	add	hl, sp
   14A2 7E            [ 7] 4229 	ld	a, (hl)
   14A3 23            [ 6] 4230 	inc	hl
   14A4 66            [ 7] 4231 	ld	h, (hl)
   14A5 6F            [ 4] 4232 	ld	l, a
   14A6 36 00         [10] 4233 	ld	(hl),#0x00
                           4234 ;alien6.c:625: disparos_malos_activos--;
   14A8 21rD8r00      [10] 4235 	ld	hl, #_disparos_malos_activos+0
   14AB 35            [11] 4236 	dec	(hl)
   14AC                    4237 00112$:
                           4238 ;alien6.c:620: for (k=0;k<MAX_DISPAROS_MALOS;k++){
   14AC 21 05 00      [10] 4239 	ld	hl,#5
   14AF 39            [11] 4240 	add	hl,sp
   14B0 7E            [ 7] 4241 	ld	a,(hl)
   14B1 C6 0F         [ 7] 4242 	add	a, #0x0F
   14B3 77            [ 7] 4243 	ld	(hl),a
   14B4 23            [ 6] 4244 	inc	hl
   14B5 7E            [ 7] 4245 	ld	a,(hl)
   14B6 CE 00         [ 7] 4246 	adc	a, #0x00
   14B8 77            [ 7] 4247 	ld	(hl),a
   14B9 FD 21 00 00   [14] 4248 	ld	iy,#0
   14BD FD 39         [15] 4249 	add	iy,sp
   14BF FD 34 00      [23] 4250 	inc	0 (iy)
   14C2 C3r0Cr14      [10] 4251 	jp	00111$
   14C5                    4252 00113$:
   14C5 21 07 00      [10] 4253 	ld	hl,#7
   14C8 39            [11] 4254 	add	hl,sp
   14C9 F9            [ 6] 4255 	ld	sp,hl
   14CA C9            [10] 4256 	ret
   14CB                    4257 _borrarDisparosMalos_end::
                           4258 ;alien6.c:632: void pintarDisparosMalos(){
                           4259 ;	---------------------------------
                           4260 ; Function pintarDisparosMalos
                           4261 ; ---------------------------------
   14CB                    4262 _pintarDisparosMalos_start::
   14CB                    4263 _pintarDisparosMalos:
   14CB 21 F5 FF      [10] 4264 	ld	hl,#-11
   14CE 39            [11] 4265 	add	hl,sp
   14CF F9            [ 6] 4266 	ld	sp,hl
                           4267 ;alien6.c:635: if (disparos_malos_activos>0){
   14D0 3ArD8r00      [13] 4268 	ld	a,(#_disparos_malos_activos + 0)
   14D3 B7            [ 4] 4269 	or	a, a
   14D4 CAr3Dr16      [10] 4270 	jp	Z,00113$
                           4271 ;alien6.c:636: for (k=0;k<MAX_DISPAROS_MALOS;k++){
   14D7 FD 21 00 00   [14] 4272 	ld	iy,#0
   14DB FD 39         [15] 4273 	add	iy,sp
   14DD FD 36 00 00   [19] 4274 	ld	0 (iy),#0x00
   14E1 21 09 00      [10] 4275 	ld	hl, #9
   14E4 39            [11] 4276 	add	hl, sp
   14E5 AF            [ 4] 4277 	xor	a, a
   14E6 77            [ 7] 4278 	ld	(hl), a
   14E7 23            [ 6] 4279 	inc	hl
   14E8 77            [ 7] 4280 	ld	(hl), a
   14E9 21 07 00      [10] 4281 	ld	hl, #7
   14EC 39            [11] 4282 	add	hl, sp
   14ED AF            [ 4] 4283 	xor	a, a
   14EE 77            [ 7] 4284 	ld	(hl), a
   14EF 23            [ 6] 4285 	inc	hl
   14F0 77            [ 7] 4286 	ld	(hl), a
   14F1                    4287 00111$:
   14F1 21rD9r00      [10] 4288 	ld	hl,#_MAX_DISPAROS_MALOS
   14F4 FD 21 00 00   [14] 4289 	ld	iy,#0
   14F8 FD 39         [15] 4290 	add	iy,sp
   14FA FD 7E 00      [19] 4291 	ld	a,0 (iy)
   14FD 96            [ 7] 4292 	sub	a, (hl)
   14FE D2r3Dr16      [10] 4293 	jp	NC,00113$
                           4294 ;alien6.c:637: if ((disparosMalos[k].activo==1) && (disparosMalos[k].moved) && (!disparosMalos[k].dead)){
   1501 3Er9C         [ 7] 4295 	ld	a,#<(_disparosMalos)
   1503 21 07 00      [10] 4296 	ld	hl,#7
   1506 39            [11] 4297 	add	hl,sp
   1507 FD 21 05 00   [14] 4298 	ld	iy,#5
   150B FD 39         [15] 4299 	add	iy,sp
   150D 86            [ 7] 4300 	add	a, (hl)
   150E FD 77 00      [19] 4301 	ld	0 (iy),a
   1511 3Es00         [ 7] 4302 	ld	a,#>(_disparosMalos)
   1513 23            [ 6] 4303 	inc	hl
   1514 8E            [ 7] 4304 	adc	a, (hl)
   1515 FD 23         [10] 4305 	inc	iy
   1517 FD 77 00      [19] 4306 	ld	0 (iy),a
   151A FD 21 05 00   [14] 4307 	ld	iy,#5
   151E FD 39         [15] 4308 	add	iy,sp
   1520 FD 6E 00      [19] 4309 	ld	l,0 (iy)
   1523 FD 66 01      [19] 4310 	ld	h,1 (iy)
   1526 11 06 00      [10] 4311 	ld	de, #0x0006
   1529 19            [11] 4312 	add	hl, de
   152A 7E            [ 7] 4313 	ld	a,(hl)
   152B 3D            [ 4] 4314 	dec	a
   152C C2r17r16      [10] 4315 	jp	NZ,00112$
   152F FD 6E 00      [19] 4316 	ld	l,0 (iy)
   1532 FD 66 01      [19] 4317 	ld	h,1 (iy)
   1535 11 07 00      [10] 4318 	ld	de, #0x0007
   1538 19            [11] 4319 	add	hl, de
   1539 7E            [ 7] 4320 	ld	a,(hl)
   153A B7            [ 4] 4321 	or	a, a
   153B CAr17r16      [10] 4322 	jp	Z,00112$
   153E FD 6E 00      [19] 4323 	ld	l,0 (iy)
   1541 FD 66 01      [19] 4324 	ld	h,1 (iy)
   1544 11 0A 00      [10] 4325 	ld	de, #0x000A
   1547 19            [11] 4326 	add	hl, de
   1548 7E            [ 7] 4327 	ld	a,(hl)
   1549 B7            [ 4] 4328 	or	a, a
   154A C2r17r16      [10] 4329 	jp	NZ,00112$
                           4330 ;alien6.c:638: cpc_PutSpXOR(disparosMalos[k].sp0,4,2,direccionLinea[disparosMalos[k].cy]+disparosMalos[k].cx);
   154D 21 03 00      [10] 4331 	ld	hl,#3
   1550 39            [11] 4332 	add	hl,sp
   1551 FD 7E 00      [19] 4333 	ld	a,0 (iy)
   1554 C6 03         [ 7] 4334 	add	a, #0x03
   1556 77            [ 7] 4335 	ld	(hl),a
   1557 FD 7E 01      [19] 4336 	ld	a,1 (iy)
   155A CE 00         [ 7] 4337 	adc	a, #0x00
   155C 23            [ 6] 4338 	inc	hl
   155D 77            [ 7] 4339 	ld	(hl),a
   155E 21 03 00      [10] 4340 	ld	hl, #3
   1561 39            [11] 4341 	add	hl, sp
   1562 7E            [ 7] 4342 	ld	a, (hl)
   1563 23            [ 6] 4343 	inc	hl
   1564 66            [ 7] 4344 	ld	h, (hl)
   1565 6F            [ 4] 4345 	ld	l, a
   1566 6E            [ 7] 4346 	ld	l,(hl)
   1567 26 00         [ 7] 4347 	ld	h,#0x00
   1569 29            [11] 4348 	add	hl, hl
   156A 11rECr05      [10] 4349 	ld	de,#_direccionLinea
   156D 19            [11] 4350 	add	hl,de
   156E 5E            [ 7] 4351 	ld	e,(hl)
   156F 23            [ 6] 4352 	inc	hl
   1570 56            [ 7] 4353 	ld	d,(hl)
   1571 FD 21 05 00   [14] 4354 	ld	iy,#5
   1575 FD 39         [15] 4355 	add	iy,sp
   1577 FD 4E 00      [19] 4356 	ld	c,0 (iy)
   157A FD 46 01      [19] 4357 	ld	b,1 (iy)
   157D 03            [ 6] 4358 	inc	bc
   157E 03            [ 6] 4359 	inc	bc
   157F 0A            [ 7] 4360 	ld	a,(bc)
   1580 6F            [ 4] 4361 	ld	l,a
   1581 26 00         [ 7] 4362 	ld	h,#0x00
   1583 19            [11] 4363 	add	hl,de
   1584 EB            [ 4] 4364 	ex	de,hl
   1585 FD 6E 00      [19] 4365 	ld	l,0 (iy)
   1588 FD 66 01      [19] 4366 	ld	h,1 (iy)
   158B 7E            [ 7] 4367 	ld	a,(hl)
   158C FD 21 01 00   [14] 4368 	ld	iy,#1
   1590 FD 39         [15] 4369 	add	iy,sp
   1592 FD 77 00      [19] 4370 	ld	0 (iy),a
   1595 23            [ 6] 4371 	inc	hl
   1596 7E            [ 7] 4372 	ld	a,(hl)
   1597 FD 77 01      [19] 4373 	ld	1 (iy),a
   159A C5            [11] 4374 	push	bc
   159B D5            [11] 4375 	push	de
   159C 21 04 02      [10] 4376 	ld	hl,#0x0204
   159F E5            [11] 4377 	push	hl
   15A0 FD 6E 00      [19] 4378 	ld	l,0 (iy)
   15A3 FD 66 01      [19] 4379 	ld	h,1 (iy)
   15A6 E5            [11] 4380 	push	hl
   15A7 CDr00r00      [17] 4381 	call	_cpc_PutSpXOR
   15AA 21 06 00      [10] 4382 	ld	hl,#6
   15AD 39            [11] 4383 	add	hl,sp
   15AE F9            [ 6] 4384 	ld	sp,hl
   15AF C1            [10] 4385 	pop	bc
                           4386 ;alien6.c:639: disparosMalos[k].ox=disparosMalos[k].cx;
   15B0 FD 21 05 00   [14] 4387 	ld	iy,#5
   15B4 FD 39         [15] 4388 	add	iy,sp
   15B6 FD 7E 00      [19] 4389 	ld	a,0 (iy)
   15B9 C6 04         [ 7] 4390 	add	a, #0x04
   15BB 5F            [ 4] 4391 	ld	e,a
   15BC FD 7E 01      [19] 4392 	ld	a,1 (iy)
   15BF CE 00         [ 7] 4393 	adc	a, #0x00
   15C1 57            [ 4] 4394 	ld	d,a
   15C2 0A            [ 7] 4395 	ld	a,(bc)
   15C3 12            [ 7] 4396 	ld	(de),a
                           4397 ;alien6.c:640: disparosMalos[k].oy=disparosMalos[k].cy;
   15C4 FD 7E 00      [19] 4398 	ld	a,0 (iy)
   15C7 C6 05         [ 7] 4399 	add	a, #0x05
   15C9 5F            [ 4] 4400 	ld	e,a
   15CA FD 7E 01      [19] 4401 	ld	a,1 (iy)
   15CD CE 00         [ 7] 4402 	adc	a, #0x00
   15CF 57            [ 4] 4403 	ld	d,a
   15D0 21 03 00      [10] 4404 	ld	hl, #3
   15D3 39            [11] 4405 	add	hl, sp
   15D4 7E            [ 7] 4406 	ld	a, (hl)
   15D5 23            [ 6] 4407 	inc	hl
   15D6 66            [ 7] 4408 	ld	h, (hl)
   15D7 6F            [ 4] 4409 	ld	l, a
   15D8 7E            [ 7] 4410 	ld	a,(hl)
   15D9 12            [ 7] 4411 	ld	(de),a
                           4412 ;alien6.c:641: if (disparosMalos[k].nuevo) 
   15DA FD 21 05 00   [14] 4413 	ld	iy,#5
   15DE FD 39         [15] 4414 	add	iy,sp
   15E0 FD 7E 00      [19] 4415 	ld	a,0 (iy)
   15E3 C6 09         [ 7] 4416 	add	a, #0x09
   15E5 5F            [ 4] 4417 	ld	e,a
   15E6 FD 7E 01      [19] 4418 	ld	a,1 (iy)
   15E9 CE 00         [ 7] 4419 	adc	a, #0x00
   15EB 57            [ 4] 4420 	ld	d,a
   15EC 1A            [ 7] 4421 	ld	a,(de)
   15ED B7            [ 4] 4422 	or	a, a
   15EE 28 02         [12] 4423 	jr	Z,00102$
                           4424 ;alien6.c:642: disparosMalos[k].nuevo=0;
   15F0 AF            [ 4] 4425 	xor	a, a
   15F1 12            [ 7] 4426 	ld	(de),a
   15F2                    4427 00102$:
                           4428 ;alien6.c:643: disparosMalos[k].moved=0;
   15F2 3Er9C         [ 7] 4429 	ld	a,#<(_disparosMalos)
   15F4 21 09 00      [10] 4430 	ld	hl,#9
   15F7 39            [11] 4431 	add	hl,sp
   15F8 86            [ 7] 4432 	add	a, (hl)
   15F9 5F            [ 4] 4433 	ld	e,a
   15FA 3Es00         [ 7] 4434 	ld	a,#>(_disparosMalos)
   15FC 23            [ 6] 4435 	inc	hl
   15FD 8E            [ 7] 4436 	adc	a, (hl)
   15FE 57            [ 4] 4437 	ld	d,a
   15FF 21 07 00      [10] 4438 	ld	hl,#0x0007
   1602 19            [11] 4439 	add	hl,de
   1603 36 00         [10] 4440 	ld	(hl),#0x00
                           4441 ;alien6.c:644: disparosMalos[k].lastmoved=getTime();
   1605 21 0B 00      [10] 4442 	ld	hl,#0x000B
   1608 19            [11] 4443 	add	hl,de
   1609 E5            [11] 4444 	push	hl
   160A CDr89r07      [17] 4445 	call	_getTime
   160D 4D            [ 4] 4446 	ld	c,l
   160E 44            [ 4] 4447 	ld	b,h
   160F E1            [10] 4448 	pop	hl
   1610 71            [ 7] 4449 	ld	(hl),c
   1611 23            [ 6] 4450 	inc	hl
   1612 70            [ 7] 4451 	ld	(hl),b
   1613 23            [ 6] 4452 	inc	hl
   1614 73            [ 7] 4453 	ld	(hl),e
   1615 23            [ 6] 4454 	inc	hl
   1616 72            [ 7] 4455 	ld	(hl),d
   1617                    4456 00112$:
                           4457 ;alien6.c:636: for (k=0;k<MAX_DISPAROS_MALOS;k++){
   1617 21 09 00      [10] 4458 	ld	hl,#9
   161A 39            [11] 4459 	add	hl,sp
   161B 7E            [ 7] 4460 	ld	a,(hl)
   161C C6 0F         [ 7] 4461 	add	a, #0x0F
   161E 77            [ 7] 4462 	ld	(hl),a
   161F 23            [ 6] 4463 	inc	hl
   1620 7E            [ 7] 4464 	ld	a,(hl)
   1621 CE 00         [ 7] 4465 	adc	a, #0x00
   1623 77            [ 7] 4466 	ld	(hl),a
   1624 21 07 00      [10] 4467 	ld	hl,#7
   1627 39            [11] 4468 	add	hl,sp
   1628 7E            [ 7] 4469 	ld	a,(hl)
   1629 C6 0F         [ 7] 4470 	add	a, #0x0F
   162B 77            [ 7] 4471 	ld	(hl),a
   162C 23            [ 6] 4472 	inc	hl
   162D 7E            [ 7] 4473 	ld	a,(hl)
   162E CE 00         [ 7] 4474 	adc	a, #0x00
   1630 77            [ 7] 4475 	ld	(hl),a
   1631 FD 21 00 00   [14] 4476 	ld	iy,#0
   1635 FD 39         [15] 4477 	add	iy,sp
   1637 FD 34 00      [23] 4478 	inc	0 (iy)
   163A C3rF1r14      [10] 4479 	jp	00111$
   163D                    4480 00113$:
   163D 21 0B 00      [10] 4481 	ld	hl,#11
   1640 39            [11] 4482 	add	hl,sp
   1641 F9            [ 6] 4483 	ld	sp,hl
   1642 C9            [10] 4484 	ret
   1643                    4485 _pintarDisparosMalos_end::
                           4486 ;alien6.c:655: void inicializarAddones(){
                           4487 ;	---------------------------------
                           4488 ; Function inicializarAddones
                           4489 ; ---------------------------------
   1643                    4490 _inicializarAddones_start::
   1643                    4491 _inicializarAddones:
                           4492 ;alien6.c:657: for (i=0;i<MAX_ADDONES;i++){
   1643 16 00         [ 7] 4493 	ld	d,#0x00
   1645 01 00 00      [10] 4494 	ld	bc,#0x0000
   1648                    4495 00102$:
                           4496 ;alien6.c:658: addones[i].activo=0;
   1648 21rB4r02      [10] 4497 	ld	hl,#_addones
   164B 09            [11] 4498 	add	hl,bc
   164C 36 00         [10] 4499 	ld	(hl),#0x00
                           4500 ;alien6.c:657: for (i=0;i<MAX_ADDONES;i++){
   164E 21 0A 00      [10] 4501 	ld	hl,#0x000A
   1651 09            [11] 4502 	add	hl,bc
   1652 4D            [ 4] 4503 	ld	c,l
   1653 44            [ 4] 4504 	ld	b,h
   1654 14            [ 4] 4505 	inc	d
   1655 7A            [ 4] 4506 	ld	a,d
   1656 D6 02         [ 7] 4507 	sub	a, #0x02
   1658 38 EE         [12] 4508 	jr	C,00102$
                           4509 ;alien6.c:660: addones_activos=0;
   165A 21rC8r02      [10] 4510 	ld	hl,#_addones_activos + 0
   165D 36 00         [10] 4511 	ld	(hl), #0x00
                           4512 ;alien6.c:662: addon_sprite[0]=&addones000;
   165F 21rDCr02      [10] 4513 	ld	hl,#_addones000
   1662 22rC9r02      [16] 4514 	ld	(_addon_sprite), hl
                           4515 ;alien6.c:663: addon_sprite[1]=&addones001;
   1665 21rFCr02      [10] 4516 	ld	hl,#_addones001
   1668 22rCBr02      [16] 4517 	ld	((_addon_sprite + 0x0002)), hl
                           4518 ;alien6.c:664: addon_sprite[2]=&addones002;
   166B 21r1Cr03      [10] 4519 	ld	hl,#_addones002
   166E 22rCDr02      [16] 4520 	ld	((_addon_sprite + 0x0004)), hl
                           4521 ;alien6.c:665: addon_sprite[3]=&addones003;
   1671 21r3Cr03      [10] 4522 	ld	hl,#_addones003
   1674 22rCFr02      [16] 4523 	ld	((_addon_sprite + 0x0006)), hl
   1677 C9            [10] 4524 	ret
   1678                    4525 _inicializarAddones_end::
                           4526 ;alien6.c:668: void crearAddon(unsigned char posx, unsigned char posy){
                           4527 ;	---------------------------------
                           4528 ; Function crearAddon
                           4529 ; ---------------------------------
   1678                    4530 _crearAddon_start::
   1678                    4531 _crearAddon:
   1678 F5            [11] 4532 	push	af
   1679 F5            [11] 4533 	push	af
                           4534 ;alien6.c:672: while (addones[i].activo==1){
   167A 01rB4r02      [10] 4535 	ld	bc,#_addones+0
   167D FD 21 00 00   [14] 4536 	ld	iy,#0
   1681 FD 39         [15] 4537 	add	iy,sp
   1683 FD 36 00 00   [19] 4538 	ld	0 (iy),#0x00
   1687 11 00 00      [10] 4539 	ld	de,#0x0000
   168A                    4540 00101$:
   168A 79            [ 4] 4541 	ld	a,c
   168B 21 02 00      [10] 4542 	ld	hl,#2
   168E 39            [11] 4543 	add	hl,sp
   168F 83            [ 4] 4544 	add	a, e
   1690 77            [ 7] 4545 	ld	(hl),a
   1691 78            [ 4] 4546 	ld	a,b
   1692 8A            [ 4] 4547 	adc	a, d
   1693 23            [ 6] 4548 	inc	hl
   1694 77            [ 7] 4549 	ld	(hl),a
   1695 21 02 00      [10] 4550 	ld	hl, #2
   1698 39            [11] 4551 	add	hl, sp
   1699 7E            [ 7] 4552 	ld	a, (hl)
   169A 23            [ 6] 4553 	inc	hl
   169B 66            [ 7] 4554 	ld	h, (hl)
   169C 6F            [ 4] 4555 	ld	l, a
   169D 7E            [ 7] 4556 	ld	a,(hl)
   169E 3D            [ 4] 4557 	dec	a
   169F 20 10         [12] 4558 	jr	NZ,00123$
                           4559 ;alien6.c:673: i++;
   16A1 21 0A 00      [10] 4560 	ld	hl,#0x000A
   16A4 19            [11] 4561 	add	hl,de
   16A5 EB            [ 4] 4562 	ex	de,hl
   16A6 FD 21 00 00   [14] 4563 	ld	iy,#0
   16AA FD 39         [15] 4564 	add	iy,sp
   16AC FD 34 00      [23] 4565 	inc	0 (iy)
   16AF 18 D9         [12] 4566 	jr	00101$
   16B1                    4567 00123$:
   16B1 21 00 00      [10] 4568 	ld	hl, #0+0
   16B4 39            [11] 4569 	add	hl, sp
   16B5 7E            [ 7] 4570 	ld	a, (hl)
   16B6 FD 21 01 00   [14] 4571 	ld	iy,#1
   16BA FD 39         [15] 4572 	add	iy,sp
   16BC FD 77 00      [19] 4573 	ld	0 (iy),a
                           4574 ;alien6.c:675: if (i<MAX_ADDONES){
   16BF 21 00 00      [10] 4575 	ld	hl, #0+0
   16C2 39            [11] 4576 	add	hl, sp
   16C3 7E            [ 7] 4577 	ld	a, (hl)
   16C4 D6 02         [ 7] 4578 	sub	a, #0x02
   16C6 D2r47r17      [10] 4579 	jp	NC,00115$
                           4580 ;alien6.c:677: addones[i].activo=1;
   16C9 21 02 00      [10] 4581 	ld	hl, #2
   16CC 39            [11] 4582 	add	hl, sp
   16CD 7E            [ 7] 4583 	ld	a, (hl)
   16CE 23            [ 6] 4584 	inc	hl
   16CF 66            [ 7] 4585 	ld	h, (hl)
   16D0 6F            [ 4] 4586 	ld	l, a
   16D1 36 01         [10] 4587 	ld	(hl),#0x01
                           4588 ;alien6.c:679: aux=cpc_Random();
   16D3 C5            [11] 4589 	push	bc
   16D4 CDr00r00      [17] 4590 	call	_cpc_Random
   16D7 C1            [10] 4591 	pop	bc
   16D8 55            [ 4] 4592 	ld	d,l
                           4593 ;alien6.c:681: addones[i].tipo=0;
   16D9 21 02 00      [10] 4594 	ld	hl, #2
   16DC 39            [11] 4595 	add	hl, sp
   16DD 7E            [ 7] 4596 	ld	a, (hl)
   16DE 23            [ 6] 4597 	inc	hl
   16DF 66            [ 7] 4598 	ld	h, (hl)
   16E0 6F            [ 4] 4599 	ld	l, a
   16E1 23            [ 6] 4600 	inc	hl
                           4601 ;alien6.c:680: if (aux<108)
   16E2 7A            [ 4] 4602 	ld	a,d
   16E3 D6 6C         [ 7] 4603 	sub	a, #0x6C
   16E5 30 04         [12] 4604 	jr	NC,00111$
                           4605 ;alien6.c:681: addones[i].tipo=0;
   16E7 36 00         [10] 4606 	ld	(hl),#0x00
   16E9 18 14         [12] 4607 	jr	00112$
   16EB                    4608 00111$:
                           4609 ;alien6.c:682: else if (aux<216)
   16EB 7A            [ 4] 4610 	ld	a,d
   16EC D6 D8         [ 7] 4611 	sub	a, #0xD8
   16EE 30 04         [12] 4612 	jr	NC,00108$
                           4613 ;alien6.c:683: addones[i].tipo=1;
   16F0 36 01         [10] 4614 	ld	(hl),#0x01
   16F2 18 0B         [12] 4615 	jr	00112$
   16F4                    4616 00108$:
                           4617 ;alien6.c:684: else if (aux<243)
   16F4 7A            [ 4] 4618 	ld	a,d
   16F5 D6 F3         [ 7] 4619 	sub	a, #0xF3
   16F7 30 04         [12] 4620 	jr	NC,00105$
                           4621 ;alien6.c:685: addones[i].tipo=2;
   16F9 36 02         [10] 4622 	ld	(hl),#0x02
   16FB 18 02         [12] 4623 	jr	00112$
   16FD                    4624 00105$:
                           4625 ;alien6.c:687: addones[i].tipo=3;
   16FD 36 03         [10] 4626 	ld	(hl),#0x03
   16FF                    4627 00112$:
                           4628 ;alien6.c:688: addones[i].x=posx;
   16FF 21 01 00      [10] 4629 	ld	hl, #1+0
   1702 39            [11] 4630 	add	hl, sp
   1703 5E            [ 7] 4631 	ld	e, (hl)
   1704 16 00         [ 7] 4632 	ld	d,#0x00
   1706 6B            [ 4] 4633 	ld	l, e
   1707 62            [ 4] 4634 	ld	h, d
   1708 29            [11] 4635 	add	hl, hl
   1709 29            [11] 4636 	add	hl, hl
   170A 19            [11] 4637 	add	hl, de
   170B 29            [11] 4638 	add	hl, hl
   170C 09            [11] 4639 	add	hl,bc
   170D 5D            [ 4] 4640 	ld	e,l
   170E 54            [ 4] 4641 	ld	d,h
   170F 23            [ 6] 4642 	inc	hl
   1710 23            [ 6] 4643 	inc	hl
   1711 FD 21 06 00   [14] 4644 	ld	iy,#6
   1715 FD 39         [15] 4645 	add	iy,sp
   1717 FD 7E 00      [19] 4646 	ld	a,0 (iy)
   171A 77            [ 7] 4647 	ld	(hl),a
                           4648 ;alien6.c:689: addones[i].y=posy+10;
   171B 4B            [ 4] 4649 	ld	c, e
   171C 42            [ 4] 4650 	ld	b, d
   171D 03            [ 6] 4651 	inc	bc
   171E 03            [ 6] 4652 	inc	bc
   171F 03            [ 6] 4653 	inc	bc
   1720 21 07 00      [10] 4654 	ld	hl, #7+0
   1723 39            [11] 4655 	add	hl, sp
   1724 7E            [ 7] 4656 	ld	a, (hl)
   1725 C6 0A         [ 7] 4657 	add	a, #0x0A
   1727 02            [ 7] 4658 	ld	(bc),a
                           4659 ;alien6.c:690: addones[i].moved=0;
   1728 21 04 00      [10] 4660 	ld	hl,#0x0004
   172B 19            [11] 4661 	add	hl,de
   172C 36 00         [10] 4662 	ld	(hl),#0x00
                           4663 ;alien6.c:691: addones[i].lastmoved=0;
   172E 21 06 00      [10] 4664 	ld	hl,#0x0006
   1731 19            [11] 4665 	add	hl,de
   1732 36 00         [10] 4666 	ld	(hl),#0x00
   1734 23            [ 6] 4667 	inc	hl
   1735 36 00         [10] 4668 	ld	(hl),#0x00
   1737 23            [ 6] 4669 	inc	hl
   1738 36 00         [10] 4670 	ld	(hl),#0x00
   173A 23            [ 6] 4671 	inc	hl
   173B 36 00         [10] 4672 	ld	(hl),#0x00
                           4673 ;alien6.c:692: addones[i].speed=40;
   173D 21 05 00      [10] 4674 	ld	hl,#0x0005
   1740 19            [11] 4675 	add	hl,de
   1741 36 28         [10] 4676 	ld	(hl),#0x28
                           4677 ;alien6.c:694: addones_activos++;
   1743 21rC8r02      [10] 4678 	ld	hl, #_addones_activos+0
   1746 34            [11] 4679 	inc	(hl)
   1747                    4680 00115$:
   1747 F1            [10] 4681 	pop	af
   1748 F1            [10] 4682 	pop	af
   1749 C9            [10] 4683 	ret
   174A                    4684 _crearAddon_end::
                           4685 ;alien6.c:698: void borrarAddones(){
                           4686 ;	---------------------------------
                           4687 ; Function borrarAddones
                           4688 ; ---------------------------------
   174A                    4689 _borrarAddones_start::
   174A                    4690 _borrarAddones:
   174A F5            [11] 4691 	push	af
   174B F5            [11] 4692 	push	af
   174C 3B            [ 6] 4693 	dec	sp
                           4694 ;alien6.c:700: if (addones_activos>0){
   174D 3ArC8r02      [13] 4695 	ld	a,(#_addones_activos + 0)
   1750 B7            [ 4] 4696 	or	a, a
   1751 CArFCr17      [10] 4697 	jp	Z,00109$
                           4698 ;alien6.c:701: for (i=0;i<MAX_ADDONES;i++){
   1754 FD 21 00 00   [14] 4699 	ld	iy,#0
   1758 FD 39         [15] 4700 	add	iy,sp
   175A FD 36 00 00   [19] 4701 	ld	0 (iy),#0x00
   175E 21 03 00      [10] 4702 	ld	hl, #3
   1761 39            [11] 4703 	add	hl, sp
   1762 AF            [ 4] 4704 	xor	a, a
   1763 77            [ 7] 4705 	ld	(hl), a
   1764 23            [ 6] 4706 	inc	hl
   1765 77            [ 7] 4707 	ld	(hl), a
   1766                    4708 00107$:
                           4709 ;alien6.c:702: if ((addones[i].activo==1) && (addones[i].moved)){
   1766 3ErB4         [ 7] 4710 	ld	a,#<(_addones)
   1768 21 03 00      [10] 4711 	ld	hl,#3
   176B 39            [11] 4712 	add	hl,sp
   176C FD 21 01 00   [14] 4713 	ld	iy,#1
   1770 FD 39         [15] 4714 	add	iy,sp
   1772 86            [ 7] 4715 	add	a, (hl)
   1773 FD 77 00      [19] 4716 	ld	0 (iy),a
   1776 3Es02         [ 7] 4717 	ld	a,#>(_addones)
   1778 23            [ 6] 4718 	inc	hl
   1779 8E            [ 7] 4719 	adc	a, (hl)
   177A FD 23         [10] 4720 	inc	iy
   177C FD 77 00      [19] 4721 	ld	0 (iy),a
   177F FD 21 01 00   [14] 4722 	ld	iy,#1
   1783 FD 39         [15] 4723 	add	iy,sp
   1785 FD 6E 00      [19] 4724 	ld	l,0 (iy)
   1788 FD 66 01      [19] 4725 	ld	h,1 (iy)
   178B 7E            [ 7] 4726 	ld	a,(hl)
   178C 3D            [ 4] 4727 	dec	a
   178D 20 4F         [12] 4728 	jr	NZ,00108$
   178F FD 6E 00      [19] 4729 	ld	l,0 (iy)
   1792 FD 66 01      [19] 4730 	ld	h,1 (iy)
   1795 11 04 00      [10] 4731 	ld	de, #0x0004
   1798 19            [11] 4732 	add	hl, de
   1799 7E            [ 7] 4733 	ld	a,(hl)
   179A B7            [ 4] 4734 	or	a, a
   179B 28 41         [12] 4735 	jr	Z,00108$
                           4736 ;alien6.c:703: cpc_PutSpXOR(addon_sprite[addones[i].tipo],6,3,direccionLinea[addones[i].y]+addones[i].x);
   179D FD 6E 00      [19] 4737 	ld	l,0 (iy)
   17A0 FD 66 01      [19] 4738 	ld	h,1 (iy)
   17A3 23            [ 6] 4739 	inc	hl
   17A4 23            [ 6] 4740 	inc	hl
   17A5 23            [ 6] 4741 	inc	hl
   17A6 6E            [ 7] 4742 	ld	l,(hl)
   17A7 26 00         [ 7] 4743 	ld	h,#0x00
   17A9 29            [11] 4744 	add	hl, hl
   17AA 11rECr05      [10] 4745 	ld	de,#_direccionLinea
   17AD 19            [11] 4746 	add	hl,de
   17AE 5E            [ 7] 4747 	ld	e,(hl)
   17AF 23            [ 6] 4748 	inc	hl
   17B0 56            [ 7] 4749 	ld	d,(hl)
   17B1 FD 6E 00      [19] 4750 	ld	l,0 (iy)
   17B4 FD 66 01      [19] 4751 	ld	h,1 (iy)
   17B7 23            [ 6] 4752 	inc	hl
   17B8 23            [ 6] 4753 	inc	hl
   17B9 6E            [ 7] 4754 	ld	l,(hl)
   17BA 26 00         [ 7] 4755 	ld	h,#0x00
   17BC 19            [11] 4756 	add	hl,de
   17BD EB            [ 4] 4757 	ex	de,hl
   17BE FD 6E 00      [19] 4758 	ld	l,0 (iy)
   17C1 FD 66 01      [19] 4759 	ld	h,1 (iy)
   17C4 23            [ 6] 4760 	inc	hl
   17C5 6E            [ 7] 4761 	ld	l,(hl)
   17C6 26 00         [ 7] 4762 	ld	h,#0x00
   17C8 29            [11] 4763 	add	hl, hl
   17C9 01rC9r02      [10] 4764 	ld	bc,#_addon_sprite
   17CC 09            [11] 4765 	add	hl,bc
   17CD 4E            [ 7] 4766 	ld	c,(hl)
   17CE 23            [ 6] 4767 	inc	hl
   17CF 46            [ 7] 4768 	ld	b,(hl)
   17D0 D5            [11] 4769 	push	de
   17D1 21 06 03      [10] 4770 	ld	hl,#0x0306
   17D4 E5            [11] 4771 	push	hl
   17D5 C5            [11] 4772 	push	bc
   17D6 CDr00r00      [17] 4773 	call	_cpc_PutSpXOR
   17D9 21 06 00      [10] 4774 	ld	hl,#6
   17DC 39            [11] 4775 	add	hl,sp
   17DD F9            [ 6] 4776 	ld	sp,hl
   17DE                    4777 00108$:
                           4778 ;alien6.c:701: for (i=0;i<MAX_ADDONES;i++){
   17DE 21 03 00      [10] 4779 	ld	hl,#3
   17E1 39            [11] 4780 	add	hl,sp
   17E2 7E            [ 7] 4781 	ld	a,(hl)
   17E3 C6 0A         [ 7] 4782 	add	a, #0x0A
   17E5 77            [ 7] 4783 	ld	(hl),a
   17E6 23            [ 6] 4784 	inc	hl
   17E7 7E            [ 7] 4785 	ld	a,(hl)
   17E8 CE 00         [ 7] 4786 	adc	a, #0x00
   17EA 77            [ 7] 4787 	ld	(hl),a
   17EB FD 21 00 00   [14] 4788 	ld	iy,#0
   17EF FD 39         [15] 4789 	add	iy,sp
   17F1 FD 34 00      [23] 4790 	inc	0 (iy)
   17F4 FD 7E 00      [19] 4791 	ld	a,0 (iy)
   17F7 D6 02         [ 7] 4792 	sub	a, #0x02
   17F9 DAr66r17      [10] 4793 	jp	C,00107$
   17FC                    4794 00109$:
   17FC F1            [10] 4795 	pop	af
   17FD F1            [10] 4796 	pop	af
   17FE 33            [ 6] 4797 	inc	sp
   17FF C9            [10] 4798 	ret
   1800                    4799 _borrarAddones_end::
                           4800 ;alien6.c:709: void moverAddones(){
                           4801 ;	---------------------------------
                           4802 ; Function moverAddones
                           4803 ; ---------------------------------
   1800                    4804 _moverAddones_start::
   1800                    4805 _moverAddones:
   1800 21 F3 FF      [10] 4806 	ld	hl,#-13
   1803 39            [11] 4807 	add	hl,sp
   1804 F9            [ 6] 4808 	ld	sp,hl
                           4809 ;alien6.c:713: lapso=getTime();
   1805 CDr89r07      [17] 4810 	call	_getTime
   1808 FD 21 00 00   [14] 4811 	ld	iy,#0
   180C FD 39         [15] 4812 	add	iy,sp
   180E FD 75 00      [19] 4813 	ld	0 (iy),l
   1811 FD 74 01      [19] 4814 	ld	1 (iy),h
   1814 FD 73 02      [19] 4815 	ld	2 (iy),e
   1817 FD 72 03      [19] 4816 	ld	3 (iy),d
                           4817 ;alien6.c:714: if (addones_activos>0){
   181A 3ArC8r02      [13] 4818 	ld	a,(#_addones_activos + 0)
   181D B7            [ 4] 4819 	or	a, a
   181E CAr00r19      [10] 4820 	jp	Z,00111$
                           4821 ;alien6.c:715: for (i=0;i<MAX_ADDONES;i++){
   1821 FD 21 04 00   [14] 4822 	ld	iy,#4
   1825 FD 39         [15] 4823 	add	iy,sp
   1827 FD 36 00 00   [19] 4824 	ld	0 (iy),#0x00
   182B 21 0B 00      [10] 4825 	ld	hl, #11
   182E 39            [11] 4826 	add	hl, sp
   182F AF            [ 4] 4827 	xor	a, a
   1830 77            [ 7] 4828 	ld	(hl), a
   1831 23            [ 6] 4829 	inc	hl
   1832 77            [ 7] 4830 	ld	(hl), a
   1833                    4831 00109$:
                           4832 ;alien6.c:716: if ((addones[i].activo==1) && (lapso-addones[i].lastmoved>addones[i].speed)){
   1833 3ErB4         [ 7] 4833 	ld	a,#<(_addones)
   1835 21 0B 00      [10] 4834 	ld	hl,#11
   1838 39            [11] 4835 	add	hl,sp
   1839 FD 21 09 00   [14] 4836 	ld	iy,#9
   183D FD 39         [15] 4837 	add	iy,sp
   183F 86            [ 7] 4838 	add	a, (hl)
   1840 FD 77 00      [19] 4839 	ld	0 (iy),a
   1843 3Es02         [ 7] 4840 	ld	a,#>(_addones)
   1845 23            [ 6] 4841 	inc	hl
   1846 8E            [ 7] 4842 	adc	a, (hl)
   1847 FD 23         [10] 4843 	inc	iy
   1849 FD 77 00      [19] 4844 	ld	0 (iy),a
   184C FD 21 09 00   [14] 4845 	ld	iy,#9
   1850 FD 39         [15] 4846 	add	iy,sp
   1852 FD 6E 00      [19] 4847 	ld	l,0 (iy)
   1855 FD 66 01      [19] 4848 	ld	h,1 (iy)
   1858 7E            [ 7] 4849 	ld	a,(hl)
   1859 3D            [ 4] 4850 	dec	a
   185A C2rE2r18      [10] 4851 	jp	NZ,00110$
   185D FD 6E 00      [19] 4852 	ld	l,0 (iy)
   1860 FD 66 01      [19] 4853 	ld	h,1 (iy)
   1863 11 06 00      [10] 4854 	ld	de, #0x0006
   1866 19            [11] 4855 	add	hl, de
   1867 5E            [ 7] 4856 	ld	e,(hl)
   1868 23            [ 6] 4857 	inc	hl
   1869 56            [ 7] 4858 	ld	d,(hl)
   186A 23            [ 6] 4859 	inc	hl
   186B 46            [ 7] 4860 	ld	b,(hl)
   186C 23            [ 6] 4861 	inc	hl
   186D 4E            [ 7] 4862 	ld	c,(hl)
   186E 21 05 00      [10] 4863 	ld	hl,#5
   1871 39            [11] 4864 	add	hl,sp
   1872 FD 21 00 00   [14] 4865 	ld	iy,#0
   1876 FD 39         [15] 4866 	add	iy,sp
   1878 FD 7E 00      [19] 4867 	ld	a,0 (iy)
   187B 93            [ 4] 4868 	sub	a, e
   187C 77            [ 7] 4869 	ld	(hl),a
   187D FD 7E 01      [19] 4870 	ld	a,1 (iy)
   1880 9A            [ 4] 4871 	sbc	a, d
   1881 23            [ 6] 4872 	inc	hl
   1882 77            [ 7] 4873 	ld	(hl),a
   1883 FD 7E 02      [19] 4874 	ld	a,2 (iy)
   1886 98            [ 4] 4875 	sbc	a, b
   1887 23            [ 6] 4876 	inc	hl
   1888 77            [ 7] 4877 	ld	(hl),a
   1889 FD 7E 03      [19] 4878 	ld	a,3 (iy)
   188C 99            [ 4] 4879 	sbc	a, c
   188D 23            [ 6] 4880 	inc	hl
   188E 77            [ 7] 4881 	ld	(hl),a
   188F 21 09 00      [10] 4882 	ld	hl, #9
   1892 39            [11] 4883 	add	hl, sp
   1893 7E            [ 7] 4884 	ld	a, (hl)
   1894 23            [ 6] 4885 	inc	hl
   1895 66            [ 7] 4886 	ld	h, (hl)
   1896 6F            [ 4] 4887 	ld	l, a
   1897 11 05 00      [10] 4888 	ld	de, #0x0005
   189A 19            [11] 4889 	add	hl, de
   189B 5E            [ 7] 4890 	ld	e,(hl)
   189C 16 00         [ 7] 4891 	ld	d,#0x00
   189E 01 00 00      [10] 4892 	ld	bc,#0x0000
   18A1 7B            [ 4] 4893 	ld	a,e
   18A2 FD 21 05 00   [14] 4894 	ld	iy,#5
   18A6 FD 39         [15] 4895 	add	iy,sp
   18A8 FD 96 00      [19] 4896 	sub	a, 0 (iy)
   18AB 7A            [ 4] 4897 	ld	a,d
   18AC FD 9E 01      [19] 4898 	sbc	a, 1 (iy)
   18AF 78            [ 4] 4899 	ld	a,b
   18B0 FD 9E 02      [19] 4900 	sbc	a, 2 (iy)
   18B3 79            [ 4] 4901 	ld	a,c
   18B4 FD 9E 03      [19] 4902 	sbc	a, 3 (iy)
   18B7 E2rBCr18      [10] 4903 	jp	PO, 00136$
   18BA EE 80         [ 7] 4904 	xor	a, #0x80
   18BC                    4905 00136$:
   18BC F2rE2r18      [10] 4906 	jp	P,00110$
                           4907 ;alien6.c:718: addones[i].y++;
   18BF FD 21 09 00   [14] 4908 	ld	iy,#9
   18C3 FD 39         [15] 4909 	add	iy,sp
   18C5 FD 6E 00      [19] 4910 	ld	l,0 (iy)
   18C8 FD 66 01      [19] 4911 	ld	h,1 (iy)
   18CB 23            [ 6] 4912 	inc	hl
   18CC 23            [ 6] 4913 	inc	hl
   18CD 23            [ 6] 4914 	inc	hl
   18CE 56            [ 7] 4915 	ld	d,(hl)
   18CF 14            [ 4] 4916 	inc	d
   18D0 72            [ 7] 4917 	ld	(hl),d
                           4918 ;alien6.c:720: if (addones[i].y>199){
   18D1 3E C7         [ 7] 4919 	ld	a,#0xC7
   18D3 92            [ 4] 4920 	sub	a, d
   18D4 30 0C         [12] 4921 	jr	NC,00110$
                           4922 ;alien6.c:721: addones[i].activo=0;
   18D6 FD 6E 00      [19] 4923 	ld	l,0 (iy)
   18D9 FD 66 01      [19] 4924 	ld	h,1 (iy)
   18DC 36 00         [10] 4925 	ld	(hl),#0x00
                           4926 ;alien6.c:722: addones_activos--;
   18DE 21rC8r02      [10] 4927 	ld	hl, #_addones_activos+0
   18E1 35            [11] 4928 	dec	(hl)
   18E2                    4929 00110$:
                           4930 ;alien6.c:715: for (i=0;i<MAX_ADDONES;i++){
   18E2 21 0B 00      [10] 4931 	ld	hl,#11
   18E5 39            [11] 4932 	add	hl,sp
   18E6 7E            [ 7] 4933 	ld	a,(hl)
   18E7 C6 0A         [ 7] 4934 	add	a, #0x0A
   18E9 77            [ 7] 4935 	ld	(hl),a
   18EA 23            [ 6] 4936 	inc	hl
   18EB 7E            [ 7] 4937 	ld	a,(hl)
   18EC CE 00         [ 7] 4938 	adc	a, #0x00
   18EE 77            [ 7] 4939 	ld	(hl),a
   18EF FD 21 04 00   [14] 4940 	ld	iy,#4
   18F3 FD 39         [15] 4941 	add	iy,sp
   18F5 FD 34 00      [23] 4942 	inc	0 (iy)
   18F8 FD 7E 00      [19] 4943 	ld	a,0 (iy)
   18FB D6 02         [ 7] 4944 	sub	a, #0x02
   18FD DAr33r18      [10] 4945 	jp	C,00109$
   1900                    4946 00111$:
   1900 21 0D 00      [10] 4947 	ld	hl,#13
   1903 39            [11] 4948 	add	hl,sp
   1904 F9            [ 6] 4949 	ld	sp,hl
   1905 C9            [10] 4950 	ret
   1906                    4951 _moverAddones_end::
                           4952 ;alien6.c:729: void pintarAddones(){
                           4953 ;	---------------------------------
                           4954 ; Function pintarAddones
                           4955 ; ---------------------------------
   1906                    4956 _pintarAddones_start::
   1906                    4957 _pintarAddones:
   1906 21 F9 FF      [10] 4958 	ld	hl,#-7
   1909 39            [11] 4959 	add	hl,sp
   190A F9            [ 6] 4960 	ld	sp,hl
                           4961 ;alien6.c:731: if (addones_activos>0){
   190B 3ArC8r02      [13] 4962 	ld	a,(#_addones_activos + 0)
   190E B7            [ 4] 4963 	or	a, a
   190F CArFCr19      [10] 4964 	jp	Z,00109$
                           4965 ;alien6.c:732: for (i=0;i<MAX_ADDONES;i++){
   1912 FD 21 00 00   [14] 4966 	ld	iy,#0
   1916 FD 39         [15] 4967 	add	iy,sp
   1918 FD 36 00 00   [19] 4968 	ld	0 (iy),#0x00
   191C 21 05 00      [10] 4969 	ld	hl, #5
   191F 39            [11] 4970 	add	hl, sp
   1920 AF            [ 4] 4971 	xor	a, a
   1921 77            [ 7] 4972 	ld	(hl), a
   1922 23            [ 6] 4973 	inc	hl
   1923 77            [ 7] 4974 	ld	(hl), a
   1924                    4975 00107$:
                           4976 ;alien6.c:733: if ((addones[i].activo==1) && (addones[i].moved)){
   1924 3ErB4         [ 7] 4977 	ld	a,#<(_addones)
   1926 21 05 00      [10] 4978 	ld	hl,#5
   1929 39            [11] 4979 	add	hl,sp
   192A FD 21 03 00   [14] 4980 	ld	iy,#3
   192E FD 39         [15] 4981 	add	iy,sp
   1930 86            [ 7] 4982 	add	a, (hl)
   1931 FD 77 00      [19] 4983 	ld	0 (iy),a
   1934 3Es02         [ 7] 4984 	ld	a,#>(_addones)
   1936 23            [ 6] 4985 	inc	hl
   1937 8E            [ 7] 4986 	adc	a, (hl)
   1938 FD 23         [10] 4987 	inc	iy
   193A FD 77 00      [19] 4988 	ld	0 (iy),a
   193D FD 21 03 00   [14] 4989 	ld	iy,#3
   1941 FD 39         [15] 4990 	add	iy,sp
   1943 FD 6E 00      [19] 4991 	ld	l,0 (iy)
   1946 FD 66 01      [19] 4992 	ld	h,1 (iy)
   1949 7E            [ 7] 4993 	ld	a,(hl)
   194A 3D            [ 4] 4994 	dec	a
   194B C2rDEr19      [10] 4995 	jp	NZ,00108$
   194E 21 01 00      [10] 4996 	ld	hl,#1
   1951 39            [11] 4997 	add	hl,sp
   1952 FD 7E 00      [19] 4998 	ld	a,0 (iy)
   1955 C6 04         [ 7] 4999 	add	a, #0x04
   1957 77            [ 7] 5000 	ld	(hl),a
   1958 FD 7E 01      [19] 5001 	ld	a,1 (iy)
   195B CE 00         [ 7] 5002 	adc	a, #0x00
   195D 23            [ 6] 5003 	inc	hl
   195E 77            [ 7] 5004 	ld	(hl),a
   195F 21 01 00      [10] 5005 	ld	hl, #1
   1962 39            [11] 5006 	add	hl, sp
   1963 7E            [ 7] 5007 	ld	a, (hl)
   1964 23            [ 6] 5008 	inc	hl
   1965 66            [ 7] 5009 	ld	h, (hl)
   1966 6F            [ 4] 5010 	ld	l, a
   1967 7E            [ 7] 5011 	ld	a,(hl)
   1968 B7            [ 4] 5012 	or	a, a
   1969 28 73         [12] 5013 	jr	Z,00108$
                           5014 ;alien6.c:734: cpc_PutSpXOR(addon_sprite[addones[i].tipo],6,3,direccionLinea[addones[i].y]+addones[i].x);
   196B FD 21 03 00   [14] 5015 	ld	iy,#3
   196F FD 39         [15] 5016 	add	iy,sp
   1971 FD 6E 00      [19] 5017 	ld	l,0 (iy)
   1974 FD 66 01      [19] 5018 	ld	h,1 (iy)
   1977 23            [ 6] 5019 	inc	hl
   1978 23            [ 6] 5020 	inc	hl
   1979 23            [ 6] 5021 	inc	hl
   197A 6E            [ 7] 5022 	ld	l,(hl)
   197B 26 00         [ 7] 5023 	ld	h,#0x00
   197D 29            [11] 5024 	add	hl, hl
   197E 11rECr05      [10] 5025 	ld	de,#_direccionLinea
   1981 19            [11] 5026 	add	hl,de
   1982 5E            [ 7] 5027 	ld	e,(hl)
   1983 23            [ 6] 5028 	inc	hl
   1984 56            [ 7] 5029 	ld	d,(hl)
   1985 FD 6E 00      [19] 5030 	ld	l,0 (iy)
   1988 FD 66 01      [19] 5031 	ld	h,1 (iy)
   198B 23            [ 6] 5032 	inc	hl
   198C 23            [ 6] 5033 	inc	hl
   198D 6E            [ 7] 5034 	ld	l,(hl)
   198E 26 00         [ 7] 5035 	ld	h,#0x00
   1990 19            [11] 5036 	add	hl,de
   1991 EB            [ 4] 5037 	ex	de,hl
   1992 FD 6E 00      [19] 5038 	ld	l,0 (iy)
   1995 FD 66 01      [19] 5039 	ld	h,1 (iy)
   1998 23            [ 6] 5040 	inc	hl
   1999 6E            [ 7] 5041 	ld	l,(hl)
   199A 26 00         [ 7] 5042 	ld	h,#0x00
   199C 29            [11] 5043 	add	hl, hl
   199D 01rC9r02      [10] 5044 	ld	bc,#_addon_sprite
   19A0 09            [11] 5045 	add	hl,bc
   19A1 4E            [ 7] 5046 	ld	c,(hl)
   19A2 23            [ 6] 5047 	inc	hl
   19A3 46            [ 7] 5048 	ld	b,(hl)
   19A4 D5            [11] 5049 	push	de
   19A5 21 06 03      [10] 5050 	ld	hl,#0x0306
   19A8 E5            [11] 5051 	push	hl
   19A9 C5            [11] 5052 	push	bc
   19AA CDr00r00      [17] 5053 	call	_cpc_PutSpXOR
   19AD 21 06 00      [10] 5054 	ld	hl,#6
   19B0 39            [11] 5055 	add	hl,sp
   19B1 F9            [ 6] 5056 	ld	sp,hl
                           5057 ;alien6.c:735: addones[i].moved=0;
   19B2 21 01 00      [10] 5058 	ld	hl, #1
   19B5 39            [11] 5059 	add	hl, sp
   19B6 7E            [ 7] 5060 	ld	a, (hl)
   19B7 23            [ 6] 5061 	inc	hl
   19B8 66            [ 7] 5062 	ld	h, (hl)
   19B9 6F            [ 4] 5063 	ld	l, a
   19BA 36 00         [10] 5064 	ld	(hl),#0x00
                           5065 ;alien6.c:736: addones[i].lastmoved=getTime();
   19BC FD 21 03 00   [14] 5066 	ld	iy,#3
   19C0 FD 39         [15] 5067 	add	iy,sp
   19C2 FD 7E 00      [19] 5068 	ld	a,0 (iy)
   19C5 C6 06         [ 7] 5069 	add	a, #0x06
   19C7 F5            [11] 5070 	push	af
   19C8 FD 7E 01      [19] 5071 	ld	a,1 (iy)
   19CB CE 00         [ 7] 5072 	adc	a, #0x00
   19CD 67            [ 4] 5073 	ld	h,a
   19CE F1            [10] 5074 	pop	af
   19CF 6F            [ 4] 5075 	ld	l,a
   19D0 E5            [11] 5076 	push	hl
   19D1 CDr89r07      [17] 5077 	call	_getTime
   19D4 4D            [ 4] 5078 	ld	c,l
   19D5 44            [ 4] 5079 	ld	b,h
   19D6 E1            [10] 5080 	pop	hl
   19D7 71            [ 7] 5081 	ld	(hl),c
   19D8 23            [ 6] 5082 	inc	hl
   19D9 70            [ 7] 5083 	ld	(hl),b
   19DA 23            [ 6] 5084 	inc	hl
   19DB 73            [ 7] 5085 	ld	(hl),e
   19DC 23            [ 6] 5086 	inc	hl
   19DD 72            [ 7] 5087 	ld	(hl),d
   19DE                    5088 00108$:
                           5089 ;alien6.c:732: for (i=0;i<MAX_ADDONES;i++){
   19DE 21 05 00      [10] 5090 	ld	hl,#5
   19E1 39            [11] 5091 	add	hl,sp
   19E2 7E            [ 7] 5092 	ld	a,(hl)
   19E3 C6 0A         [ 7] 5093 	add	a, #0x0A
   19E5 77            [ 7] 5094 	ld	(hl),a
   19E6 23            [ 6] 5095 	inc	hl
   19E7 7E            [ 7] 5096 	ld	a,(hl)
   19E8 CE 00         [ 7] 5097 	adc	a, #0x00
   19EA 77            [ 7] 5098 	ld	(hl),a
   19EB FD 21 00 00   [14] 5099 	ld	iy,#0
   19EF FD 39         [15] 5100 	add	iy,sp
   19F1 FD 34 00      [23] 5101 	inc	0 (iy)
   19F4 FD 7E 00      [19] 5102 	ld	a,0 (iy)
   19F7 D6 02         [ 7] 5103 	sub	a, #0x02
   19F9 DAr24r19      [10] 5104 	jp	C,00107$
   19FC                    5105 00109$:
   19FC 21 07 00      [10] 5106 	ld	hl,#7
   19FF 39            [11] 5107 	add	hl,sp
   1A00 F9            [ 6] 5108 	ld	sp,hl
   1A01 C9            [10] 5109 	ret
   1A02                    5110 _pintarAddones_end::
                           5111 ;alien6.c:747: void inicializarAtaques(){
                           5112 ;	---------------------------------
                           5113 ; Function inicializarAtaques
                           5114 ; ---------------------------------
   1A02                    5115 _inicializarAtaques_start::
   1A02                    5116 _inicializarAtaques:
                           5117 ;alien6.c:749: for (i=0;i<MAX_ATAQUES;i++){
   1A02 16 00         [ 7] 5118 	ld	d,#0x00
   1A04 01 00 00      [10] 5119 	ld	bc,#0x0000
   1A07                    5120 00102$:
                           5121 ;alien6.c:750: ataques[i].activo=0;
   1A07 21rA0r02      [10] 5122 	ld	hl,#_ataques
   1A0A 09            [11] 5123 	add	hl,bc
   1A0B 36 00         [10] 5124 	ld	(hl),#0x00
                           5125 ;alien6.c:751: ataques[i].maxStep=19;
   1A0D E5            [11] 5126 	push	hl
   1A0E FD E1         [14] 5127 	pop	iy
   1A10 FD 23         [10] 5128 	inc	iy
   1A12 FD 23         [10] 5129 	inc	iy
   1A14 FD 23         [10] 5130 	inc	iy
   1A16 FD 36 00 13   [19] 5131 	ld	0 (iy), #0x13
                           5132 ;alien6.c:752: ataques[i].trayectoria=trayectoria1;
   1A1A 23            [ 6] 5133 	inc	hl
   1A1B 23            [ 6] 5134 	inc	hl
   1A1C 23            [ 6] 5135 	inc	hl
   1A1D 23            [ 6] 5136 	inc	hl
   1A1E 36r00         [10] 5137 	ld	(hl),#<(_trayectoria1)
   1A20 23            [ 6] 5138 	inc	hl
   1A21 36s00         [10] 5139 	ld	(hl),#>(_trayectoria1)
                           5140 ;alien6.c:749: for (i=0;i<MAX_ATAQUES;i++){
   1A23 21 06 00      [10] 5141 	ld	hl,#0x0006
   1A26 09            [11] 5142 	add	hl,bc
   1A27 4D            [ 4] 5143 	ld	c,l
   1A28 44            [ 4] 5144 	ld	b,h
   1A29 14            [ 4] 5145 	inc	d
   1A2A 7A            [ 4] 5146 	ld	a,d
   1A2B D6 03         [ 7] 5147 	sub	a, #0x03
   1A2D 38 D8         [12] 5148 	jr	C,00102$
                           5149 ;alien6.c:754: ataques_activos=0;
   1A2F 21rB2r02      [10] 5150 	ld	hl,#_ataques_activos + 0
   1A32 36 00         [10] 5151 	ld	(hl), #0x00
   1A34 C9            [10] 5152 	ret
   1A35                    5153 _inicializarAtaques_end::
                           5154 ;alien6.c:757: void crearAtaque(unsigned char malo){
                           5155 ;	---------------------------------
                           5156 ; Function crearAtaque
                           5157 ; ---------------------------------
   1A35                    5158 _crearAtaque_start::
   1A35                    5159 _crearAtaque:
   1A35 3B            [ 6] 5160 	dec	sp
                           5161 ;alien6.c:760: while (ataques[i].activo==1){
   1A36 FD 21 00 00   [14] 5162 	ld	iy,#0
   1A3A FD 39         [15] 5163 	add	iy,sp
   1A3C FD 36 00 00   [19] 5164 	ld	0 (iy),#0x00
   1A40 01 00 00      [10] 5165 	ld	bc,#0x0000
   1A43                    5166 00101$:
   1A43 21rA0r02      [10] 5167 	ld	hl,#_ataques
   1A46 09            [11] 5168 	add	hl,bc
   1A47 EB            [ 4] 5169 	ex	de,hl
   1A48 1A            [ 7] 5170 	ld	a,(de)
   1A49 3D            [ 4] 5171 	dec	a
   1A4A 20 11         [12] 5172 	jr	NZ,00103$
                           5173 ;alien6.c:761: i++;
   1A4C 21 06 00      [10] 5174 	ld	hl,#0x0006
   1A4F 09            [11] 5175 	add	hl,bc
   1A50 4D            [ 4] 5176 	ld	c,l
   1A51 44            [ 4] 5177 	ld	b,h
   1A52 FD 21 00 00   [14] 5178 	ld	iy,#0
   1A56 FD 39         [15] 5179 	add	iy,sp
   1A58 FD 34 00      [23] 5180 	inc	0 (iy)
   1A5B 18 E6         [12] 5181 	jr	00101$
   1A5D                    5182 00103$:
                           5183 ;alien6.c:763: if (i<max_ataques_activos){
   1A5D 21rB3r02      [10] 5184 	ld	hl,#_max_ataques_activos
   1A60 FD 21 00 00   [14] 5185 	ld	iy,#0
   1A64 FD 39         [15] 5186 	add	iy,sp
   1A66 FD 7E 00      [19] 5187 	ld	a,0 (iy)
   1A69 96            [ 7] 5188 	sub	a, (hl)
   1A6A 30 45         [12] 5189 	jr	NC,00106$
                           5190 ;alien6.c:764: ataques[i].activo=1;
   1A6C 3E 01         [ 7] 5191 	ld	a,#0x01
   1A6E 12            [ 7] 5192 	ld	(de),a
                           5193 ;alien6.c:765: ataques[i].idMalo=malo;
   1A6F 6B            [ 4] 5194 	ld	l, e
   1A70 62            [ 4] 5195 	ld	h, d
   1A71 23            [ 6] 5196 	inc	hl
   1A72 FD 21 03 00   [14] 5197 	ld	iy,#3
   1A76 FD 39         [15] 5198 	add	iy,sp
   1A78 FD 7E 00      [19] 5199 	ld	a,0 (iy)
   1A7B 77            [ 7] 5200 	ld	(hl),a
                           5201 ;alien6.c:766: ataques[i].step=0;
   1A7C 13            [ 6] 5202 	inc	de
   1A7D 6B            [ 4] 5203 	ld	l,e
   1A7E 62            [ 4] 5204 	ld	h,d
   1A7F 23            [ 6] 5205 	inc	hl
   1A80 36 00         [10] 5206 	ld	(hl),#0x00
                           5207 ;alien6.c:767: ataques_activos++;
   1A82 21rB2r02      [10] 5208 	ld	hl, #_ataques_activos+0
   1A85 34            [11] 5209 	inc	(hl)
                           5210 ;alien6.c:768: malos[malo].movement=BADDIE_ATTACK;
   1A86 11rF3r00      [10] 5211 	ld	de,#_malos+0
   1A89 21 03 00      [10] 5212 	ld	hl, #3+0
   1A8C 39            [11] 5213 	add	hl, sp
   1A8D 4E            [ 7] 5214 	ld	c, (hl)
   1A8E 06 00         [ 7] 5215 	ld	b,#0x00
   1A90 69            [ 4] 5216 	ld	l, c
   1A91 60            [ 4] 5217 	ld	h, b
   1A92 29            [11] 5218 	add	hl, hl
   1A93 09            [11] 5219 	add	hl, bc
   1A94 29            [11] 5220 	add	hl, hl
   1A95 09            [11] 5221 	add	hl, bc
   1A96 29            [11] 5222 	add	hl, hl
   1A97 29            [11] 5223 	add	hl, hl
   1A98 09            [11] 5224 	add	hl, bc
   1A99 19            [11] 5225 	add	hl,de
   1A9A EB            [ 4] 5226 	ex	de,hl
   1A9B 21 09 00      [10] 5227 	ld	hl,#0x0009
   1A9E 19            [11] 5228 	add	hl,de
   1A9F 36 01         [10] 5229 	ld	(hl),#0x01
                           5230 ;alien6.c:769: malos[malo].formSpeed=malos[malo].speed;
   1AA1 21 10 00      [10] 5231 	ld	hl,#0x0010
   1AA4 19            [11] 5232 	add	hl,de
   1AA5 4D            [ 4] 5233 	ld	c,l
   1AA6 44            [ 4] 5234 	ld	b,h
   1AA7 21 0F 00      [10] 5235 	ld	hl,#0x000F
   1AAA 19            [11] 5236 	add	hl,de
   1AAB EB            [ 4] 5237 	ex	de,hl
   1AAC 1A            [ 7] 5238 	ld	a,(de)
   1AAD 02            [ 7] 5239 	ld	(bc),a
                           5240 ;alien6.c:770: malos[malo].speed=VELOCIDAD_ATAQUE;
   1AAE 3E 08         [ 7] 5241 	ld	a,#0x08
   1AB0 12            [ 7] 5242 	ld	(de),a
   1AB1                    5243 00106$:
   1AB1 33            [ 6] 5244 	inc	sp
   1AB2 C9            [10] 5245 	ret
   1AB3                    5246 _crearAtaque_end::
                           5247 ;alien6.c:778: void cargarMalo(unsigned char malo, unsigned char tipo){
                           5248 ;	---------------------------------
                           5249 ; Function cargarMalo
                           5250 ; ---------------------------------
   1AB3                    5251 _cargarMalo_start::
   1AB3                    5252 _cargarMalo:
   1AB3 21 F3 FF      [10] 5253 	ld	hl,#-13
   1AB6 39            [11] 5254 	add	hl,sp
   1AB7 F9            [ 6] 5255 	ld	sp,hl
                           5256 ;alien6.c:779: malos[malo].type=tipo;
   1AB8 11rF3r00      [10] 5257 	ld	de,#_malos+0
   1ABB 21 0F 00      [10] 5258 	ld	hl, #15+0
   1ABE 39            [11] 5259 	add	hl, sp
   1ABF 4E            [ 7] 5260 	ld	c, (hl)
   1AC0 06 00         [ 7] 5261 	ld	b,#0x00
   1AC2 69            [ 4] 5262 	ld	l, c
   1AC3 60            [ 4] 5263 	ld	h, b
   1AC4 29            [11] 5264 	add	hl, hl
   1AC5 09            [11] 5265 	add	hl, bc
   1AC6 29            [11] 5266 	add	hl, hl
   1AC7 09            [11] 5267 	add	hl, bc
   1AC8 29            [11] 5268 	add	hl, hl
   1AC9 29            [11] 5269 	add	hl, hl
   1ACA 09            [11] 5270 	add	hl, bc
   1ACB 19            [11] 5271 	add	hl,de
   1ACC EB            [ 4] 5272 	ex	de,hl
   1ACD 21 08 00      [10] 5273 	ld	hl,#0x0008
   1AD0 19            [11] 5274 	add	hl,de
   1AD1 FD 21 10 00   [14] 5275 	ld	iy,#16
   1AD5 FD 39         [15] 5276 	add	iy,sp
   1AD7 FD 7E 00      [19] 5277 	ld	a,0 (iy)
   1ADA 77            [ 7] 5278 	ld	(hl),a
                           5279 ;alien6.c:782: malos[malo].activo=1;
   1ADB 21 0D 00      [10] 5280 	ld	hl,#0x000D
   1ADE 19            [11] 5281 	add	hl,de
   1ADF FD 21 0B 00   [14] 5282 	ld	iy,#11
   1AE3 FD 39         [15] 5283 	add	iy,sp
   1AE5 FD 75 00      [19] 5284 	ld	0 (iy),l
   1AE8 FD 74 01      [19] 5285 	ld	1 (iy),h
                           5286 ;alien6.c:784: malos[malo].w=4;
   1AEB 21 07 00      [10] 5287 	ld	hl,#0x0007
   1AEE 19            [11] 5288 	add	hl,de
   1AEF FD 21 09 00   [14] 5289 	ld	iy,#9
   1AF3 FD 39         [15] 5290 	add	iy,sp
   1AF5 FD 75 00      [19] 5291 	ld	0 (iy),l
   1AF8 FD 74 01      [19] 5292 	ld	1 (iy),h
                           5293 ;alien6.c:785: malos[malo].h=15;
   1AFB 21 06 00      [10] 5294 	ld	hl,#0x0006
   1AFE 19            [11] 5295 	add	hl,de
   1AFF FD 21 07 00   [14] 5296 	ld	iy,#7
   1B03 FD 39         [15] 5297 	add	iy,sp
   1B05 FD 75 00      [19] 5298 	ld	0 (iy),l
   1B08 FD 74 01      [19] 5299 	ld	1 (iy),h
                           5300 ;alien6.c:786: malos[malo].agresividad=4;
   1B0B 21 14 00      [10] 5301 	ld	hl,#0x0014
   1B0E 19            [11] 5302 	add	hl,de
   1B0F FD 21 05 00   [14] 5303 	ld	iy,#5
   1B13 FD 39         [15] 5304 	add	iy,sp
   1B15 FD 75 00      [19] 5305 	ld	0 (iy),l
   1B18 FD 74 01      [19] 5306 	ld	1 (iy),h
                           5307 ;alien6.c:787: malos[malo].vidas=1;
   1B1B 21 13 00      [10] 5308 	ld	hl,#0x0013
   1B1E 19            [11] 5309 	add	hl,de
   1B1F FD 21 03 00   [14] 5310 	ld	iy,#3
   1B23 FD 39         [15] 5311 	add	iy,sp
   1B25 FD 75 00      [19] 5312 	ld	0 (iy),l
   1B28 FD 74 01      [19] 5313 	ld	1 (iy),h
                           5314 ;alien6.c:788: malos[malo].speed=40;
   1B2B 21 0F 00      [10] 5315 	ld	hl,#0x000F
   1B2E 19            [11] 5316 	add	hl,de
   1B2F FD 21 01 00   [14] 5317 	ld	iy,#1
   1B33 FD 39         [15] 5318 	add	iy,sp
   1B35 FD 75 00      [19] 5319 	ld	0 (iy),l
   1B38 FD 74 01      [19] 5320 	ld	1 (iy),h
                           5321 ;alien6.c:789: malos[malo].moved=1;
   1B3B 21 0E 00      [10] 5322 	ld	hl,#0x000E
   1B3E 19            [11] 5323 	add	hl,de
   1B3F 4D            [ 4] 5324 	ld	c,l
   1B40 44            [ 4] 5325 	ld	b,h
                           5326 ;alien6.c:780: switch(tipo) {
   1B41 FD 21 10 00   [14] 5327 	ld	iy,#16
   1B45 FD 39         [15] 5328 	add	iy,sp
   1B47 FD 7E 00      [19] 5329 	ld	a,0 (iy)
   1B4A D6 01         [ 7] 5330 	sub	a, #0x01
   1B4C DAr58r1C      [10] 5331 	jp	C,00104$
   1B4F 3E 03         [ 7] 5332 	ld	a,#0x03
   1B51 FD 96 00      [19] 5333 	sub	a, 0 (iy)
   1B54 DAr58r1C      [10] 5334 	jp	C,00104$
   1B57 21 00 00      [10] 5335 	ld	hl,#0
   1B5A 39            [11] 5336 	add	hl,sp
   1B5B FD 7E 00      [19] 5337 	ld	a,0 (iy)
   1B5E C6 FF         [ 7] 5338 	add	a,#0xFF
   1B60 77            [ 7] 5339 	ld	(hl),a
   1B61 D5            [11] 5340 	push	de
   1B62 FD 21 02 00   [14] 5341 	ld	iy,#2
   1B66 FD 39         [15] 5342 	add	iy,sp
   1B68 FD 5E 00      [19] 5343 	ld	e,0 (iy)
   1B6B 16 00         [ 7] 5344 	ld	d,#0x00
   1B6D 21r75r1B      [10] 5345 	ld	hl,#00116$
   1B70 19            [11] 5346 	add	hl,de
   1B71 19            [11] 5347 	add	hl,de
   1B72 19            [11] 5348 	add	hl,de
   1B73 D1            [10] 5349 	pop	de
   1B74 E9            [ 4] 5350 	jp	(hl)
   1B75                    5351 00116$:
   1B75 C3r7Er1B      [10] 5352 	jp	00101$
   1B78 C3rC7r1B      [10] 5353 	jp	00102$
   1B7B C3r10r1C      [10] 5354 	jp	00103$
                           5355 ;alien6.c:781: case 1:
   1B7E                    5356 00101$:
                           5357 ;alien6.c:782: malos[malo].activo=1;
   1B7E 21 0B 00      [10] 5358 	ld	hl, #11
   1B81 39            [11] 5359 	add	hl, sp
   1B82 7E            [ 7] 5360 	ld	a, (hl)
   1B83 23            [ 6] 5361 	inc	hl
   1B84 66            [ 7] 5362 	ld	h, (hl)
   1B85 6F            [ 4] 5363 	ld	l, a
   1B86 36 01         [10] 5364 	ld	(hl),#0x01
                           5365 ;alien6.c:783: malos[malo].sp0=baddie01;
   1B88 3Er69         [ 7] 5366 	ld	a,#<(_baddie01)
   1B8A 12            [ 7] 5367 	ld	(de),a
   1B8B 13            [ 6] 5368 	inc	de
   1B8C 3Es00         [ 7] 5369 	ld	a,#>(_baddie01)
   1B8E 12            [ 7] 5370 	ld	(de),a
                           5371 ;alien6.c:784: malos[malo].w=4;
   1B8F 21 09 00      [10] 5372 	ld	hl, #9
   1B92 39            [11] 5373 	add	hl, sp
   1B93 7E            [ 7] 5374 	ld	a, (hl)
   1B94 23            [ 6] 5375 	inc	hl
   1B95 66            [ 7] 5376 	ld	h, (hl)
   1B96 6F            [ 4] 5377 	ld	l, a
   1B97 36 04         [10] 5378 	ld	(hl),#0x04
                           5379 ;alien6.c:785: malos[malo].h=15;
   1B99 21 07 00      [10] 5380 	ld	hl, #7
   1B9C 39            [11] 5381 	add	hl, sp
   1B9D 7E            [ 7] 5382 	ld	a, (hl)
   1B9E 23            [ 6] 5383 	inc	hl
   1B9F 66            [ 7] 5384 	ld	h, (hl)
   1BA0 6F            [ 4] 5385 	ld	l, a
   1BA1 36 0F         [10] 5386 	ld	(hl),#0x0F
                           5387 ;alien6.c:786: malos[malo].agresividad=4;
   1BA3 21 05 00      [10] 5388 	ld	hl, #5
   1BA6 39            [11] 5389 	add	hl, sp
   1BA7 7E            [ 7] 5390 	ld	a, (hl)
   1BA8 23            [ 6] 5391 	inc	hl
   1BA9 66            [ 7] 5392 	ld	h, (hl)
   1BAA 6F            [ 4] 5393 	ld	l, a
   1BAB 36 04         [10] 5394 	ld	(hl),#0x04
                           5395 ;alien6.c:787: malos[malo].vidas=1;
   1BAD 21 03 00      [10] 5396 	ld	hl, #3
   1BB0 39            [11] 5397 	add	hl, sp
   1BB1 7E            [ 7] 5398 	ld	a, (hl)
   1BB2 23            [ 6] 5399 	inc	hl
   1BB3 66            [ 7] 5400 	ld	h, (hl)
   1BB4 6F            [ 4] 5401 	ld	l, a
   1BB5 36 01         [10] 5402 	ld	(hl),#0x01
                           5403 ;alien6.c:788: malos[malo].speed=40;
   1BB7 21 01 00      [10] 5404 	ld	hl, #1
   1BBA 39            [11] 5405 	add	hl, sp
   1BBB 7E            [ 7] 5406 	ld	a, (hl)
   1BBC 23            [ 6] 5407 	inc	hl
   1BBD 66            [ 7] 5408 	ld	h, (hl)
   1BBE 6F            [ 4] 5409 	ld	l, a
   1BBF 36 28         [10] 5410 	ld	(hl),#0x28
                           5411 ;alien6.c:789: malos[malo].moved=1;
   1BC1 3E 01         [ 7] 5412 	ld	a,#0x01
   1BC3 02            [ 7] 5413 	ld	(bc),a
                           5414 ;alien6.c:790: break;
   1BC4 C3r9Er1C      [10] 5415 	jp	00106$
                           5416 ;alien6.c:791: case 2:
   1BC7                    5417 00102$:
                           5418 ;alien6.c:792: malos[malo].activo=1;
   1BC7 21 0B 00      [10] 5419 	ld	hl, #11
   1BCA 39            [11] 5420 	add	hl, sp
   1BCB 7E            [ 7] 5421 	ld	a, (hl)
   1BCC 23            [ 6] 5422 	inc	hl
   1BCD 66            [ 7] 5423 	ld	h, (hl)
   1BCE 6F            [ 4] 5424 	ld	l, a
   1BCF 36 01         [10] 5425 	ld	(hl),#0x01
                           5426 ;alien6.c:793: malos[malo].sp0=baddie02;
   1BD1 3Er40         [ 7] 5427 	ld	a,#<(_baddie02)
   1BD3 12            [ 7] 5428 	ld	(de),a
   1BD4 13            [ 6] 5429 	inc	de
   1BD5 3Es02         [ 7] 5430 	ld	a,#>(_baddie02)
   1BD7 12            [ 7] 5431 	ld	(de),a
                           5432 ;alien6.c:794: malos[malo].w=4;
   1BD8 21 09 00      [10] 5433 	ld	hl, #9
   1BDB 39            [11] 5434 	add	hl, sp
   1BDC 7E            [ 7] 5435 	ld	a, (hl)
   1BDD 23            [ 6] 5436 	inc	hl
   1BDE 66            [ 7] 5437 	ld	h, (hl)
   1BDF 6F            [ 4] 5438 	ld	l, a
   1BE0 36 04         [10] 5439 	ld	(hl),#0x04
                           5440 ;alien6.c:795: malos[malo].h=8;
   1BE2 21 07 00      [10] 5441 	ld	hl, #7
   1BE5 39            [11] 5442 	add	hl, sp
   1BE6 7E            [ 7] 5443 	ld	a, (hl)
   1BE7 23            [ 6] 5444 	inc	hl
   1BE8 66            [ 7] 5445 	ld	h, (hl)
   1BE9 6F            [ 4] 5446 	ld	l, a
   1BEA 36 08         [10] 5447 	ld	(hl),#0x08
                           5448 ;alien6.c:796: malos[malo].agresividad=8;
   1BEC 21 05 00      [10] 5449 	ld	hl, #5
   1BEF 39            [11] 5450 	add	hl, sp
   1BF0 7E            [ 7] 5451 	ld	a, (hl)
   1BF1 23            [ 6] 5452 	inc	hl
   1BF2 66            [ 7] 5453 	ld	h, (hl)
   1BF3 6F            [ 4] 5454 	ld	l, a
   1BF4 36 08         [10] 5455 	ld	(hl),#0x08
                           5456 ;alien6.c:797: malos[malo].vidas=2;
   1BF6 21 03 00      [10] 5457 	ld	hl, #3
   1BF9 39            [11] 5458 	add	hl, sp
   1BFA 7E            [ 7] 5459 	ld	a, (hl)
   1BFB 23            [ 6] 5460 	inc	hl
   1BFC 66            [ 7] 5461 	ld	h, (hl)
   1BFD 6F            [ 4] 5462 	ld	l, a
   1BFE 36 02         [10] 5463 	ld	(hl),#0x02
                           5464 ;alien6.c:798: malos[malo].speed=16;
   1C00 21 01 00      [10] 5465 	ld	hl, #1
   1C03 39            [11] 5466 	add	hl, sp
   1C04 7E            [ 7] 5467 	ld	a, (hl)
   1C05 23            [ 6] 5468 	inc	hl
   1C06 66            [ 7] 5469 	ld	h, (hl)
   1C07 6F            [ 4] 5470 	ld	l, a
   1C08 36 10         [10] 5471 	ld	(hl),#0x10
                           5472 ;alien6.c:799: malos[malo].moved=1;
   1C0A 3E 01         [ 7] 5473 	ld	a,#0x01
   1C0C 02            [ 7] 5474 	ld	(bc),a
                           5475 ;alien6.c:800: break;
   1C0D C3r9Er1C      [10] 5476 	jp	00106$
                           5477 ;alien6.c:801: case 3:
   1C10                    5478 00103$:
                           5479 ;alien6.c:802: malos[malo].activo=1;
   1C10 21 0B 00      [10] 5480 	ld	hl, #11
   1C13 39            [11] 5481 	add	hl, sp
   1C14 7E            [ 7] 5482 	ld	a, (hl)
   1C15 23            [ 6] 5483 	inc	hl
   1C16 66            [ 7] 5484 	ld	h, (hl)
   1C17 6F            [ 4] 5485 	ld	l, a
   1C18 36 01         [10] 5486 	ld	(hl),#0x01
                           5487 ;alien6.c:803: malos[malo].sp0=baddie03;
   1C1A 3Er60         [ 7] 5488 	ld	a,#<(_baddie03)
   1C1C 12            [ 7] 5489 	ld	(de),a
   1C1D 13            [ 6] 5490 	inc	de
   1C1E 3Es02         [ 7] 5491 	ld	a,#>(_baddie03)
   1C20 12            [ 7] 5492 	ld	(de),a
                           5493 ;alien6.c:804: malos[malo].w=4;
   1C21 21 09 00      [10] 5494 	ld	hl, #9
   1C24 39            [11] 5495 	add	hl, sp
   1C25 7E            [ 7] 5496 	ld	a, (hl)
   1C26 23            [ 6] 5497 	inc	hl
   1C27 66            [ 7] 5498 	ld	h, (hl)
   1C28 6F            [ 4] 5499 	ld	l, a
   1C29 36 04         [10] 5500 	ld	(hl),#0x04
                           5501 ;alien6.c:805: malos[malo].h=8;
   1C2B 21 07 00      [10] 5502 	ld	hl, #7
   1C2E 39            [11] 5503 	add	hl, sp
   1C2F 7E            [ 7] 5504 	ld	a, (hl)
   1C30 23            [ 6] 5505 	inc	hl
   1C31 66            [ 7] 5506 	ld	h, (hl)
   1C32 6F            [ 4] 5507 	ld	l, a
   1C33 36 08         [10] 5508 	ld	(hl),#0x08
                           5509 ;alien6.c:806: malos[malo].agresividad=16;
   1C35 21 05 00      [10] 5510 	ld	hl, #5
   1C38 39            [11] 5511 	add	hl, sp
   1C39 7E            [ 7] 5512 	ld	a, (hl)
   1C3A 23            [ 6] 5513 	inc	hl
   1C3B 66            [ 7] 5514 	ld	h, (hl)
   1C3C 6F            [ 4] 5515 	ld	l, a
   1C3D 36 10         [10] 5516 	ld	(hl),#0x10
                           5517 ;alien6.c:807: malos[malo].vidas=3;
   1C3F 21 03 00      [10] 5518 	ld	hl, #3
   1C42 39            [11] 5519 	add	hl, sp
   1C43 7E            [ 7] 5520 	ld	a, (hl)
   1C44 23            [ 6] 5521 	inc	hl
   1C45 66            [ 7] 5522 	ld	h, (hl)
   1C46 6F            [ 4] 5523 	ld	l, a
   1C47 36 03         [10] 5524 	ld	(hl),#0x03
                           5525 ;alien6.c:808: malos[malo].speed=8;
   1C49 21 01 00      [10] 5526 	ld	hl, #1
   1C4C 39            [11] 5527 	add	hl, sp
   1C4D 7E            [ 7] 5528 	ld	a, (hl)
   1C4E 23            [ 6] 5529 	inc	hl
   1C4F 66            [ 7] 5530 	ld	h, (hl)
   1C50 6F            [ 4] 5531 	ld	l, a
   1C51 36 08         [10] 5532 	ld	(hl),#0x08
                           5533 ;alien6.c:809: malos[malo].moved=1;
   1C53 3E 01         [ 7] 5534 	ld	a,#0x01
   1C55 02            [ 7] 5535 	ld	(bc),a
                           5536 ;alien6.c:810: break;
   1C56 18 46         [12] 5537 	jr	00106$
                           5538 ;alien6.c:811: default:
   1C58                    5539 00104$:
                           5540 ;alien6.c:812: malos[malo].activo=1;
   1C58 21 0B 00      [10] 5541 	ld	hl, #11
   1C5B 39            [11] 5542 	add	hl, sp
   1C5C 7E            [ 7] 5543 	ld	a, (hl)
   1C5D 23            [ 6] 5544 	inc	hl
   1C5E 66            [ 7] 5545 	ld	h, (hl)
   1C5F 6F            [ 4] 5546 	ld	l, a
   1C60 36 01         [10] 5547 	ld	(hl),#0x01
                           5548 ;alien6.c:813: malos[malo].sp0=baddie01;
   1C62 3Er69         [ 7] 5549 	ld	a,#<(_baddie01)
   1C64 12            [ 7] 5550 	ld	(de),a
   1C65 13            [ 6] 5551 	inc	de
   1C66 3Es00         [ 7] 5552 	ld	a,#>(_baddie01)
   1C68 12            [ 7] 5553 	ld	(de),a
                           5554 ;alien6.c:814: malos[malo].w=4;
   1C69 21 09 00      [10] 5555 	ld	hl, #9
   1C6C 39            [11] 5556 	add	hl, sp
   1C6D 7E            [ 7] 5557 	ld	a, (hl)
   1C6E 23            [ 6] 5558 	inc	hl
   1C6F 66            [ 7] 5559 	ld	h, (hl)
   1C70 6F            [ 4] 5560 	ld	l, a
   1C71 36 04         [10] 5561 	ld	(hl),#0x04
                           5562 ;alien6.c:815: malos[malo].h=15;
   1C73 21 07 00      [10] 5563 	ld	hl, #7
   1C76 39            [11] 5564 	add	hl, sp
   1C77 7E            [ 7] 5565 	ld	a, (hl)
   1C78 23            [ 6] 5566 	inc	hl
   1C79 66            [ 7] 5567 	ld	h, (hl)
   1C7A 6F            [ 4] 5568 	ld	l, a
   1C7B 36 0F         [10] 5569 	ld	(hl),#0x0F
                           5570 ;alien6.c:816: malos[malo].agresividad=32;
   1C7D 21 05 00      [10] 5571 	ld	hl, #5
   1C80 39            [11] 5572 	add	hl, sp
   1C81 7E            [ 7] 5573 	ld	a, (hl)
   1C82 23            [ 6] 5574 	inc	hl
   1C83 66            [ 7] 5575 	ld	h, (hl)
   1C84 6F            [ 4] 5576 	ld	l, a
   1C85 36 20         [10] 5577 	ld	(hl),#0x20
                           5578 ;alien6.c:817: malos[malo].vidas=1;
   1C87 21 03 00      [10] 5579 	ld	hl, #3
   1C8A 39            [11] 5580 	add	hl, sp
   1C8B 7E            [ 7] 5581 	ld	a, (hl)
   1C8C 23            [ 6] 5582 	inc	hl
   1C8D 66            [ 7] 5583 	ld	h, (hl)
   1C8E 6F            [ 4] 5584 	ld	l, a
   1C8F 36 01         [10] 5585 	ld	(hl),#0x01
                           5586 ;alien6.c:818: malos[malo].speed=15;
   1C91 21 01 00      [10] 5587 	ld	hl, #1
   1C94 39            [11] 5588 	add	hl, sp
   1C95 7E            [ 7] 5589 	ld	a, (hl)
   1C96 23            [ 6] 5590 	inc	hl
   1C97 66            [ 7] 5591 	ld	h, (hl)
   1C98 6F            [ 4] 5592 	ld	l, a
   1C99 36 0F         [10] 5593 	ld	(hl),#0x0F
                           5594 ;alien6.c:819: malos[malo].moved=1;
   1C9B 3E 01         [ 7] 5595 	ld	a,#0x01
   1C9D 02            [ 7] 5596 	ld	(bc),a
                           5597 ;alien6.c:821: }
   1C9E                    5598 00106$:
   1C9E 21 0D 00      [10] 5599 	ld	hl,#13
   1CA1 39            [11] 5600 	add	hl,sp
   1CA2 F9            [ 6] 5601 	ld	sp,hl
   1CA3 C9            [10] 5602 	ret
   1CA4                    5603 _cargarMalo_end::
                           5604 ;alien6.c:825: void inicializarMalos(){
                           5605 ;	---------------------------------
                           5606 ; Function inicializarMalos
                           5607 ; ---------------------------------
   1CA4                    5608 _inicializarMalos_start::
   1CA4                    5609 _inicializarMalos:
   1CA4 21 F9 FF      [10] 5610 	ld	hl,#-7
   1CA7 39            [11] 5611 	add	hl,sp
   1CA8 F9            [ 6] 5612 	ld	sp,hl
                           5613 ;alien6.c:828: for(i=0;i<MAX_MALOS;i++){
   1CA9 FD 21 00 00   [14] 5614 	ld	iy,#0
   1CAD FD 39         [15] 5615 	add	iy,sp
   1CAF FD 36 00 00   [19] 5616 	ld	0 (iy),#0x00
   1CB3 11 00 00      [10] 5617 	ld	de,#0x0000
   1CB6                    5618 00115$:
                           5619 ;alien6.c:829: malos[i].activo=0;
   1CB6 21rF3r00      [10] 5620 	ld	hl,#_malos
   1CB9 19            [11] 5621 	add	hl,de
   1CBA 4D            [ 4] 5622 	ld	c,l
   1CBB 44            [ 4] 5623 	ld	b,h
   1CBC 21 0D 00      [10] 5624 	ld	hl,#0x000D
   1CBF 09            [11] 5625 	add	hl,bc
   1CC0 36 00         [10] 5626 	ld	(hl),#0x00
                           5627 ;alien6.c:830: malos[i].nuevo=1;
   1CC2 21 11 00      [10] 5628 	ld	hl,#0x0011
   1CC5 09            [11] 5629 	add	hl,bc
   1CC6 36 01         [10] 5630 	ld	(hl),#0x01
                           5631 ;alien6.c:831: malos[i].dead=0;
   1CC8 21 12 00      [10] 5632 	ld	hl,#0x0012
   1CCB 09            [11] 5633 	add	hl,bc
   1CCC 36 00         [10] 5634 	ld	(hl),#0x00
                           5635 ;alien6.c:832: malos[i].movement=0;
   1CCE 21 09 00      [10] 5636 	ld	hl,#0x0009
   1CD1 09            [11] 5637 	add	hl,bc
   1CD2 36 00         [10] 5638 	ld	(hl),#0x00
                           5639 ;alien6.c:833: malos[i].lastmoved=0;
   1CD4 21 19 00      [10] 5640 	ld	hl,#0x0019
   1CD7 09            [11] 5641 	add	hl,bc
   1CD8 AF            [ 4] 5642 	xor	a, a
   1CD9 77            [ 7] 5643 	ld	(hl), a
   1CDA 23            [ 6] 5644 	inc	hl
   1CDB 77            [ 7] 5645 	ld	(hl), a
   1CDC 23            [ 6] 5646 	inc	hl
   1CDD AF            [ 4] 5647 	xor	a, a
   1CDE 77            [ 7] 5648 	ld	(hl), a
   1CDF 23            [ 6] 5649 	inc	hl
   1CE0 77            [ 7] 5650 	ld	(hl), a
                           5651 ;alien6.c:828: for(i=0;i<MAX_MALOS;i++){
   1CE1 21 1D 00      [10] 5652 	ld	hl,#0x001D
   1CE4 19            [11] 5653 	add	hl,de
   1CE5 5D            [ 4] 5654 	ld	e,l
   1CE6 54            [ 4] 5655 	ld	d,h
   1CE7 FD 21 00 00   [14] 5656 	ld	iy,#0
   1CEB FD 39         [15] 5657 	add	iy,sp
   1CED FD 34 00      [23] 5658 	inc	0 (iy)
   1CF0 FD 7E 00      [19] 5659 	ld	a,0 (iy)
   1CF3 D6 06         [ 7] 5660 	sub	a, #0x06
   1CF5 38 BF         [12] 5661 	jr	C,00115$
                           5662 ;alien6.c:842: malos[0].cx=20;  // coloco en formacin el segundo malo
                           5663 ;alien6.c:843: malos[0].cy=17;  // coloco en formacin el segundo malo
                           5664 ;alien6.c:844: malos[1].cx=32;  // coloco en formacin el segundo malo
                           5665 ;alien6.c:845: malos[1].cy=17;  // coloco en formacin el segundo malo		
                           5666 ;alien6.c:846: malos[2].cx=44;  // coloco en formacin el segundo malo
                           5667 ;alien6.c:847: malos[2].cy=17;  // coloco en formacin el segundo malo
                           5668 ;alien6.c:848: malos[3].cx=56;  // coloco en formacin el segundo malo
                           5669 ;alien6.c:849: malos[3].cy=17;  // coloco en formacin el segundo malo		
                           5670 ;alien6.c:892: malos[4].cx=56;  // coloco en formacin el segundo malo
                           5671 ;alien6.c:893: malos[4].cy=17;  // coloco en formacin el segundo malo			
                           5672 ;alien6.c:836: switch(nivel) {
   1CF7 3Ar94r02      [13] 5673 	ld	a,(#_nivel + 0)
   1CFA EE 80         [ 7] 5674 	xor	a, #0x80
   1CFC D6 81         [ 7] 5675 	sub	a, #0x81
   1CFE DArEEr1F      [10] 5676 	jp	C,00111$
   1D01 3E 03         [ 7] 5677 	ld	a,#0x03
   1D03 FD 21r94r02   [14] 5678 	ld	iy,#_nivel
   1D07 FD 96 00      [19] 5679 	sub	a, 0 (iy)
   1D0A E2r0Fr1D      [10] 5680 	jp	PO, 00232$
   1D0D EE 80         [ 7] 5681 	xor	a, #0x80
   1D0F                    5682 00232$:
   1D0F FArEEr1F      [10] 5683 	jp	M,00111$
   1D12 FD 21r94r02   [14] 5684 	ld	iy,#_nivel
   1D16 FD 5E 00      [19] 5685 	ld	e,0 (iy)
   1D19 1D            [ 4] 5686 	dec	e
   1D1A 16 00         [ 7] 5687 	ld	d,#0x00
   1D1C 21r23r1D      [10] 5688 	ld	hl,#00233$
   1D1F 19            [11] 5689 	add	hl,de
   1D20 19            [11] 5690 	add	hl,de
   1D21 19            [11] 5691 	add	hl,de
   1D22 E9            [ 4] 5692 	jp	(hl)
   1D23                    5693 00233$:
   1D23 C3r2Cr1D      [10] 5694 	jp	00102$
   1D26 C3r14r1E      [10] 5695 	jp	00105$
   1D29 C3rFCr1E      [10] 5696 	jp	00108$
                           5697 ;alien6.c:837: case 1:
   1D2C                    5698 00102$:
                           5699 ;alien6.c:838: malos_activos=4;
   1D2C 21rA1r01      [10] 5700 	ld	hl,#_malos_activos + 0
   1D2F 36 04         [10] 5701 	ld	(hl), #0x04
                           5702 ;alien6.c:839: for (i=0;i < malos_activos;i++){
   1D31 16 00         [ 7] 5703 	ld	d,#0x00
   1D33                    5704 00118$:
   1D33 21rA1r01      [10] 5705 	ld	hl,#_malos_activos
   1D36 7A            [ 4] 5706 	ld	a,d
   1D37 96            [ 7] 5707 	sub	a, (hl)
   1D38 30 0F         [12] 5708 	jr	NC,00103$
                           5709 ;alien6.c:840: cargarMalo(i,1);
   1D3A D5            [11] 5710 	push	de
   1D3B 3E 01         [ 7] 5711 	ld	a,#0x01
   1D3D F5            [11] 5712 	push	af
   1D3E 33            [ 6] 5713 	inc	sp
   1D3F D5            [11] 5714 	push	de
   1D40 33            [ 6] 5715 	inc	sp
   1D41 CDrB3r1A      [17] 5716 	call	_cargarMalo
   1D44 F1            [10] 5717 	pop	af
   1D45 D1            [10] 5718 	pop	de
                           5719 ;alien6.c:839: for (i=0;i < malos_activos;i++){
   1D46 14            [ 4] 5720 	inc	d
   1D47 18 EA         [12] 5721 	jr	00118$
   1D49                    5722 00103$:
                           5723 ;alien6.c:842: malos[0].cx=20;  // coloco en formacin el segundo malo
   1D49 21rF5r00      [10] 5724 	ld	hl,#(_malos + 0x0002)
   1D4C 36 14         [10] 5725 	ld	(hl),#0x14
                           5726 ;alien6.c:843: malos[0].cy=17;  // coloco en formacin el segundo malo
   1D4E 21rF6r00      [10] 5727 	ld	hl,#(_malos + 0x0003)
   1D51 36 11         [10] 5728 	ld	(hl),#0x11
                           5729 ;alien6.c:844: malos[1].cx=32;  // coloco en formacin el segundo malo
   1D53 21r12r01      [10] 5730 	ld	hl,#(_malos + 0x001f)
   1D56 36 20         [10] 5731 	ld	(hl),#0x20
                           5732 ;alien6.c:845: malos[1].cy=17;  // coloco en formacin el segundo malo		
   1D58 21r13r01      [10] 5733 	ld	hl,#(_malos + 0x0020)
   1D5B 36 11         [10] 5734 	ld	(hl),#0x11
                           5735 ;alien6.c:846: malos[2].cx=44;  // coloco en formacin el segundo malo
   1D5D 21r2Fr01      [10] 5736 	ld	hl,#(_malos + 0x003c)
   1D60 36 2C         [10] 5737 	ld	(hl),#0x2C
                           5738 ;alien6.c:847: malos[2].cy=17;  // coloco en formacin el segundo malo
   1D62 21r30r01      [10] 5739 	ld	hl,#(_malos + 0x003d)
   1D65 36 11         [10] 5740 	ld	(hl),#0x11
                           5741 ;alien6.c:848: malos[3].cx=56;  // coloco en formacin el segundo malo
   1D67 21r4Cr01      [10] 5742 	ld	hl,#(_malos + 0x0059)
   1D6A 36 38         [10] 5743 	ld	(hl),#0x38
                           5744 ;alien6.c:849: malos[3].cy=17;  // coloco en formacin el segundo malo		
   1D6C 21r4Dr01      [10] 5745 	ld	hl,#(_malos + 0x005a)
   1D6F 36 11         [10] 5746 	ld	(hl),#0x11
                           5747 ;alien6.c:850: for (i=0;i < malos_activos;i++){
   1D71 FD 21 00 00   [14] 5748 	ld	iy,#0
   1D75 FD 39         [15] 5749 	add	iy,sp
   1D77 FD 36 00 00   [19] 5750 	ld	0 (iy),#0x00
   1D7B 21 05 00      [10] 5751 	ld	hl, #5
   1D7E 39            [11] 5752 	add	hl, sp
   1D7F AF            [ 4] 5753 	xor	a, a
   1D80 77            [ 7] 5754 	ld	(hl), a
   1D81 23            [ 6] 5755 	inc	hl
   1D82 77            [ 7] 5756 	ld	(hl), a
   1D83                    5757 00121$:
   1D83 21rA1r01      [10] 5758 	ld	hl,#_malos_activos
   1D86 FD 21 00 00   [14] 5759 	ld	iy,#0
   1D8A FD 39         [15] 5760 	add	iy,sp
   1D8C FD 7E 00      [19] 5761 	ld	a,0 (iy)
   1D8F 96            [ 7] 5762 	sub	a, (hl)
   1D90 D2rE0r20      [10] 5763 	jp	NC,00141$
                           5764 ;alien6.c:851: malos[i].ox=malos[i].cx;
   1D93 3ErF3         [ 7] 5765 	ld	a,#<(_malos)
   1D95 21 05 00      [10] 5766 	ld	hl,#5
   1D98 39            [11] 5767 	add	hl,sp
   1D99 86            [ 7] 5768 	add	a, (hl)
   1D9A 5F            [ 4] 5769 	ld	e,a
   1D9B 3Es00         [ 7] 5770 	ld	a,#>(_malos)
   1D9D 23            [ 6] 5771 	inc	hl
   1D9E 8E            [ 7] 5772 	adc	a, (hl)
   1D9F 57            [ 4] 5773 	ld	d,a
   1DA0 21 04 00      [10] 5774 	ld	hl,#0x0004
   1DA3 19            [11] 5775 	add	hl,de
   1DA4 4D            [ 4] 5776 	ld	c,l
   1DA5 44            [ 4] 5777 	ld	b,h
   1DA6 21 02 00      [10] 5778 	ld	hl,#0x0002
   1DA9 19            [11] 5779 	add	hl,de
   1DAA FD 21 03 00   [14] 5780 	ld	iy,#3
   1DAE FD 39         [15] 5781 	add	iy,sp
   1DB0 FD 75 00      [19] 5782 	ld	0 (iy),l
   1DB3 FD 74 01      [19] 5783 	ld	1 (iy),h
   1DB6 FD 6E 00      [19] 5784 	ld	l,0 (iy)
   1DB9 FD 66 01      [19] 5785 	ld	h,1 (iy)
   1DBC 7E            [ 7] 5786 	ld	a,(hl)
   1DBD 02            [ 7] 5787 	ld	(bc),a
                           5788 ;alien6.c:852: malos[i].oy=malos[i].cy;
   1DBE 21 05 00      [10] 5789 	ld	hl,#0x0005
   1DC1 19            [11] 5790 	add	hl,de
   1DC2 4D            [ 4] 5791 	ld	c,l
   1DC3 44            [ 4] 5792 	ld	b,h
   1DC4 21 03 00      [10] 5793 	ld	hl,#0x0003
   1DC7 19            [11] 5794 	add	hl,de
   1DC8 FD 21 01 00   [14] 5795 	ld	iy,#1
   1DCC FD 39         [15] 5796 	add	iy,sp
   1DCE FD 75 00      [19] 5797 	ld	0 (iy),l
   1DD1 FD 74 01      [19] 5798 	ld	1 (iy),h
   1DD4 FD 6E 00      [19] 5799 	ld	l,0 (iy)
   1DD7 FD 66 01      [19] 5800 	ld	h,1 (iy)
   1DDA 7E            [ 7] 5801 	ld	a,(hl)
   1DDB 02            [ 7] 5802 	ld	(bc),a
                           5803 ;alien6.c:853: malos[i].homeX=malos[i].cx;
   1DDC 21 0B 00      [10] 5804 	ld	hl,#0x000B
   1DDF 19            [11] 5805 	add	hl,de
   1DE0 4D            [ 4] 5806 	ld	c,l
   1DE1 44            [ 4] 5807 	ld	b,h
   1DE2 21 03 00      [10] 5808 	ld	hl, #3
   1DE5 39            [11] 5809 	add	hl, sp
   1DE6 7E            [ 7] 5810 	ld	a, (hl)
   1DE7 23            [ 6] 5811 	inc	hl
   1DE8 66            [ 7] 5812 	ld	h, (hl)
   1DE9 6F            [ 4] 5813 	ld	l, a
   1DEA 7E            [ 7] 5814 	ld	a,(hl)
   1DEB 02            [ 7] 5815 	ld	(bc),a
                           5816 ;alien6.c:854: malos[i].homeY=malos[i].cy;
   1DEC 21 0C 00      [10] 5817 	ld	hl,#0x000C
   1DEF 19            [11] 5818 	add	hl,de
   1DF0 EB            [ 4] 5819 	ex	de,hl
   1DF1 21 01 00      [10] 5820 	ld	hl, #1
   1DF4 39            [11] 5821 	add	hl, sp
   1DF5 7E            [ 7] 5822 	ld	a, (hl)
   1DF6 23            [ 6] 5823 	inc	hl
   1DF7 66            [ 7] 5824 	ld	h, (hl)
   1DF8 6F            [ 4] 5825 	ld	l, a
   1DF9 7E            [ 7] 5826 	ld	a,(hl)
   1DFA 12            [ 7] 5827 	ld	(de),a
                           5828 ;alien6.c:850: for (i=0;i < malos_activos;i++){
   1DFB 21 05 00      [10] 5829 	ld	hl,#5
   1DFE 39            [11] 5830 	add	hl,sp
   1DFF 7E            [ 7] 5831 	ld	a,(hl)
   1E00 C6 1D         [ 7] 5832 	add	a, #0x1D
   1E02 77            [ 7] 5833 	ld	(hl),a
   1E03 23            [ 6] 5834 	inc	hl
   1E04 7E            [ 7] 5835 	ld	a,(hl)
   1E05 CE 00         [ 7] 5836 	adc	a, #0x00
   1E07 77            [ 7] 5837 	ld	(hl),a
   1E08 FD 21 00 00   [14] 5838 	ld	iy,#0
   1E0C FD 39         [15] 5839 	add	iy,sp
   1E0E FD 34 00      [23] 5840 	inc	0 (iy)
   1E11 C3r83r1D      [10] 5841 	jp	00121$
                           5842 ;alien6.c:858: case 2:
   1E14                    5843 00105$:
                           5844 ;alien6.c:859: malos_activos=4;
   1E14 21rA1r01      [10] 5845 	ld	hl,#_malos_activos + 0
   1E17 36 04         [10] 5846 	ld	(hl), #0x04
                           5847 ;alien6.c:860: for (i=0;i < malos_activos;i++){
   1E19 16 00         [ 7] 5848 	ld	d,#0x00
   1E1B                    5849 00124$:
   1E1B 21rA1r01      [10] 5850 	ld	hl,#_malos_activos
   1E1E 7A            [ 4] 5851 	ld	a,d
   1E1F 96            [ 7] 5852 	sub	a, (hl)
   1E20 30 0F         [12] 5853 	jr	NC,00106$
                           5854 ;alien6.c:861: cargarMalo(i,2);
   1E22 D5            [11] 5855 	push	de
   1E23 3E 02         [ 7] 5856 	ld	a,#0x02
   1E25 F5            [11] 5857 	push	af
   1E26 33            [ 6] 5858 	inc	sp
   1E27 D5            [11] 5859 	push	de
   1E28 33            [ 6] 5860 	inc	sp
   1E29 CDrB3r1A      [17] 5861 	call	_cargarMalo
   1E2C F1            [10] 5862 	pop	af
   1E2D D1            [10] 5863 	pop	de
                           5864 ;alien6.c:860: for (i=0;i < malos_activos;i++){
   1E2E 14            [ 4] 5865 	inc	d
   1E2F 18 EA         [12] 5866 	jr	00124$
   1E31                    5867 00106$:
                           5868 ;alien6.c:863: malos[0].cx=29;  // coloco en formacin el segundo malo
   1E31 21rF5r00      [10] 5869 	ld	hl,#(_malos + 0x0002)
   1E34 36 1D         [10] 5870 	ld	(hl),#0x1D
                           5871 ;alien6.c:864: malos[0].cy=20;  // coloco en formacin el segundo malo
   1E36 21rF6r00      [10] 5872 	ld	hl,#(_malos + 0x0003)
   1E39 36 14         [10] 5873 	ld	(hl),#0x14
                           5874 ;alien6.c:865: malos[1].cx=38;  // coloco en formacin el segundo malo
   1E3B 21r12r01      [10] 5875 	ld	hl,#(_malos + 0x001f)
   1E3E 36 26         [10] 5876 	ld	(hl),#0x26
                           5877 ;alien6.c:866: malos[1].cy=28;  // coloco en formacin el segundo malo		
   1E40 21r13r01      [10] 5878 	ld	hl,#(_malos + 0x0020)
   1E43 36 1C         [10] 5879 	ld	(hl),#0x1C
                           5880 ;alien6.c:867: malos[2].cx=47;  // coloco en formacin el segundo malo
   1E45 21r2Fr01      [10] 5881 	ld	hl,#(_malos + 0x003c)
   1E48 36 2F         [10] 5882 	ld	(hl),#0x2F
                           5883 ;alien6.c:868: malos[2].cy=20;  // coloco en formacin el segundo malo
   1E4A 21r30r01      [10] 5884 	ld	hl,#(_malos + 0x003d)
   1E4D 36 14         [10] 5885 	ld	(hl),#0x14
                           5886 ;alien6.c:869: malos[3].cx=56;  // coloco en formacin el segundo malo
   1E4F 21r4Cr01      [10] 5887 	ld	hl,#(_malos + 0x0059)
   1E52 36 38         [10] 5888 	ld	(hl),#0x38
                           5889 ;alien6.c:870: malos[3].cy=28;  // coloco en formacin el segundo malo		
   1E54 21r4Dr01      [10] 5890 	ld	hl,#(_malos + 0x005a)
   1E57 36 1C         [10] 5891 	ld	(hl),#0x1C
                           5892 ;alien6.c:871: for (i=0;i < malos_activos;i++){
   1E59 FD 21 00 00   [14] 5893 	ld	iy,#0
   1E5D FD 39         [15] 5894 	add	iy,sp
   1E5F FD 36 00 00   [19] 5895 	ld	0 (iy),#0x00
   1E63 21 01 00      [10] 5896 	ld	hl, #1
   1E66 39            [11] 5897 	add	hl, sp
   1E67 AF            [ 4] 5898 	xor	a, a
   1E68 77            [ 7] 5899 	ld	(hl), a
   1E69 23            [ 6] 5900 	inc	hl
   1E6A 77            [ 7] 5901 	ld	(hl), a
   1E6B                    5902 00127$:
   1E6B 21rA1r01      [10] 5903 	ld	hl,#_malos_activos
   1E6E FD 21 00 00   [14] 5904 	ld	iy,#0
   1E72 FD 39         [15] 5905 	add	iy,sp
   1E74 FD 7E 00      [19] 5906 	ld	a,0 (iy)
   1E77 96            [ 7] 5907 	sub	a, (hl)
   1E78 D2rE0r20      [10] 5908 	jp	NC,00141$
                           5909 ;alien6.c:872: malos[i].ox=malos[i].cx;
   1E7B 3ErF3         [ 7] 5910 	ld	a,#<(_malos)
   1E7D 21 01 00      [10] 5911 	ld	hl,#1
   1E80 39            [11] 5912 	add	hl,sp
   1E81 86            [ 7] 5913 	add	a, (hl)
   1E82 5F            [ 4] 5914 	ld	e,a
   1E83 3Es00         [ 7] 5915 	ld	a,#>(_malos)
   1E85 23            [ 6] 5916 	inc	hl
   1E86 8E            [ 7] 5917 	adc	a, (hl)
   1E87 57            [ 4] 5918 	ld	d,a
   1E88 21 04 00      [10] 5919 	ld	hl,#0x0004
   1E8B 19            [11] 5920 	add	hl,de
   1E8C 4D            [ 4] 5921 	ld	c,l
   1E8D 44            [ 4] 5922 	ld	b,h
   1E8E 21 02 00      [10] 5923 	ld	hl,#0x0002
   1E91 19            [11] 5924 	add	hl,de
   1E92 FD 21 03 00   [14] 5925 	ld	iy,#3
   1E96 FD 39         [15] 5926 	add	iy,sp
   1E98 FD 75 00      [19] 5927 	ld	0 (iy),l
   1E9B FD 74 01      [19] 5928 	ld	1 (iy),h
   1E9E FD 6E 00      [19] 5929 	ld	l,0 (iy)
   1EA1 FD 66 01      [19] 5930 	ld	h,1 (iy)
   1EA4 7E            [ 7] 5931 	ld	a,(hl)
   1EA5 02            [ 7] 5932 	ld	(bc),a
                           5933 ;alien6.c:873: malos[i].oy=malos[i].cy;
   1EA6 21 05 00      [10] 5934 	ld	hl,#0x0005
   1EA9 19            [11] 5935 	add	hl,de
   1EAA 4D            [ 4] 5936 	ld	c,l
   1EAB 44            [ 4] 5937 	ld	b,h
   1EAC 21 03 00      [10] 5938 	ld	hl,#0x0003
   1EAF 19            [11] 5939 	add	hl,de
   1EB0 FD 21 05 00   [14] 5940 	ld	iy,#5
   1EB4 FD 39         [15] 5941 	add	iy,sp
   1EB6 FD 75 00      [19] 5942 	ld	0 (iy),l
   1EB9 FD 74 01      [19] 5943 	ld	1 (iy),h
   1EBC FD 6E 00      [19] 5944 	ld	l,0 (iy)
   1EBF FD 66 01      [19] 5945 	ld	h,1 (iy)
   1EC2 7E            [ 7] 5946 	ld	a,(hl)
   1EC3 02            [ 7] 5947 	ld	(bc),a
                           5948 ;alien6.c:874: malos[i].homeX=malos[i].cx;
   1EC4 21 0B 00      [10] 5949 	ld	hl,#0x000B
   1EC7 19            [11] 5950 	add	hl,de
   1EC8 4D            [ 4] 5951 	ld	c,l
   1EC9 44            [ 4] 5952 	ld	b,h
   1ECA 21 03 00      [10] 5953 	ld	hl, #3
   1ECD 39            [11] 5954 	add	hl, sp
   1ECE 7E            [ 7] 5955 	ld	a, (hl)
   1ECF 23            [ 6] 5956 	inc	hl
   1ED0 66            [ 7] 5957 	ld	h, (hl)
   1ED1 6F            [ 4] 5958 	ld	l, a
   1ED2 7E            [ 7] 5959 	ld	a,(hl)
   1ED3 02            [ 7] 5960 	ld	(bc),a
                           5961 ;alien6.c:875: malos[i].homeY=malos[i].cy;
   1ED4 21 0C 00      [10] 5962 	ld	hl,#0x000C
   1ED7 19            [11] 5963 	add	hl,de
   1ED8 EB            [ 4] 5964 	ex	de,hl
   1ED9 21 05 00      [10] 5965 	ld	hl, #5
   1EDC 39            [11] 5966 	add	hl, sp
   1EDD 7E            [ 7] 5967 	ld	a, (hl)
   1EDE 23            [ 6] 5968 	inc	hl
   1EDF 66            [ 7] 5969 	ld	h, (hl)
   1EE0 6F            [ 4] 5970 	ld	l, a
   1EE1 7E            [ 7] 5971 	ld	a,(hl)
   1EE2 12            [ 7] 5972 	ld	(de),a
                           5973 ;alien6.c:871: for (i=0;i < malos_activos;i++){
   1EE3 21 01 00      [10] 5974 	ld	hl,#1
   1EE6 39            [11] 5975 	add	hl,sp
   1EE7 7E            [ 7] 5976 	ld	a,(hl)
   1EE8 C6 1D         [ 7] 5977 	add	a, #0x1D
   1EEA 77            [ 7] 5978 	ld	(hl),a
   1EEB 23            [ 6] 5979 	inc	hl
   1EEC 7E            [ 7] 5980 	ld	a,(hl)
   1EED CE 00         [ 7] 5981 	adc	a, #0x00
   1EEF 77            [ 7] 5982 	ld	(hl),a
   1EF0 FD 21 00 00   [14] 5983 	ld	iy,#0
   1EF4 FD 39         [15] 5984 	add	iy,sp
   1EF6 FD 34 00      [23] 5985 	inc	0 (iy)
   1EF9 C3r6Br1E      [10] 5986 	jp	00127$
                           5987 ;alien6.c:879: case 3:
   1EFC                    5988 00108$:
                           5989 ;alien6.c:880: malos_activos=5;
   1EFC 21rA1r01      [10] 5990 	ld	hl,#_malos_activos + 0
   1EFF 36 05         [10] 5991 	ld	(hl), #0x05
                           5992 ;alien6.c:881: for (i=0;i < malos_activos;i++){
   1F01 16 00         [ 7] 5993 	ld	d,#0x00
   1F03                    5994 00130$:
   1F03 21rA1r01      [10] 5995 	ld	hl,#_malos_activos
   1F06 7A            [ 4] 5996 	ld	a,d
   1F07 96            [ 7] 5997 	sub	a, (hl)
   1F08 30 0F         [12] 5998 	jr	NC,00109$
                           5999 ;alien6.c:882: cargarMalo(i,3);
   1F0A D5            [11] 6000 	push	de
   1F0B 3E 03         [ 7] 6001 	ld	a,#0x03
   1F0D F5            [11] 6002 	push	af
   1F0E 33            [ 6] 6003 	inc	sp
   1F0F D5            [11] 6004 	push	de
   1F10 33            [ 6] 6005 	inc	sp
   1F11 CDrB3r1A      [17] 6006 	call	_cargarMalo
   1F14 F1            [10] 6007 	pop	af
   1F15 D1            [10] 6008 	pop	de
                           6009 ;alien6.c:881: for (i=0;i < malos_activos;i++){
   1F16 14            [ 4] 6010 	inc	d
   1F17 18 EA         [12] 6011 	jr	00130$
   1F19                    6012 00109$:
                           6013 ;alien6.c:884: malos[0].cx=20;  // coloco en formacin el segundo malo
   1F19 21rF5r00      [10] 6014 	ld	hl,#(_malos + 0x0002)
   1F1C 36 14         [10] 6015 	ld	(hl),#0x14
                           6016 ;alien6.c:885: malos[0].cy=17;  // coloco en formacin el segundo malo
   1F1E 21rF6r00      [10] 6017 	ld	hl,#(_malos + 0x0003)
   1F21 36 11         [10] 6018 	ld	(hl),#0x11
                           6019 ;alien6.c:886: malos[1].cx=29;  // coloco en formacin el segundo malo
   1F23 21r12r01      [10] 6020 	ld	hl,#(_malos + 0x001f)
   1F26 36 1D         [10] 6021 	ld	(hl),#0x1D
                           6022 ;alien6.c:887: malos[1].cy=17;  // coloco en formacin el segundo malo		
   1F28 21r13r01      [10] 6023 	ld	hl,#(_malos + 0x0020)
   1F2B 36 11         [10] 6024 	ld	(hl),#0x11
                           6025 ;alien6.c:888: malos[2].cx=38;  // coloco en formacin el segundo malo
   1F2D 21r2Fr01      [10] 6026 	ld	hl,#(_malos + 0x003c)
   1F30 36 26         [10] 6027 	ld	(hl),#0x26
                           6028 ;alien6.c:889: malos[2].cy=17;  // coloco en formacin el segundo malo
   1F32 21r30r01      [10] 6029 	ld	hl,#(_malos + 0x003d)
   1F35 36 11         [10] 6030 	ld	(hl),#0x11
                           6031 ;alien6.c:890: malos[3].cx=47;  // coloco en formacin el segundo malo
   1F37 21r4Cr01      [10] 6032 	ld	hl,#(_malos + 0x0059)
   1F3A 36 2F         [10] 6033 	ld	(hl),#0x2F
                           6034 ;alien6.c:891: malos[3].cy=17;  // coloco en formacin el segundo malo
   1F3C 21r4Dr01      [10] 6035 	ld	hl,#(_malos + 0x005a)
   1F3F 36 11         [10] 6036 	ld	(hl),#0x11
                           6037 ;alien6.c:892: malos[4].cx=56;  // coloco en formacin el segundo malo
   1F41 21r69r01      [10] 6038 	ld	hl,#(_malos + 0x0076)
   1F44 36 38         [10] 6039 	ld	(hl),#0x38
                           6040 ;alien6.c:893: malos[4].cy=17;  // coloco en formacin el segundo malo			
   1F46 21r6Ar01      [10] 6041 	ld	hl,#(_malos + 0x0077)
   1F49 36 11         [10] 6042 	ld	(hl),#0x11
                           6043 ;alien6.c:894: for (i=0;i < malos_activos;i++){
   1F4B FD 21 00 00   [14] 6044 	ld	iy,#0
   1F4F FD 39         [15] 6045 	add	iy,sp
   1F51 FD 36 00 00   [19] 6046 	ld	0 (iy),#0x00
   1F55 21 01 00      [10] 6047 	ld	hl, #1
   1F58 39            [11] 6048 	add	hl, sp
   1F59 AF            [ 4] 6049 	xor	a, a
   1F5A 77            [ 7] 6050 	ld	(hl), a
   1F5B 23            [ 6] 6051 	inc	hl
   1F5C 77            [ 7] 6052 	ld	(hl), a
   1F5D                    6053 00133$:
   1F5D 21rA1r01      [10] 6054 	ld	hl,#_malos_activos
   1F60 FD 21 00 00   [14] 6055 	ld	iy,#0
   1F64 FD 39         [15] 6056 	add	iy,sp
   1F66 FD 7E 00      [19] 6057 	ld	a,0 (iy)
   1F69 96            [ 7] 6058 	sub	a, (hl)
   1F6A D2rE0r20      [10] 6059 	jp	NC,00141$
                           6060 ;alien6.c:895: malos[i].ox=malos[i].cx;
   1F6D 3ErF3         [ 7] 6061 	ld	a,#<(_malos)
   1F6F 21 01 00      [10] 6062 	ld	hl,#1
   1F72 39            [11] 6063 	add	hl,sp
   1F73 86            [ 7] 6064 	add	a, (hl)
   1F74 5F            [ 4] 6065 	ld	e,a
   1F75 3Es00         [ 7] 6066 	ld	a,#>(_malos)
   1F77 23            [ 6] 6067 	inc	hl
   1F78 8E            [ 7] 6068 	adc	a, (hl)
   1F79 57            [ 4] 6069 	ld	d,a
   1F7A 21 04 00      [10] 6070 	ld	hl,#0x0004
   1F7D 19            [11] 6071 	add	hl,de
   1F7E 4D            [ 4] 6072 	ld	c,l
   1F7F 44            [ 4] 6073 	ld	b,h
   1F80 21 02 00      [10] 6074 	ld	hl,#0x0002
   1F83 19            [11] 6075 	add	hl,de
   1F84 FD 21 03 00   [14] 6076 	ld	iy,#3
   1F88 FD 39         [15] 6077 	add	iy,sp
   1F8A FD 75 00      [19] 6078 	ld	0 (iy),l
   1F8D FD 74 01      [19] 6079 	ld	1 (iy),h
   1F90 FD 6E 00      [19] 6080 	ld	l,0 (iy)
   1F93 FD 66 01      [19] 6081 	ld	h,1 (iy)
   1F96 7E            [ 7] 6082 	ld	a,(hl)
   1F97 02            [ 7] 6083 	ld	(bc),a
                           6084 ;alien6.c:896: malos[i].oy=malos[i].cy;
   1F98 21 05 00      [10] 6085 	ld	hl,#0x0005
   1F9B 19            [11] 6086 	add	hl,de
   1F9C 4D            [ 4] 6087 	ld	c,l
   1F9D 44            [ 4] 6088 	ld	b,h
   1F9E 21 03 00      [10] 6089 	ld	hl,#0x0003
   1FA1 19            [11] 6090 	add	hl,de
   1FA2 FD 21 05 00   [14] 6091 	ld	iy,#5
   1FA6 FD 39         [15] 6092 	add	iy,sp
   1FA8 FD 75 00      [19] 6093 	ld	0 (iy),l
   1FAB FD 74 01      [19] 6094 	ld	1 (iy),h
   1FAE FD 6E 00      [19] 6095 	ld	l,0 (iy)
   1FB1 FD 66 01      [19] 6096 	ld	h,1 (iy)
   1FB4 7E            [ 7] 6097 	ld	a,(hl)
   1FB5 02            [ 7] 6098 	ld	(bc),a
                           6099 ;alien6.c:897: malos[i].homeX=malos[i].cx;
   1FB6 21 0B 00      [10] 6100 	ld	hl,#0x000B
   1FB9 19            [11] 6101 	add	hl,de
   1FBA 4D            [ 4] 6102 	ld	c,l
   1FBB 44            [ 4] 6103 	ld	b,h
   1FBC 21 03 00      [10] 6104 	ld	hl, #3
   1FBF 39            [11] 6105 	add	hl, sp
   1FC0 7E            [ 7] 6106 	ld	a, (hl)
   1FC1 23            [ 6] 6107 	inc	hl
   1FC2 66            [ 7] 6108 	ld	h, (hl)
   1FC3 6F            [ 4] 6109 	ld	l, a
   1FC4 7E            [ 7] 6110 	ld	a,(hl)
   1FC5 02            [ 7] 6111 	ld	(bc),a
                           6112 ;alien6.c:898: malos[i].homeY=malos[i].cy;
   1FC6 21 0C 00      [10] 6113 	ld	hl,#0x000C
   1FC9 19            [11] 6114 	add	hl,de
   1FCA EB            [ 4] 6115 	ex	de,hl
   1FCB 21 05 00      [10] 6116 	ld	hl, #5
   1FCE 39            [11] 6117 	add	hl, sp
   1FCF 7E            [ 7] 6118 	ld	a, (hl)
   1FD0 23            [ 6] 6119 	inc	hl
   1FD1 66            [ 7] 6120 	ld	h, (hl)
   1FD2 6F            [ 4] 6121 	ld	l, a
   1FD3 7E            [ 7] 6122 	ld	a,(hl)
   1FD4 12            [ 7] 6123 	ld	(de),a
                           6124 ;alien6.c:894: for (i=0;i < malos_activos;i++){
   1FD5 21 01 00      [10] 6125 	ld	hl,#1
   1FD8 39            [11] 6126 	add	hl,sp
   1FD9 7E            [ 7] 6127 	ld	a,(hl)
   1FDA C6 1D         [ 7] 6128 	add	a, #0x1D
   1FDC 77            [ 7] 6129 	ld	(hl),a
   1FDD 23            [ 6] 6130 	inc	hl
   1FDE 7E            [ 7] 6131 	ld	a,(hl)
   1FDF CE 00         [ 7] 6132 	adc	a, #0x00
   1FE1 77            [ 7] 6133 	ld	(hl),a
   1FE2 FD 21 00 00   [14] 6134 	ld	iy,#0
   1FE6 FD 39         [15] 6135 	add	iy,sp
   1FE8 FD 34 00      [23] 6136 	inc	0 (iy)
   1FEB C3r5Dr1F      [10] 6137 	jp	00133$
                           6138 ;alien6.c:902: default:
   1FEE                    6139 00111$:
                           6140 ;alien6.c:903: malos_activos=5;
   1FEE 21rA1r01      [10] 6141 	ld	hl,#_malos_activos + 0
   1FF1 36 05         [10] 6142 	ld	(hl), #0x05
                           6143 ;alien6.c:904: for (i=0;i < malos_activos;i++){
   1FF3 16 00         [ 7] 6144 	ld	d,#0x00
   1FF5                    6145 00136$:
   1FF5 21rA1r01      [10] 6146 	ld	hl,#_malos_activos
   1FF8 7A            [ 4] 6147 	ld	a,d
   1FF9 96            [ 7] 6148 	sub	a, (hl)
   1FFA 30 0F         [12] 6149 	jr	NC,00112$
                           6150 ;alien6.c:905: cargarMalo(i,3);
   1FFC D5            [11] 6151 	push	de
   1FFD 3E 03         [ 7] 6152 	ld	a,#0x03
   1FFF F5            [11] 6153 	push	af
   2000 33            [ 6] 6154 	inc	sp
   2001 D5            [11] 6155 	push	de
   2002 33            [ 6] 6156 	inc	sp
   2003 CDrB3r1A      [17] 6157 	call	_cargarMalo
   2006 F1            [10] 6158 	pop	af
   2007 D1            [10] 6159 	pop	de
                           6160 ;alien6.c:904: for (i=0;i < malos_activos;i++){
   2008 14            [ 4] 6161 	inc	d
   2009 18 EA         [12] 6162 	jr	00136$
   200B                    6163 00112$:
                           6164 ;alien6.c:907: malos[0].cx=20;  // coloco en formacin el segundo malo
   200B 21rF5r00      [10] 6165 	ld	hl,#(_malos + 0x0002)
   200E 36 14         [10] 6166 	ld	(hl),#0x14
                           6167 ;alien6.c:908: malos[0].cy=17;  // coloco en formacin el segundo malo
   2010 21rF6r00      [10] 6168 	ld	hl,#(_malos + 0x0003)
   2013 36 11         [10] 6169 	ld	(hl),#0x11
                           6170 ;alien6.c:909: malos[1].cx=29;  // coloco en formacin el segundo malo
   2015 21r12r01      [10] 6171 	ld	hl,#(_malos + 0x001f)
   2018 36 1D         [10] 6172 	ld	(hl),#0x1D
                           6173 ;alien6.c:910: malos[1].cy=17;  // coloco en formacin el segundo malo		
   201A 21r13r01      [10] 6174 	ld	hl,#(_malos + 0x0020)
   201D 36 11         [10] 6175 	ld	(hl),#0x11
                           6176 ;alien6.c:911: malos[2].cx=38;  // coloco en formacin el segundo malo
   201F 21r2Fr01      [10] 6177 	ld	hl,#(_malos + 0x003c)
   2022 36 26         [10] 6178 	ld	(hl),#0x26
                           6179 ;alien6.c:912: malos[2].cy=17;  // coloco en formacin el segundo malo
   2024 21r30r01      [10] 6180 	ld	hl,#(_malos + 0x003d)
   2027 36 11         [10] 6181 	ld	(hl),#0x11
                           6182 ;alien6.c:913: malos[3].cx=47;  // coloco en formacin el segundo malo
   2029 21r4Cr01      [10] 6183 	ld	hl,#(_malos + 0x0059)
   202C 36 2F         [10] 6184 	ld	(hl),#0x2F
                           6185 ;alien6.c:914: malos[3].cy=17;  // coloco en formacin el segundo malo
   202E 21r4Dr01      [10] 6186 	ld	hl,#(_malos + 0x005a)
   2031 36 11         [10] 6187 	ld	(hl),#0x11
                           6188 ;alien6.c:915: malos[4].cx=56;  // coloco en formacin el segundo malo
   2033 21r69r01      [10] 6189 	ld	hl,#(_malos + 0x0076)
   2036 36 38         [10] 6190 	ld	(hl),#0x38
                           6191 ;alien6.c:916: malos[4].cy=17;  // coloco en formacin el segundo malo			
   2038 21r6Ar01      [10] 6192 	ld	hl,#(_malos + 0x0077)
   203B 36 11         [10] 6193 	ld	(hl),#0x11
                           6194 ;alien6.c:917: for (i=0;i < malos_activos;i++){
   203D FD 21 00 00   [14] 6195 	ld	iy,#0
   2041 FD 39         [15] 6196 	add	iy,sp
   2043 FD 36 00 00   [19] 6197 	ld	0 (iy),#0x00
   2047 21 01 00      [10] 6198 	ld	hl, #1
   204A 39            [11] 6199 	add	hl, sp
   204B AF            [ 4] 6200 	xor	a, a
   204C 77            [ 7] 6201 	ld	(hl), a
   204D 23            [ 6] 6202 	inc	hl
   204E 77            [ 7] 6203 	ld	(hl), a
   204F                    6204 00139$:
   204F 21rA1r01      [10] 6205 	ld	hl,#_malos_activos
   2052 FD 21 00 00   [14] 6206 	ld	iy,#0
   2056 FD 39         [15] 6207 	add	iy,sp
   2058 FD 7E 00      [19] 6208 	ld	a,0 (iy)
   205B 96            [ 7] 6209 	sub	a, (hl)
   205C D2rE0r20      [10] 6210 	jp	NC,00141$
                           6211 ;alien6.c:918: malos[i].ox=malos[i].cx;
   205F 3ErF3         [ 7] 6212 	ld	a,#<(_malos)
   2061 21 01 00      [10] 6213 	ld	hl,#1
   2064 39            [11] 6214 	add	hl,sp
   2065 86            [ 7] 6215 	add	a, (hl)
   2066 5F            [ 4] 6216 	ld	e,a
   2067 3Es00         [ 7] 6217 	ld	a,#>(_malos)
   2069 23            [ 6] 6218 	inc	hl
   206A 8E            [ 7] 6219 	adc	a, (hl)
   206B 57            [ 4] 6220 	ld	d,a
   206C 21 04 00      [10] 6221 	ld	hl,#0x0004
   206F 19            [11] 6222 	add	hl,de
   2070 4D            [ 4] 6223 	ld	c,l
   2071 44            [ 4] 6224 	ld	b,h
   2072 21 02 00      [10] 6225 	ld	hl,#0x0002
   2075 19            [11] 6226 	add	hl,de
   2076 FD 21 03 00   [14] 6227 	ld	iy,#3
   207A FD 39         [15] 6228 	add	iy,sp
   207C FD 75 00      [19] 6229 	ld	0 (iy),l
   207F FD 74 01      [19] 6230 	ld	1 (iy),h
   2082 FD 6E 00      [19] 6231 	ld	l,0 (iy)
   2085 FD 66 01      [19] 6232 	ld	h,1 (iy)
   2088 7E            [ 7] 6233 	ld	a,(hl)
   2089 02            [ 7] 6234 	ld	(bc),a
                           6235 ;alien6.c:919: malos[i].oy=malos[i].cy;
   208A 21 05 00      [10] 6236 	ld	hl,#0x0005
   208D 19            [11] 6237 	add	hl,de
   208E 4D            [ 4] 6238 	ld	c,l
   208F 44            [ 4] 6239 	ld	b,h
   2090 21 03 00      [10] 6240 	ld	hl,#0x0003
   2093 19            [11] 6241 	add	hl,de
   2094 FD 21 05 00   [14] 6242 	ld	iy,#5
   2098 FD 39         [15] 6243 	add	iy,sp
   209A FD 75 00      [19] 6244 	ld	0 (iy),l
   209D FD 74 01      [19] 6245 	ld	1 (iy),h
   20A0 FD 6E 00      [19] 6246 	ld	l,0 (iy)
   20A3 FD 66 01      [19] 6247 	ld	h,1 (iy)
   20A6 7E            [ 7] 6248 	ld	a,(hl)
   20A7 02            [ 7] 6249 	ld	(bc),a
                           6250 ;alien6.c:920: malos[i].homeX=malos[i].cx;
   20A8 21 0B 00      [10] 6251 	ld	hl,#0x000B
   20AB 19            [11] 6252 	add	hl,de
   20AC 4D            [ 4] 6253 	ld	c,l
   20AD 44            [ 4] 6254 	ld	b,h
   20AE 21 03 00      [10] 6255 	ld	hl, #3
   20B1 39            [11] 6256 	add	hl, sp
   20B2 7E            [ 7] 6257 	ld	a, (hl)
   20B3 23            [ 6] 6258 	inc	hl
   20B4 66            [ 7] 6259 	ld	h, (hl)
   20B5 6F            [ 4] 6260 	ld	l, a
   20B6 7E            [ 7] 6261 	ld	a,(hl)
   20B7 02            [ 7] 6262 	ld	(bc),a
                           6263 ;alien6.c:921: malos[i].homeY=malos[i].cy;
   20B8 21 0C 00      [10] 6264 	ld	hl,#0x000C
   20BB 19            [11] 6265 	add	hl,de
   20BC EB            [ 4] 6266 	ex	de,hl
   20BD 21 05 00      [10] 6267 	ld	hl, #5
   20C0 39            [11] 6268 	add	hl, sp
   20C1 7E            [ 7] 6269 	ld	a, (hl)
   20C2 23            [ 6] 6270 	inc	hl
   20C3 66            [ 7] 6271 	ld	h, (hl)
   20C4 6F            [ 4] 6272 	ld	l, a
   20C5 7E            [ 7] 6273 	ld	a,(hl)
   20C6 12            [ 7] 6274 	ld	(de),a
                           6275 ;alien6.c:917: for (i=0;i < malos_activos;i++){
   20C7 21 01 00      [10] 6276 	ld	hl,#1
   20CA 39            [11] 6277 	add	hl,sp
   20CB 7E            [ 7] 6278 	ld	a,(hl)
   20CC C6 1D         [ 7] 6279 	add	a, #0x1D
   20CE 77            [ 7] 6280 	ld	(hl),a
   20CF 23            [ 6] 6281 	inc	hl
   20D0 7E            [ 7] 6282 	ld	a,(hl)
   20D1 CE 00         [ 7] 6283 	adc	a, #0x00
   20D3 77            [ 7] 6284 	ld	(hl),a
   20D4 FD 21 00 00   [14] 6285 	ld	iy,#0
   20D8 FD 39         [15] 6286 	add	iy,sp
   20DA FD 34 00      [23] 6287 	inc	0 (iy)
   20DD C3r4Fr20      [10] 6288 	jp	00139$
                           6289 ;alien6.c:924: }
   20E0                    6290 00141$:
   20E0 21 07 00      [10] 6291 	ld	hl,#7
   20E3 39            [11] 6292 	add	hl,sp
   20E4 F9            [ 6] 6293 	ld	sp,hl
   20E5 C9            [10] 6294 	ret
   20E6                    6295 _inicializarMalos_end::
                           6296 ;alien6.c:929: void moverMalos(){
                           6297 ;	---------------------------------
                           6298 ; Function moverMalos
                           6299 ; ---------------------------------
   20E6                    6300 _moverMalos_start::
   20E6                    6301 _moverMalos:
   20E6 21 E3 FF      [10] 6302 	ld	hl,#-29
   20E9 39            [11] 6303 	add	hl,sp
   20EA F9            [ 6] 6304 	ld	sp,hl
                           6305 ;alien6.c:935: lapso=getTime();
   20EB CDr89r07      [17] 6306 	call	_getTime
   20EE FD 21 01 00   [14] 6307 	ld	iy,#1
   20F2 FD 39         [15] 6308 	add	iy,sp
   20F4 FD 75 00      [19] 6309 	ld	0 (iy),l
   20F7 FD 74 01      [19] 6310 	ld	1 (iy),h
   20FA FD 73 02      [19] 6311 	ld	2 (iy),e
   20FD FD 72 03      [19] 6312 	ld	3 (iy),d
                           6313 ;alien6.c:936: formMoved=0;
   2100 21r9Fr02      [10] 6314 	ld	hl,#_formMoved + 0
   2103 36 00         [10] 6315 	ld	(hl), #0x00
                           6316 ;alien6.c:938: if (malos_activos>0){
   2105 3ArA1r01      [13] 6317 	ld	a,(#_malos_activos + 0)
   2108 B7            [ 4] 6318 	or	a, a
   2109 CAr11r26      [10] 6319 	jp	Z,00162$
                           6320 ;alien6.c:939: for (i=0;i<MAX_MALOS;i++){
   210C FD 21 06 00   [14] 6321 	ld	iy,#6
   2110 FD 39         [15] 6322 	add	iy,sp
   2112 FD 36 00 00   [19] 6323 	ld	0 (iy),#0x00
   2116 21 1B 00      [10] 6324 	ld	hl, #27
   2119 39            [11] 6325 	add	hl, sp
   211A AF            [ 4] 6326 	xor	a, a
   211B 77            [ 7] 6327 	ld	(hl), a
   211C 23            [ 6] 6328 	inc	hl
   211D 77            [ 7] 6329 	ld	(hl), a
   211E 21 19 00      [10] 6330 	ld	hl, #25
   2121 39            [11] 6331 	add	hl, sp
   2122 AF            [ 4] 6332 	xor	a, a
   2123 77            [ 7] 6333 	ld	(hl), a
   2124 23            [ 6] 6334 	inc	hl
   2125 77            [ 7] 6335 	ld	(hl), a
   2126 21 17 00      [10] 6336 	ld	hl, #23
   2129 39            [11] 6337 	add	hl, sp
   212A AF            [ 4] 6338 	xor	a, a
   212B 77            [ 7] 6339 	ld	(hl), a
   212C 23            [ 6] 6340 	inc	hl
   212D 77            [ 7] 6341 	ld	(hl), a
   212E                    6342 00160$:
                           6343 ;alien6.c:940: if ((malos[i].activo==1) && (!malos[i].nuevo) && (lapso-malos[i].lastmoved>malos[i].speed)){
   212E 3ErF3         [ 7] 6344 	ld	a,#<(_malos)
   2130 21 17 00      [10] 6345 	ld	hl,#23
   2133 39            [11] 6346 	add	hl,sp
   2134 FD 21 15 00   [14] 6347 	ld	iy,#21
   2138 FD 39         [15] 6348 	add	iy,sp
   213A 86            [ 7] 6349 	add	a, (hl)
   213B FD 77 00      [19] 6350 	ld	0 (iy),a
   213E 3Es00         [ 7] 6351 	ld	a,#>(_malos)
   2140 23            [ 6] 6352 	inc	hl
   2141 8E            [ 7] 6353 	adc	a, (hl)
   2142 FD 23         [10] 6354 	inc	iy
   2144 FD 77 00      [19] 6355 	ld	0 (iy),a
   2147 FD 21 15 00   [14] 6356 	ld	iy,#21
   214B FD 39         [15] 6357 	add	iy,sp
   214D FD 6E 00      [19] 6358 	ld	l,0 (iy)
   2150 FD 66 01      [19] 6359 	ld	h,1 (iy)
   2153 11 0D 00      [10] 6360 	ld	de, #0x000D
   2156 19            [11] 6361 	add	hl, de
   2157 7E            [ 7] 6362 	ld	a,(hl)
   2158 3D            [ 4] 6363 	dec	a
   2159 C2rD9r25      [10] 6364 	jp	NZ,00161$
   215C FD 6E 00      [19] 6365 	ld	l,0 (iy)
   215F FD 66 01      [19] 6366 	ld	h,1 (iy)
   2162 11 11 00      [10] 6367 	ld	de, #0x0011
   2165 19            [11] 6368 	add	hl, de
   2166 7E            [ 7] 6369 	ld	a,(hl)
   2167 B7            [ 4] 6370 	or	a, a
   2168 C2rD9r25      [10] 6371 	jp	NZ,00161$
   216B FD 6E 00      [19] 6372 	ld	l,0 (iy)
   216E FD 66 01      [19] 6373 	ld	h,1 (iy)
   2171 11 19 00      [10] 6374 	ld	de, #0x0019
   2174 19            [11] 6375 	add	hl, de
   2175 5E            [ 7] 6376 	ld	e,(hl)
   2176 23            [ 6] 6377 	inc	hl
   2177 56            [ 7] 6378 	ld	d,(hl)
   2178 23            [ 6] 6379 	inc	hl
   2179 4E            [ 7] 6380 	ld	c,(hl)
   217A 23            [ 6] 6381 	inc	hl
   217B 46            [ 7] 6382 	ld	b,(hl)
   217C 21 11 00      [10] 6383 	ld	hl,#17
   217F 39            [11] 6384 	add	hl,sp
   2180 FD 21 01 00   [14] 6385 	ld	iy,#1
   2184 FD 39         [15] 6386 	add	iy,sp
   2186 FD 7E 00      [19] 6387 	ld	a,0 (iy)
   2189 93            [ 4] 6388 	sub	a, e
   218A 77            [ 7] 6389 	ld	(hl),a
   218B FD 7E 01      [19] 6390 	ld	a,1 (iy)
   218E 9A            [ 4] 6391 	sbc	a, d
   218F 23            [ 6] 6392 	inc	hl
   2190 77            [ 7] 6393 	ld	(hl),a
   2191 FD 7E 02      [19] 6394 	ld	a,2 (iy)
   2194 99            [ 4] 6395 	sbc	a, c
   2195 23            [ 6] 6396 	inc	hl
   2196 77            [ 7] 6397 	ld	(hl),a
   2197 FD 7E 03      [19] 6398 	ld	a,3 (iy)
   219A 98            [ 4] 6399 	sbc	a, b
   219B 23            [ 6] 6400 	inc	hl
   219C 77            [ 7] 6401 	ld	(hl),a
   219D 21 15 00      [10] 6402 	ld	hl, #21
   21A0 39            [11] 6403 	add	hl, sp
   21A1 7E            [ 7] 6404 	ld	a, (hl)
   21A2 23            [ 6] 6405 	inc	hl
   21A3 66            [ 7] 6406 	ld	h, (hl)
   21A4 6F            [ 4] 6407 	ld	l, a
   21A5 11 0F 00      [10] 6408 	ld	de, #0x000F
   21A8 19            [11] 6409 	add	hl, de
   21A9 5E            [ 7] 6410 	ld	e,(hl)
   21AA 16 00         [ 7] 6411 	ld	d,#0x00
   21AC 01 00 00      [10] 6412 	ld	bc,#0x0000
   21AF 7B            [ 4] 6413 	ld	a,e
   21B0 FD 21 11 00   [14] 6414 	ld	iy,#17
   21B4 FD 39         [15] 6415 	add	iy,sp
   21B6 FD 96 00      [19] 6416 	sub	a, 0 (iy)
   21B9 7A            [ 4] 6417 	ld	a,d
   21BA FD 9E 01      [19] 6418 	sbc	a, 1 (iy)
   21BD 79            [ 4] 6419 	ld	a,c
   21BE FD 9E 02      [19] 6420 	sbc	a, 2 (iy)
   21C1 78            [ 4] 6421 	ld	a,b
   21C2 FD 9E 03      [19] 6422 	sbc	a, 3 (iy)
   21C5 E2rCAr21      [10] 6423 	jp	PO, 00284$
   21C8 EE 80         [ 7] 6424 	xor	a, #0x80
   21CA                    6425 00284$:
   21CA F2rD9r25      [10] 6426 	jp	P,00161$
                           6427 ;alien6.c:942: if (formMoved==0){ 
   21CD 3Ar9Fr02      [13] 6428 	ld	a,(#_formMoved + 0)
   21D0 B7            [ 4] 6429 	or	a, a
   21D1 20 24         [12] 6430 	jr	NZ,00104$
                           6431 ;alien6.c:943: stepCount++;
   21D3 21r9Er02      [10] 6432 	ld	hl, #_stepCount+0
   21D6 34            [11] 6433 	inc	(hl)
                           6434 ;alien6.c:944: if (stepCount>39){	//Si llego a 40 pasos me doy la vuelta
   21D7 3E 27         [ 7] 6435 	ld	a,#0x27
   21D9 FD 21r9Er02   [14] 6436 	ld	iy,#_stepCount
   21DD FD 96 00      [19] 6437 	sub	a, 0 (iy)
   21E0 30 10         [12] 6438 	jr	NC,00102$
                           6439 ;alien6.c:945: stepCount=0;
   21E2 21r9Er02      [10] 6440 	ld	hl,#_stepCount + 0
   21E5 36 00         [10] 6441 	ld	(hl), #0x00
                           6442 ;alien6.c:946: velXForm=-velXForm;
   21E7 AF            [ 4] 6443 	xor	a, a
   21E8 FD 21r9Cr02   [14] 6444 	ld	iy,#_velXForm
   21EC FD 96 00      [19] 6445 	sub	a, 0 (iy)
   21EF 32r9Cr02      [13] 6446 	ld	(#_velXForm + 0),a
   21F2                    6447 00102$:
                           6448 ;alien6.c:948: formMoved=1;
   21F2 21r9Fr02      [10] 6449 	ld	hl,#_formMoved + 0
   21F5 36 01         [10] 6450 	ld	(hl), #0x01
   21F7                    6451 00104$:
                           6452 ;alien6.c:951: if (formMoved)
   21F7 3Ar9Fr02      [13] 6453 	ld	a,(#_formMoved + 0)
   21FA B7            [ 4] 6454 	or	a, a
   21FB 28 18         [12] 6455 	jr	Z,00106$
                           6456 ;alien6.c:952: malos[i].homeX=malos[i].homeX+velXForm;
   21FD 3ErF3         [ 7] 6457 	ld	a,#<(_malos)
   21FF 21 1B 00      [10] 6458 	ld	hl,#27
   2202 39            [11] 6459 	add	hl,sp
   2203 86            [ 7] 6460 	add	a, (hl)
   2204 5F            [ 4] 6461 	ld	e,a
   2205 3Es00         [ 7] 6462 	ld	a,#>(_malos)
   2207 23            [ 6] 6463 	inc	hl
   2208 8E            [ 7] 6464 	adc	a, (hl)
   2209 57            [ 4] 6465 	ld	d,a
   220A 21 0B 00      [10] 6466 	ld	hl,#0x000B
   220D 19            [11] 6467 	add	hl,de
   220E EB            [ 4] 6468 	ex	de,hl
   220F 1A            [ 7] 6469 	ld	a,(de)
   2210 21r9Cr02      [10] 6470 	ld	hl,#_velXForm
   2213 86            [ 7] 6471 	add	a, (hl)
   2214 12            [ 7] 6472 	ld	(de),a
   2215                    6473 00106$:
                           6474 ;alien6.c:954: if (malos[i].movement==BADDIE_FORMATION){	
   2215 3ErF3         [ 7] 6475 	ld	a,#<(_malos)
   2217 21 19 00      [10] 6476 	ld	hl,#25
   221A 39            [11] 6477 	add	hl,sp
   221B FD 21 11 00   [14] 6478 	ld	iy,#17
   221F FD 39         [15] 6479 	add	iy,sp
   2221 86            [ 7] 6480 	add	a, (hl)
   2222 FD 77 00      [19] 6481 	ld	0 (iy),a
   2225 3Es00         [ 7] 6482 	ld	a,#>(_malos)
   2227 23            [ 6] 6483 	inc	hl
   2228 8E            [ 7] 6484 	adc	a, (hl)
   2229 FD 23         [10] 6485 	inc	iy
   222B FD 77 00      [19] 6486 	ld	0 (iy),a
   222E 21 15 00      [10] 6487 	ld	hl,#21
   2231 39            [11] 6488 	add	hl,sp
   2232 FD 21 11 00   [14] 6489 	ld	iy,#17
   2236 FD 39         [15] 6490 	add	iy,sp
   2238 FD 7E 00      [19] 6491 	ld	a,0 (iy)
   223B C6 09         [ 7] 6492 	add	a, #0x09
   223D 77            [ 7] 6493 	ld	(hl),a
   223E FD 7E 01      [19] 6494 	ld	a,1 (iy)
   2241 CE 00         [ 7] 6495 	adc	a, #0x00
   2243 23            [ 6] 6496 	inc	hl
   2244 77            [ 7] 6497 	ld	(hl),a
   2245 21 15 00      [10] 6498 	ld	hl, #21
   2248 39            [11] 6499 	add	hl, sp
   2249 7E            [ 7] 6500 	ld	a, (hl)
   224A 23            [ 6] 6501 	inc	hl
   224B 66            [ 7] 6502 	ld	h, (hl)
   224C 6F            [ 4] 6503 	ld	l, a
   224D 4E            [ 7] 6504 	ld	c,(hl)
                           6505 ;alien6.c:956: if (cpc_Random()<malos[i].agresividad){	//creo ataque propocionalmente a la agresividad
   224E 21 0F 00      [10] 6506 	ld	hl,#15
   2251 39            [11] 6507 	add	hl,sp
   2252 FD 21 11 00   [14] 6508 	ld	iy,#17
   2256 FD 39         [15] 6509 	add	iy,sp
   2258 FD 7E 00      [19] 6510 	ld	a,0 (iy)
   225B C6 14         [ 7] 6511 	add	a, #0x14
   225D 77            [ 7] 6512 	ld	(hl),a
   225E FD 7E 01      [19] 6513 	ld	a,1 (iy)
   2261 CE 00         [ 7] 6514 	adc	a, #0x00
   2263 23            [ 6] 6515 	inc	hl
   2264 77            [ 7] 6516 	ld	(hl),a
                           6517 ;alien6.c:958: } else malos[i].cx=malos[i].cx+velXForm;	//en caso contrario me sigo moviendo con la formacin.
   2265 21 0D 00      [10] 6518 	ld	hl,#13
   2268 39            [11] 6519 	add	hl,sp
   2269 FD 7E 00      [19] 6520 	ld	a,0 (iy)
   226C C6 02         [ 7] 6521 	add	a, #0x02
   226E 77            [ 7] 6522 	ld	(hl),a
   226F FD 7E 01      [19] 6523 	ld	a,1 (iy)
   2272 CE 00         [ 7] 6524 	adc	a, #0x00
   2274 23            [ 6] 6525 	inc	hl
   2275 77            [ 7] 6526 	ld	(hl),a
                           6527 ;alien6.c:968: if (malos[i].cy>(199-(malos[i].h))){	// si me salgo de la pantalla inicio el camino a la formacin
   2276 21 0B 00      [10] 6528 	ld	hl,#11
   2279 39            [11] 6529 	add	hl,sp
   227A FD 7E 00      [19] 6530 	ld	a,0 (iy)
   227D C6 03         [ 7] 6531 	add	a, #0x03
   227F 77            [ 7] 6532 	ld	(hl),a
   2280 FD 7E 01      [19] 6533 	ld	a,1 (iy)
   2283 CE 00         [ 7] 6534 	adc	a, #0x00
   2285 23            [ 6] 6535 	inc	hl
   2286 77            [ 7] 6536 	ld	(hl),a
                           6537 ;alien6.c:954: if (malos[i].movement==BADDIE_FORMATION){	
   2287 79            [ 4] 6538 	ld	a,c
   2288 B7            [ 4] 6539 	or	a, a
   2289 20 51         [12] 6540 	jr	NZ,00143$
                           6541 ;alien6.c:955: if (ataques_activos<max_ataques_activos){
   228B 21rB3r02      [10] 6542 	ld	hl,#_max_ataques_activos
   228E 3ArB2r02      [13] 6543 	ld	a,(#_ataques_activos + 0)
   2291 96            [ 7] 6544 	sub	a, (hl)
   2292 30 2D         [12] 6545 	jr	NC,00111$
                           6546 ;alien6.c:956: if (cpc_Random()<malos[i].agresividad){	//creo ataque propocionalmente a la agresividad
   2294 CDr00r00      [17] 6547 	call	_cpc_Random
   2297 55            [ 4] 6548 	ld	d,l
   2298 21 0F 00      [10] 6549 	ld	hl, #15
   229B 39            [11] 6550 	add	hl, sp
   229C 7E            [ 7] 6551 	ld	a, (hl)
   229D 23            [ 6] 6552 	inc	hl
   229E 66            [ 7] 6553 	ld	h, (hl)
   229F 6F            [ 4] 6554 	ld	l, a
   22A0 66            [ 7] 6555 	ld	h,(hl)
   22A1 7A            [ 4] 6556 	ld	a,d
   22A2 94            [ 4] 6557 	sub	a, h
   22A3 DArFAr24      [10] 6558 	jp	C,00144$
                           6559 ;alien6.c:958: } else malos[i].cx=malos[i].cx+velXForm;	//en caso contrario me sigo moviendo con la formacin.
   22A6 FD 21 0D 00   [14] 6560 	ld	iy,#13
   22AA FD 39         [15] 6561 	add	iy,sp
   22AC FD 6E 00      [19] 6562 	ld	l,0 (iy)
   22AF FD 66 01      [19] 6563 	ld	h,1 (iy)
   22B2 7E            [ 7] 6564 	ld	a, (hl)
   22B3 21r9Cr02      [10] 6565 	ld	hl,#_velXForm
   22B6 86            [ 7] 6566 	add	a, (hl)
   22B7 FD 6E 00      [19] 6567 	ld	l,0 (iy)
   22BA FD 66 01      [19] 6568 	ld	h,1 (iy)
   22BD 77            [ 7] 6569 	ld	(hl),a
   22BE C3rFAr24      [10] 6570 	jp	00144$
   22C1                    6571 00111$:
                           6572 ;alien6.c:959: } else 	malos[i].cx=malos[i].cx+velXForm;	//en caso contrario me sigo moviendo con la formacin.
   22C1 FD 21 0D 00   [14] 6573 	ld	iy,#13
   22C5 FD 39         [15] 6574 	add	iy,sp
   22C7 FD 6E 00      [19] 6575 	ld	l,0 (iy)
   22CA FD 66 01      [19] 6576 	ld	h,1 (iy)
   22CD 7E            [ 7] 6577 	ld	a, (hl)
   22CE 21r9Cr02      [10] 6578 	ld	hl,#_velXForm
   22D1 86            [ 7] 6579 	add	a, (hl)
   22D2 FD 6E 00      [19] 6580 	ld	l,0 (iy)
   22D5 FD 66 01      [19] 6581 	ld	h,1 (iy)
   22D8 77            [ 7] 6582 	ld	(hl),a
   22D9 C3rFAr24      [10] 6583 	jp	00144$
   22DC                    6584 00143$:
                           6585 ;alien6.c:961: } else if (malos[i].movement==BADDIE_ATTACK){	
   22DC 79            [ 4] 6586 	ld	a,c
   22DD 3D            [ 4] 6587 	dec	a
   22DE C2r21r24      [10] 6588 	jp	NZ,00140$
                           6589 ;alien6.c:963: while (!(ataques[j].idMalo==i)&&(ataques[j].activo==1)){ 	//busco el ataque que le corresponde a este malo
   22E1 FD 21 05 00   [14] 6590 	ld	iy,#5
   22E5 FD 39         [15] 6591 	add	iy,sp
   22E7 FD 36 00 00   [19] 6592 	ld	0 (iy),#0x00
   22EB 21 09 00      [10] 6593 	ld	hl, #9
   22EE 39            [11] 6594 	add	hl, sp
   22EF AF            [ 4] 6595 	xor	a, a
   22F0 77            [ 7] 6596 	ld	(hl), a
   22F1 23            [ 6] 6597 	inc	hl
   22F2 77            [ 7] 6598 	ld	(hl), a
   22F3                    6599 00114$:
   22F3 3ErA0         [ 7] 6600 	ld	a,#<(_ataques)
   22F5 21 09 00      [10] 6601 	ld	hl,#9
   22F8 39            [11] 6602 	add	hl,sp
   22F9 86            [ 7] 6603 	add	a, (hl)
   22FA 5F            [ 4] 6604 	ld	e,a
   22FB 3Es02         [ 7] 6605 	ld	a,#>(_ataques)
   22FD 23            [ 6] 6606 	inc	hl
   22FE 8E            [ 7] 6607 	adc	a, (hl)
   22FF 57            [ 4] 6608 	ld	d,a
   2300 6B            [ 4] 6609 	ld	l, e
   2301 62            [ 4] 6610 	ld	h, d
   2302 23            [ 6] 6611 	inc	hl
   2303 46            [ 7] 6612 	ld	b,(hl)
   2304 21 06 00      [10] 6613 	ld	hl, #6+0
   2307 39            [11] 6614 	add	hl, sp
   2308 7E            [ 7] 6615 	ld	a, (hl)
   2309 90            [ 4] 6616 	sub	a, b
   230A 28 1C         [12] 6617 	jr	Z,00116$
   230C 1A            [ 7] 6618 	ld	a,(de)
   230D 3D            [ 4] 6619 	dec	a
   230E 20 18         [12] 6620 	jr	NZ,00116$
                           6621 ;alien6.c:964: j++;
   2310 21 09 00      [10] 6622 	ld	hl,#9
   2313 39            [11] 6623 	add	hl,sp
   2314 7E            [ 7] 6624 	ld	a,(hl)
   2315 C6 06         [ 7] 6625 	add	a, #0x06
   2317 77            [ 7] 6626 	ld	(hl),a
   2318 23            [ 6] 6627 	inc	hl
   2319 7E            [ 7] 6628 	ld	a,(hl)
   231A CE 00         [ 7] 6629 	adc	a, #0x00
   231C 77            [ 7] 6630 	ld	(hl),a
   231D FD 21 05 00   [14] 6631 	ld	iy,#5
   2321 FD 39         [15] 6632 	add	iy,sp
   2323 FD 34 00      [23] 6633 	inc	0 (iy)
   2326 18 CB         [12] 6634 	jr	00114$
   2328                    6635 00116$:
                           6636 ;alien6.c:966: malos[i].cx=malos[i].cx+ataques[j].trayectoria[ataques[j].step]; //muevo al malo
   2328 21 0D 00      [10] 6637 	ld	hl, #13
   232B 39            [11] 6638 	add	hl, sp
   232C 7E            [ 7] 6639 	ld	a, (hl)
   232D 23            [ 6] 6640 	inc	hl
   232E 66            [ 7] 6641 	ld	h, (hl)
   232F 6F            [ 4] 6642 	ld	l, a
   2330 5E            [ 7] 6643 	ld	e,(hl)
   2331 21 05 00      [10] 6644 	ld	hl, #5+0
   2334 39            [11] 6645 	add	hl, sp
   2335 4E            [ 7] 6646 	ld	c, (hl)
   2336 06 00         [ 7] 6647 	ld	b,#0x00
   2338 69            [ 4] 6648 	ld	l, c
   2339 60            [ 4] 6649 	ld	h, b
   233A 29            [11] 6650 	add	hl, hl
   233B 09            [11] 6651 	add	hl, bc
   233C 29            [11] 6652 	add	hl, hl
   233D 3ErA0         [ 7] 6653 	ld	a,#<(_ataques)
   233F 21 09 00      [10] 6654 	ld	hl,#9
   2342 39            [11] 6655 	add	hl,sp
   2343 85            [ 4] 6656 	add	a, l
   2344 77            [ 7] 6657 	ld	(hl),a
   2345 3Es02         [ 7] 6658 	ld	a,#>(_ataques)
   2347 8C            [ 4] 6659 	adc	a, h
   2348 23            [ 6] 6660 	inc	hl
   2349 77            [ 7] 6661 	ld	(hl),a
   234A FD 21 09 00   [14] 6662 	ld	iy,#9
   234E FD 39         [15] 6663 	add	iy,sp
   2350 FD 6E 00      [19] 6664 	ld	l,0 (iy)
   2353 FD 66 01      [19] 6665 	ld	h,1 (iy)
   2356 01 04 00      [10] 6666 	ld	bc, #0x0004
   2359 09            [11] 6667 	add	hl, bc
   235A 4E            [ 7] 6668 	ld	c,(hl)
   235B 23            [ 6] 6669 	inc	hl
   235C 46            [ 7] 6670 	ld	b,(hl)
   235D 21 07 00      [10] 6671 	ld	hl,#7
   2360 39            [11] 6672 	add	hl,sp
   2361 FD 7E 00      [19] 6673 	ld	a,0 (iy)
   2364 C6 02         [ 7] 6674 	add	a, #0x02
   2366 77            [ 7] 6675 	ld	(hl),a
   2367 FD 7E 01      [19] 6676 	ld	a,1 (iy)
   236A CE 00         [ 7] 6677 	adc	a, #0x00
   236C 23            [ 6] 6678 	inc	hl
   236D 77            [ 7] 6679 	ld	(hl),a
   236E 21 07 00      [10] 6680 	ld	hl, #7
   2371 39            [11] 6681 	add	hl, sp
   2372 7E            [ 7] 6682 	ld	a, (hl)
   2373 23            [ 6] 6683 	inc	hl
   2374 66            [ 7] 6684 	ld	h, (hl)
   2375 6F            [ 4] 6685 	ld	l, a
   2376 6E            [ 7] 6686 	ld	l, (hl)
   2377 26 00         [ 7] 6687 	ld	h,#0x00
   2379 09            [11] 6688 	add	hl,bc
   237A 6E            [ 7] 6689 	ld	l,(hl)
   237B 7B            [ 4] 6690 	ld	a,e
   237C 85            [ 4] 6691 	add	a, l
   237D FD 21 0D 00   [14] 6692 	ld	iy,#13
   2381 FD 39         [15] 6693 	add	iy,sp
   2383 FD 6E 00      [19] 6694 	ld	l,0 (iy)
   2386 FD 66 01      [19] 6695 	ld	h,1 (iy)
   2389 77            [ 7] 6696 	ld	(hl),a
                           6697 ;alien6.c:968: if (malos[i].cy>(199-(malos[i].h))){	// si me salgo de la pantalla inicio el camino a la formacin
   238A 21 0B 00      [10] 6698 	ld	hl, #11
   238D 39            [11] 6699 	add	hl, sp
   238E 7E            [ 7] 6700 	ld	a, (hl)
   238F 23            [ 6] 6701 	inc	hl
   2390 66            [ 7] 6702 	ld	h, (hl)
   2391 6F            [ 4] 6703 	ld	l, a
   2392 5E            [ 7] 6704 	ld	e,(hl)
   2393 FD 21 11 00   [14] 6705 	ld	iy,#17
   2397 FD 39         [15] 6706 	add	iy,sp
   2399 FD 6E 00      [19] 6707 	ld	l,0 (iy)
   239C FD 66 01      [19] 6708 	ld	h,1 (iy)
   239F 01 06 00      [10] 6709 	ld	bc, #0x0006
   23A2 09            [11] 6710 	add	hl, bc
   23A3 4E            [ 7] 6711 	ld	c,(hl)
   23A4 06 00         [ 7] 6712 	ld	b,#0x00
   23A6 3E C7         [ 7] 6713 	ld	a,#0xC7
   23A8 91            [ 4] 6714 	sub	a, c
   23A9 4F            [ 4] 6715 	ld	c,a
   23AA 3E 00         [ 7] 6716 	ld	a,#0x00
   23AC 98            [ 4] 6717 	sbc	a, b
   23AD 47            [ 4] 6718 	ld	b,a
   23AE 16 00         [ 7] 6719 	ld	d,#0x00
   23B0 79            [ 4] 6720 	ld	a,c
   23B1 93            [ 4] 6721 	sub	a, e
   23B2 78            [ 4] 6722 	ld	a,b
   23B3 9A            [ 4] 6723 	sbc	a, d
   23B4 E2rB9r23      [10] 6724 	jp	PO, 00290$
   23B7 EE 80         [ 7] 6725 	xor	a, #0x80
   23B9                    6726 00290$:
   23B9 F2rEEr23      [10] 6727 	jp	P,00121$
                           6728 ;alien6.c:969: malos[i].movement=BADDIE_PATH;
   23BC 21 15 00      [10] 6729 	ld	hl, #21
   23BF 39            [11] 6730 	add	hl, sp
   23C0 7E            [ 7] 6731 	ld	a, (hl)
   23C1 23            [ 6] 6732 	inc	hl
   23C2 66            [ 7] 6733 	ld	h, (hl)
   23C3 6F            [ 4] 6734 	ld	l, a
   23C4 36 02         [10] 6735 	ld	(hl),#0x02
                           6736 ;alien6.c:970: malos[i].cy=-10;  //coloco al malo fuera de la pantalla por arriba para que tarde un poco en llegar
   23C6 21 0B 00      [10] 6737 	ld	hl, #11
   23C9 39            [11] 6738 	add	hl, sp
   23CA 7E            [ 7] 6739 	ld	a, (hl)
   23CB 23            [ 6] 6740 	inc	hl
   23CC 66            [ 7] 6741 	ld	h, (hl)
   23CD 6F            [ 4] 6742 	ld	l, a
   23CE 36 F6         [10] 6743 	ld	(hl),#0xF6
                           6744 ;alien6.c:971: ataques[j].activo=0;
   23D0 FD 21 09 00   [14] 6745 	ld	iy,#9
   23D4 FD 39         [15] 6746 	add	iy,sp
   23D6 FD 6E 00      [19] 6747 	ld	l,0 (iy)
   23D9 FD 66 01      [19] 6748 	ld	h,1 (iy)
   23DC 36 00         [10] 6749 	ld	(hl),#0x00
                           6750 ;alien6.c:972: ataques[j].idMalo=0;
   23DE FD 6E 00      [19] 6751 	ld	l,0 (iy)
   23E1 FD 66 01      [19] 6752 	ld	h,1 (iy)
   23E4 23            [ 6] 6753 	inc	hl
   23E5 36 00         [10] 6754 	ld	(hl),#0x00
                           6755 ;alien6.c:973: ataques_activos--;
   23E7 21rB2r02      [10] 6756 	ld	hl, #_ataques_activos+0
   23EA 35            [11] 6757 	dec	(hl)
   23EB C3rFAr24      [10] 6758 	jp	00144$
   23EE                    6759 00121$:
                           6760 ;alien6.c:974: }else if (ataques[j].step<ataques[j].maxStep)	//actualizo prximas siguiente paso en caso de que reiniciar el ciclo de la trayectoria
   23EE 21 07 00      [10] 6761 	ld	hl, #7
   23F1 39            [11] 6762 	add	hl, sp
   23F2 7E            [ 7] 6763 	ld	a, (hl)
   23F3 23            [ 6] 6764 	inc	hl
   23F4 66            [ 7] 6765 	ld	h, (hl)
   23F5 6F            [ 4] 6766 	ld	l, a
   23F6 56            [ 7] 6767 	ld	d,(hl)
   23F7 21 09 00      [10] 6768 	ld	hl, #9
   23FA 39            [11] 6769 	add	hl, sp
   23FB 7E            [ 7] 6770 	ld	a, (hl)
   23FC 23            [ 6] 6771 	inc	hl
   23FD 66            [ 7] 6772 	ld	h, (hl)
   23FE 6F            [ 4] 6773 	ld	l, a
   23FF 23            [ 6] 6774 	inc	hl
   2400 23            [ 6] 6775 	inc	hl
   2401 23            [ 6] 6776 	inc	hl
   2402 66            [ 7] 6777 	ld	h,(hl)
   2403 7A            [ 4] 6778 	ld	a,d
   2404 94            [ 4] 6779 	sub	a, h
   2405 30 0D         [12] 6780 	jr	NC,00118$
                           6781 ;alien6.c:975: ataques[j].step++;
   2407 14            [ 4] 6782 	inc	d
   2408 21 07 00      [10] 6783 	ld	hl, #7
   240B 39            [11] 6784 	add	hl, sp
   240C 7E            [ 7] 6785 	ld	a, (hl)
   240D 23            [ 6] 6786 	inc	hl
   240E 66            [ 7] 6787 	ld	h, (hl)
   240F 6F            [ 4] 6788 	ld	l, a
   2410 72            [ 7] 6789 	ld	(hl),d
   2411 C3rFAr24      [10] 6790 	jp	00144$
   2414                    6791 00118$:
                           6792 ;alien6.c:977: ataques[j].step=0;
   2414 21 07 00      [10] 6793 	ld	hl, #7
   2417 39            [11] 6794 	add	hl, sp
   2418 7E            [ 7] 6795 	ld	a, (hl)
   2419 23            [ 6] 6796 	inc	hl
   241A 66            [ 7] 6797 	ld	h, (hl)
   241B 6F            [ 4] 6798 	ld	l, a
   241C 36 00         [10] 6799 	ld	(hl),#0x00
   241E C3rFAr24      [10] 6800 	jp	00144$
   2421                    6801 00140$:
                           6802 ;alien6.c:980: }else if (malos[i].movement==BADDIE_PATH){
   2421 79            [ 4] 6803 	ld	a,c
   2422 D6 02         [ 7] 6804 	sub	a, #0x02
   2424 C2rFAr24      [10] 6805 	jp	NZ,00144$
                           6806 ;alien6.c:982: if ((malos[i].cx=malos[i].homeX) && (malos[i].cy==malos[i].homeY)){
   2427 FD 21 11 00   [14] 6807 	ld	iy,#17
   242B FD 39         [15] 6808 	add	iy,sp
   242D FD 7E 00      [19] 6809 	ld	a,0 (iy)
   2430 C6 0B         [ 7] 6810 	add	a, #0x0B
   2432 4F            [ 4] 6811 	ld	c,a
   2433 FD 7E 01      [19] 6812 	ld	a,1 (iy)
   2436 CE 00         [ 7] 6813 	adc	a, #0x00
   2438 47            [ 4] 6814 	ld	b,a
   2439 0A            [ 7] 6815 	ld	a,(bc)
   243A 57            [ 4] 6816 	ld	d,a
   243B 21 0D 00      [10] 6817 	ld	hl, #13
   243E 39            [11] 6818 	add	hl, sp
   243F 7E            [ 7] 6819 	ld	a, (hl)
   2440 23            [ 6] 6820 	inc	hl
   2441 66            [ 7] 6821 	ld	h, (hl)
   2442 6F            [ 4] 6822 	ld	l, a
   2443 72            [ 7] 6823 	ld	(hl),d
   2444 21 07 00      [10] 6824 	ld	hl,#7
   2447 39            [11] 6825 	add	hl,sp
   2448 FD 21 11 00   [14] 6826 	ld	iy,#17
   244C FD 39         [15] 6827 	add	iy,sp
   244E FD 7E 00      [19] 6828 	ld	a,0 (iy)
   2451 C6 0C         [ 7] 6829 	add	a, #0x0C
   2453 77            [ 7] 6830 	ld	(hl),a
   2454 FD 7E 01      [19] 6831 	ld	a,1 (iy)
   2457 CE 00         [ 7] 6832 	adc	a, #0x00
   2459 23            [ 6] 6833 	inc	hl
   245A 77            [ 7] 6834 	ld	(hl),a
   245B 7A            [ 4] 6835 	ld	a,d
   245C B7            [ 4] 6836 	or	a, a
   245D 28 40         [12] 6837 	jr	Z,00134$
   245F 21 0B 00      [10] 6838 	ld	hl, #11
   2462 39            [11] 6839 	add	hl, sp
   2463 7E            [ 7] 6840 	ld	a, (hl)
   2464 23            [ 6] 6841 	inc	hl
   2465 66            [ 7] 6842 	ld	h, (hl)
   2466 6F            [ 4] 6843 	ld	l, a
   2467 56            [ 7] 6844 	ld	d,(hl)
   2468 21 07 00      [10] 6845 	ld	hl, #7
   246B 39            [11] 6846 	add	hl, sp
   246C 7E            [ 7] 6847 	ld	a, (hl)
   246D 23            [ 6] 6848 	inc	hl
   246E 66            [ 7] 6849 	ld	h, (hl)
   246F 6F            [ 4] 6850 	ld	l, a
   2470 5E            [ 7] 6851 	ld	e,(hl)
   2471 7A            [ 4] 6852 	ld	a,d
   2472 93            [ 4] 6853 	sub	a, e
   2473 20 2A         [12] 6854 	jr	NZ,00134$
                           6855 ;alien6.c:983: malos[i].movement=BADDIE_FORMATION;
   2475 21 15 00      [10] 6856 	ld	hl, #21
   2478 39            [11] 6857 	add	hl, sp
   2479 7E            [ 7] 6858 	ld	a, (hl)
   247A 23            [ 6] 6859 	inc	hl
   247B 66            [ 7] 6860 	ld	h, (hl)
   247C 6F            [ 4] 6861 	ld	l, a
   247D 36 00         [10] 6862 	ld	(hl),#0x00
                           6863 ;alien6.c:984: malos[i].speed=malos[i].formSpeed;
   247F FD 21 11 00   [14] 6864 	ld	iy,#17
   2483 FD 39         [15] 6865 	add	iy,sp
   2485 FD 7E 00      [19] 6866 	ld	a,0 (iy)
   2488 C6 0F         [ 7] 6867 	add	a, #0x0F
   248A 5F            [ 4] 6868 	ld	e,a
   248B FD 7E 01      [19] 6869 	ld	a,1 (iy)
   248E CE 00         [ 7] 6870 	adc	a, #0x00
   2490 57            [ 4] 6871 	ld	d,a
   2491 FD 6E 00      [19] 6872 	ld	l,0 (iy)
   2494 FD 66 01      [19] 6873 	ld	h,1 (iy)
   2497 01 10 00      [10] 6874 	ld	bc, #0x0010
   249A 09            [11] 6875 	add	hl, bc
   249B 7E            [ 7] 6876 	ld	a,(hl)
   249C 12            [ 7] 6877 	ld	(de),a
   249D 18 5B         [12] 6878 	jr	00144$
   249F                    6879 00134$:
                           6880 ;alien6.c:988: if (malos[i].cx<malos[i].homeX)
   249F FD 21 0D 00   [14] 6881 	ld	iy,#13
   24A3 FD 39         [15] 6882 	add	iy,sp
   24A5 FD 6E 00      [19] 6883 	ld	l,0 (iy)
   24A8 FD 66 01      [19] 6884 	ld	h,1 (iy)
   24AB 5E            [ 7] 6885 	ld	e,(hl)
   24AC 0A            [ 7] 6886 	ld	a,(bc)
   24AD 67            [ 4] 6887 	ld	h,a
   24AE 7B            [ 4] 6888 	ld	a,e
   24AF 94            [ 4] 6889 	sub	a, h
   24B0 30 0A         [12] 6890 	jr	NC,00126$
                           6891 ;alien6.c:989: malos[i].cx++;
   24B2 1C            [ 4] 6892 	inc	e
   24B3 FD 6E 00      [19] 6893 	ld	l,0 (iy)
   24B6 FD 66 01      [19] 6894 	ld	h,1 (iy)
   24B9 73            [ 7] 6895 	ld	(hl),e
   24BA 18 0E         [12] 6896 	jr	00127$
   24BC                    6897 00126$:
                           6898 ;alien6.c:990: else if (malos[i].cx>malos[i].homeX)
   24BC 7C            [ 4] 6899 	ld	a,h
   24BD 93            [ 4] 6900 	sub	a, e
   24BE 30 0A         [12] 6901 	jr	NC,00127$
                           6902 ;alien6.c:991: malos[i].cx--;
   24C0 1D            [ 4] 6903 	dec	e
   24C1 21 0D 00      [10] 6904 	ld	hl, #13
   24C4 39            [11] 6905 	add	hl, sp
   24C5 7E            [ 7] 6906 	ld	a, (hl)
   24C6 23            [ 6] 6907 	inc	hl
   24C7 66            [ 7] 6908 	ld	h, (hl)
   24C8 6F            [ 4] 6909 	ld	l, a
   24C9 73            [ 7] 6910 	ld	(hl),e
   24CA                    6911 00127$:
                           6912 ;alien6.c:993: if (malos[i].cy<malos[i].homeY)
   24CA 21 0B 00      [10] 6913 	ld	hl, #11
   24CD 39            [11] 6914 	add	hl, sp
   24CE 7E            [ 7] 6915 	ld	a, (hl)
   24CF 23            [ 6] 6916 	inc	hl
   24D0 66            [ 7] 6917 	ld	h, (hl)
   24D1 6F            [ 4] 6918 	ld	l, a
   24D2 56            [ 7] 6919 	ld	d,(hl)
   24D3 21 07 00      [10] 6920 	ld	hl, #7
   24D6 39            [11] 6921 	add	hl, sp
   24D7 7E            [ 7] 6922 	ld	a, (hl)
   24D8 23            [ 6] 6923 	inc	hl
   24D9 66            [ 7] 6924 	ld	h, (hl)
   24DA 6F            [ 4] 6925 	ld	l, a
   24DB 66            [ 7] 6926 	ld	h,(hl)
   24DC 7A            [ 4] 6927 	ld	a,d
   24DD 94            [ 4] 6928 	sub	a, h
   24DE 30 0C         [12] 6929 	jr	NC,00131$
                           6930 ;alien6.c:994: malos[i].cy++;
   24E0 14            [ 4] 6931 	inc	d
   24E1 21 0B 00      [10] 6932 	ld	hl, #11
   24E4 39            [11] 6933 	add	hl, sp
   24E5 7E            [ 7] 6934 	ld	a, (hl)
   24E6 23            [ 6] 6935 	inc	hl
   24E7 66            [ 7] 6936 	ld	h, (hl)
   24E8 6F            [ 4] 6937 	ld	l, a
   24E9 72            [ 7] 6938 	ld	(hl),d
   24EA 18 0E         [12] 6939 	jr	00144$
   24EC                    6940 00131$:
                           6941 ;alien6.c:995: else if (malos[i].cy>malos[i].homeY)
   24EC 7C            [ 4] 6942 	ld	a,h
   24ED 92            [ 4] 6943 	sub	a, d
   24EE 30 0A         [12] 6944 	jr	NC,00144$
                           6945 ;alien6.c:996: malos[i].cy--;
   24F0 15            [ 4] 6946 	dec	d
   24F1 21 0B 00      [10] 6947 	ld	hl, #11
   24F4 39            [11] 6948 	add	hl, sp
   24F5 7E            [ 7] 6949 	ld	a, (hl)
   24F6 23            [ 6] 6950 	inc	hl
   24F7 66            [ 7] 6951 	ld	h, (hl)
   24F8 6F            [ 4] 6952 	ld	l, a
   24F9 72            [ 7] 6953 	ld	(hl),d
   24FA                    6954 00144$:
                           6955 ;alien6.c:1001: if ((disparos_malos_activos<MAX_DISPAROS_MALOS) && (cpc_Random() < malos[i].agresividad) && (hostilidad)){
   24FA 21rD9r00      [10] 6956 	ld	hl,#_MAX_DISPAROS_MALOS
   24FD 3ArD8r00      [13] 6957 	ld	a,(#_disparos_malos_activos + 0)
   2500 96            [ 7] 6958 	sub	a, (hl)
   2501 D2r91r25      [10] 6959 	jp	NC,00150$
   2504 CDr00r00      [17] 6960 	call	_cpc_Random
   2507 FD 21 07 00   [14] 6961 	ld	iy,#7
   250B FD 39         [15] 6962 	add	iy,sp
   250D FD 75 00      [19] 6963 	ld	0 (iy),l
   2510 21 0F 00      [10] 6964 	ld	hl, #15
   2513 39            [11] 6965 	add	hl, sp
   2514 7E            [ 7] 6966 	ld	a, (hl)
   2515 23            [ 6] 6967 	inc	hl
   2516 66            [ 7] 6968 	ld	h, (hl)
   2517 6F            [ 4] 6969 	ld	l, a
   2518 56            [ 7] 6970 	ld	d,(hl)
   2519 21 07 00      [10] 6971 	ld	hl, #7+0
   251C 39            [11] 6972 	add	hl, sp
   251D 7E            [ 7] 6973 	ld	a, (hl)
   251E 92            [ 4] 6974 	sub	a, d
   251F 30 70         [12] 6975 	jr	NC,00150$
   2521 3Ar95r02      [13] 6976 	ld	a,(#_hostilidad + 0)
   2524 B7            [ 4] 6977 	or	a, a
   2525 28 6A         [12] 6978 	jr	Z,00150$
                           6979 ;alien6.c:1002: switch (malos[i].type){
   2527 21 11 00      [10] 6980 	ld	hl, #17
   252A 39            [11] 6981 	add	hl, sp
   252B 7E            [ 7] 6982 	ld	a, (hl)
   252C 23            [ 6] 6983 	inc	hl
   252D 66            [ 7] 6984 	ld	h, (hl)
   252E 6F            [ 4] 6985 	ld	l, a
   252F 11 08 00      [10] 6986 	ld	de, #0x0008
   2532 19            [11] 6987 	add	hl, de
   2533 7E            [ 7] 6988 	ld	a,(hl)
   2534 FD 21 07 00   [14] 6989 	ld	iy,#7
   2538 FD 39         [15] 6990 	add	iy,sp
   253A FD 77 00      [19] 6991 	ld	0 (iy),a
   253D FD 7E 00      [19] 6992 	ld	a,0 (iy)
   2540 3D            [ 4] 6993 	dec	a
   2541 28 09         [12] 6994 	jr	Z,00145$
   2543 FD 7E 00      [19] 6995 	ld	a,0 (iy)
   2546 D6 02         [ 7] 6996 	sub	a, #0x02
   2548 28 0E         [12] 6997 	jr	Z,00146$
   254A 18 18         [12] 6998 	jr	00147$
                           6999 ;alien6.c:1003: case 1:
   254C                    7000 00145$:
                           7001 ;alien6.c:1004: velocidadDisparo=8;
   254C FD 21 00 00   [14] 7002 	ld	iy,#0
   2550 FD 39         [15] 7003 	add	iy,sp
   2552 FD 36 00 08   [19] 7004 	ld	0 (iy),#0x08
                           7005 ;alien6.c:1005: break;
   2556 18 16         [12] 7006 	jr	00148$
                           7007 ;alien6.c:1006: case 2:
   2558                    7008 00146$:
                           7009 ;alien6.c:1007: velocidadDisparo=6;
   2558 FD 21 00 00   [14] 7010 	ld	iy,#0
   255C FD 39         [15] 7011 	add	iy,sp
   255E FD 36 00 06   [19] 7012 	ld	0 (iy),#0x06
                           7013 ;alien6.c:1008: break;
   2562 18 0A         [12] 7014 	jr	00148$
                           7015 ;alien6.c:1009: default:
   2564                    7016 00147$:
                           7017 ;alien6.c:1010: velocidadDisparo=4;
   2564 FD 21 00 00   [14] 7018 	ld	iy,#0
   2568 FD 39         [15] 7019 	add	iy,sp
   256A FD 36 00 04   [19] 7020 	ld	0 (iy),#0x04
                           7021 ;alien6.c:1012: }
   256E                    7022 00148$:
                           7023 ;alien6.c:1013: crearDisparoMalo(malos[i].cx,malos[i].cy,velocidadDisparo);
   256E 21 00 00      [10] 7024 	ld	hl, #0+0
   2571 39            [11] 7025 	add	hl, sp
   2572 4E            [ 7] 7026 	ld	c, (hl)
   2573 06 00         [ 7] 7027 	ld	b,#0x00
   2575 21 0B 00      [10] 7028 	ld	hl, #11
   2578 39            [11] 7029 	add	hl, sp
   2579 7E            [ 7] 7030 	ld	a, (hl)
   257A 23            [ 6] 7031 	inc	hl
   257B 66            [ 7] 7032 	ld	h, (hl)
   257C 6F            [ 4] 7033 	ld	l, a
   257D 56            [ 7] 7034 	ld	d,(hl)
   257E 21 0D 00      [10] 7035 	ld	hl, #13
   2581 39            [11] 7036 	add	hl, sp
   2582 7E            [ 7] 7037 	ld	a, (hl)
   2583 23            [ 6] 7038 	inc	hl
   2584 66            [ 7] 7039 	ld	h, (hl)
   2585 6F            [ 4] 7040 	ld	l, a
   2586 7E            [ 7] 7041 	ld	a,(hl)
   2587 C5            [11] 7042 	push	bc
   2588 D5            [11] 7043 	push	de
   2589 33            [ 6] 7044 	inc	sp
   258A F5            [11] 7045 	push	af
   258B 33            [ 6] 7046 	inc	sp
   258C CDr53r11      [17] 7047 	call	_crearDisparoMalo
   258F F1            [10] 7048 	pop	af
   2590 F1            [10] 7049 	pop	af
   2591                    7050 00150$:
                           7051 ;alien6.c:1015: malos[i].lastmoved=lapso;
   2591 21 07 00      [10] 7052 	ld	hl,#7
   2594 39            [11] 7053 	add	hl,sp
   2595 FD 21 11 00   [14] 7054 	ld	iy,#17
   2599 FD 39         [15] 7055 	add	iy,sp
   259B FD 7E 00      [19] 7056 	ld	a,0 (iy)
   259E C6 19         [ 7] 7057 	add	a, #0x19
   25A0 77            [ 7] 7058 	ld	(hl),a
   25A1 FD 7E 01      [19] 7059 	ld	a,1 (iy)
   25A4 CE 00         [ 7] 7060 	adc	a, #0x00
   25A6 23            [ 6] 7061 	inc	hl
   25A7 77            [ 7] 7062 	ld	(hl),a
   25A8 21 07 00      [10] 7063 	ld	hl, #7
   25AB 39            [11] 7064 	add	hl, sp
   25AC 5E            [ 7] 7065 	ld	e, (hl)
   25AD 23            [ 6] 7066 	inc	hl
   25AE 56            [ 7] 7067 	ld	d, (hl)
   25AF 21 01 00      [10] 7068 	ld	hl, #0x0001
   25B2 39            [11] 7069 	add	hl, sp
   25B3 01 04 00      [10] 7070 	ld	bc, #0x0004
   25B6 ED B0         [21] 7071 	ldir
                           7072 ;alien6.c:1016: malos[i].moved=1;
   25B8 21 07 00      [10] 7073 	ld	hl,#7
   25BB 39            [11] 7074 	add	hl,sp
   25BC FD 21 11 00   [14] 7075 	ld	iy,#17
   25C0 FD 39         [15] 7076 	add	iy,sp
   25C2 FD 7E 00      [19] 7077 	ld	a,0 (iy)
   25C5 C6 0E         [ 7] 7078 	add	a, #0x0E
   25C7 77            [ 7] 7079 	ld	(hl),a
   25C8 FD 7E 01      [19] 7080 	ld	a,1 (iy)
   25CB CE 00         [ 7] 7081 	adc	a, #0x00
   25CD 23            [ 6] 7082 	inc	hl
   25CE 77            [ 7] 7083 	ld	(hl),a
   25CF 21 07 00      [10] 7084 	ld	hl, #7
   25D2 39            [11] 7085 	add	hl, sp
   25D3 7E            [ 7] 7086 	ld	a, (hl)
   25D4 23            [ 6] 7087 	inc	hl
   25D5 66            [ 7] 7088 	ld	h, (hl)
   25D6 6F            [ 4] 7089 	ld	l, a
   25D7 36 01         [10] 7090 	ld	(hl),#0x01
   25D9                    7091 00161$:
                           7092 ;alien6.c:939: for (i=0;i<MAX_MALOS;i++){
   25D9 21 1B 00      [10] 7093 	ld	hl,#27
   25DC 39            [11] 7094 	add	hl,sp
   25DD 7E            [ 7] 7095 	ld	a,(hl)
   25DE C6 1D         [ 7] 7096 	add	a, #0x1D
   25E0 77            [ 7] 7097 	ld	(hl),a
   25E1 23            [ 6] 7098 	inc	hl
   25E2 7E            [ 7] 7099 	ld	a,(hl)
   25E3 CE 00         [ 7] 7100 	adc	a, #0x00
   25E5 77            [ 7] 7101 	ld	(hl),a
   25E6 21 19 00      [10] 7102 	ld	hl,#25
   25E9 39            [11] 7103 	add	hl,sp
   25EA 7E            [ 7] 7104 	ld	a,(hl)
   25EB C6 1D         [ 7] 7105 	add	a, #0x1D
   25ED 77            [ 7] 7106 	ld	(hl),a
   25EE 23            [ 6] 7107 	inc	hl
   25EF 7E            [ 7] 7108 	ld	a,(hl)
   25F0 CE 00         [ 7] 7109 	adc	a, #0x00
   25F2 77            [ 7] 7110 	ld	(hl),a
   25F3 21 17 00      [10] 7111 	ld	hl,#23
   25F6 39            [11] 7112 	add	hl,sp
   25F7 7E            [ 7] 7113 	ld	a,(hl)
   25F8 C6 1D         [ 7] 7114 	add	a, #0x1D
   25FA 77            [ 7] 7115 	ld	(hl),a
   25FB 23            [ 6] 7116 	inc	hl
   25FC 7E            [ 7] 7117 	ld	a,(hl)
   25FD CE 00         [ 7] 7118 	adc	a, #0x00
   25FF 77            [ 7] 7119 	ld	(hl),a
   2600 FD 21 06 00   [14] 7120 	ld	iy,#6
   2604 FD 39         [15] 7121 	add	iy,sp
   2606 FD 34 00      [23] 7122 	inc	0 (iy)
   2609 FD 7E 00      [19] 7123 	ld	a,0 (iy)
   260C D6 06         [ 7] 7124 	sub	a, #0x06
   260E DAr2Er21      [10] 7125 	jp	C,00160$
   2611                    7126 00162$:
   2611 21 1D 00      [10] 7127 	ld	hl,#29
   2614 39            [11] 7128 	add	hl,sp
   2615 F9            [ 6] 7129 	ld	sp,hl
   2616 C9            [10] 7130 	ret
   2617                    7131 _moverMalos_end::
                           7132 ;alien6.c:1022: void borrarMalos(){
                           7133 ;	---------------------------------
                           7134 ; Function borrarMalos
                           7135 ; ---------------------------------
   2617                    7136 _borrarMalos_start::
   2617                    7137 _borrarMalos:
   2617 21 F9 FF      [10] 7138 	ld	hl,#-7
   261A 39            [11] 7139 	add	hl,sp
   261B F9            [ 6] 7140 	ld	sp,hl
                           7141 ;alien6.c:1024: if (malos_activos>0){
   261C 3ArA1r01      [13] 7142 	ld	a,(#_malos_activos + 0)
   261F B7            [ 4] 7143 	or	a, a
   2620 CAr48r27      [10] 7144 	jp	Z,00117$
                           7145 ;alien6.c:1025: for (i=0;i<MAX_MALOS;i++){
   2623 FD 21 00 00   [14] 7146 	ld	iy,#0
   2627 FD 39         [15] 7147 	add	iy,sp
   2629 FD 36 00 00   [19] 7148 	ld	0 (iy),#0x00
   262D 21 05 00      [10] 7149 	ld	hl, #5
   2630 39            [11] 7150 	add	hl, sp
   2631 AF            [ 4] 7151 	xor	a, a
   2632 77            [ 7] 7152 	ld	(hl), a
   2633 23            [ 6] 7153 	inc	hl
   2634 77            [ 7] 7154 	ld	(hl), a
   2635 21 03 00      [10] 7155 	ld	hl, #3
   2638 39            [11] 7156 	add	hl, sp
   2639 AF            [ 4] 7157 	xor	a, a
   263A 77            [ 7] 7158 	ld	(hl), a
   263B 23            [ 6] 7159 	inc	hl
   263C 77            [ 7] 7160 	ld	(hl), a
   263D                    7161 00115$:
                           7162 ;alien6.c:1026: if ((malos[i].activo==1) && (malos[i].nuevo==0) && (malos[i].moved)){
   263D 3ErF3         [ 7] 7163 	ld	a,#<(_malos)
   263F 21 03 00      [10] 7164 	ld	hl,#3
   2642 39            [11] 7165 	add	hl,sp
   2643 FD 21 01 00   [14] 7166 	ld	iy,#1
   2647 FD 39         [15] 7167 	add	iy,sp
   2649 86            [ 7] 7168 	add	a, (hl)
   264A FD 77 00      [19] 7169 	ld	0 (iy),a
   264D 3Es00         [ 7] 7170 	ld	a,#>(_malos)
   264F 23            [ 6] 7171 	inc	hl
   2650 8E            [ 7] 7172 	adc	a, (hl)
   2651 FD 23         [10] 7173 	inc	iy
   2653 FD 77 00      [19] 7174 	ld	0 (iy),a
   2656 FD 21 01 00   [14] 7175 	ld	iy,#1
   265A FD 39         [15] 7176 	add	iy,sp
   265C FD 6E 00      [19] 7177 	ld	l,0 (iy)
   265F FD 66 01      [19] 7178 	ld	h,1 (iy)
   2662 11 0D 00      [10] 7179 	ld	de, #0x000D
   2665 19            [11] 7180 	add	hl, de
   2666 7E            [ 7] 7181 	ld	a,(hl)
   2667 3D            [ 4] 7182 	dec	a
   2668 C2r1Dr27      [10] 7183 	jp	NZ,00116$
   266B FD 6E 00      [19] 7184 	ld	l,0 (iy)
   266E FD 66 01      [19] 7185 	ld	h,1 (iy)
   2671 11 11 00      [10] 7186 	ld	de, #0x0011
   2674 19            [11] 7187 	add	hl, de
   2675 7E            [ 7] 7188 	ld	a,(hl)
   2676 B7            [ 4] 7189 	or	a, a
   2677 C2r1Dr27      [10] 7190 	jp	NZ,00116$
   267A FD 6E 00      [19] 7191 	ld	l,0 (iy)
   267D FD 66 01      [19] 7192 	ld	h,1 (iy)
   2680 11 0E 00      [10] 7193 	ld	de, #0x000E
   2683 19            [11] 7194 	add	hl, de
   2684 7E            [ 7] 7195 	ld	a,(hl)
   2685 B7            [ 4] 7196 	or	a, a
   2686 CAr1Dr27      [10] 7197 	jp	Z,00116$
                           7198 ;alien6.c:1027: if((malos[i].ox>0)&&(malos[i].ox<159)&&(malos[i].oy>0)&&(malos[i].oy<199))
   2689 FD 6E 00      [19] 7199 	ld	l,0 (iy)
   268C FD 66 01      [19] 7200 	ld	h,1 (iy)
   268F 11 04 00      [10] 7201 	ld	de, #0x0004
   2692 19            [11] 7202 	add	hl, de
   2693 5E            [ 7] 7203 	ld	e,(hl)
   2694 7B            [ 4] 7204 	ld	a,e
   2695 B7            [ 4] 7205 	or	a, a
   2696 28 65         [12] 7206 	jr	Z,00102$
   2698 7B            [ 4] 7207 	ld	a,e
   2699 D6 9F         [ 7] 7208 	sub	a, #0x9F
   269B 30 60         [12] 7209 	jr	NC,00102$
   269D FD 6E 00      [19] 7210 	ld	l,0 (iy)
   26A0 FD 66 01      [19] 7211 	ld	h,1 (iy)
   26A3 01 05 00      [10] 7212 	ld	bc, #0x0005
   26A6 09            [11] 7213 	add	hl, bc
   26A7 6E            [ 7] 7214 	ld	l,(hl)
   26A8 7D            [ 4] 7215 	ld	a,l
   26A9 B7            [ 4] 7216 	or	a, a
   26AA 28 51         [12] 7217 	jr	Z,00102$
   26AC 7D            [ 4] 7218 	ld	a,l
   26AD D6 C7         [ 7] 7219 	sub	a, #0xC7
   26AF 30 4C         [12] 7220 	jr	NC,00102$
                           7221 ;alien6.c:1028: cpc_PutSpXOR(malos[i].sp0,malos[i].h,malos[i].w,direccionLinea[malos[i].oy]+malos[i].ox);
   26B1 26 00         [ 7] 7222 	ld	h,#0x00
   26B3 29            [11] 7223 	add	hl, hl
   26B4 01rECr05      [10] 7224 	ld	bc,#_direccionLinea
   26B7 09            [11] 7225 	add	hl,bc
   26B8 7E            [ 7] 7226 	ld	a, (hl)
   26B9 23            [ 6] 7227 	inc	hl
   26BA 66            [ 7] 7228 	ld	h,(hl)
   26BB 6F            [ 4] 7229 	ld	l,a
   26BC 16 00         [ 7] 7230 	ld	d,#0x00
   26BE 19            [11] 7231 	add	hl,de
   26BF 4D            [ 4] 7232 	ld	c,l
   26C0 44            [ 4] 7233 	ld	b,h
   26C1 FD 6E 00      [19] 7234 	ld	l,0 (iy)
   26C4 FD 66 01      [19] 7235 	ld	h,1 (iy)
   26C7 11 07 00      [10] 7236 	ld	de, #0x0007
   26CA 19            [11] 7237 	add	hl, de
   26CB 5E            [ 7] 7238 	ld	e,(hl)
   26CC FD 6E 00      [19] 7239 	ld	l,0 (iy)
   26CF FD 66 01      [19] 7240 	ld	h,1 (iy)
   26D2 C5            [11] 7241 	push	bc
   26D3 01 06 00      [10] 7242 	ld	bc, #0x0006
   26D6 09            [11] 7243 	add	hl, bc
   26D7 C1            [10] 7244 	pop	bc
   26D8 56            [ 7] 7245 	ld	d,(hl)
   26D9 FD 6E 00      [19] 7246 	ld	l,0 (iy)
   26DC FD 66 01      [19] 7247 	ld	h,1 (iy)
   26DF 7E            [ 7] 7248 	ld	a,(hl)
   26E0 FD 77 00      [19] 7249 	ld	0 (iy),a
   26E3 23            [ 6] 7250 	inc	hl
   26E4 7E            [ 7] 7251 	ld	a,(hl)
   26E5 FD 77 01      [19] 7252 	ld	1 (iy),a
   26E8 C5            [11] 7253 	push	bc
   26E9 7B            [ 4] 7254 	ld	a,e
   26EA F5            [11] 7255 	push	af
   26EB 33            [ 6] 7256 	inc	sp
   26EC D5            [11] 7257 	push	de
   26ED 33            [ 6] 7258 	inc	sp
   26EE FD 6E 00      [19] 7259 	ld	l,0 (iy)
   26F1 FD 66 01      [19] 7260 	ld	h,1 (iy)
   26F4 E5            [11] 7261 	push	hl
   26F5 CDr00r00      [17] 7262 	call	_cpc_PutSpXOR
   26F8 21 06 00      [10] 7263 	ld	hl,#6
   26FB 39            [11] 7264 	add	hl,sp
   26FC F9            [ 6] 7265 	ld	sp,hl
   26FD                    7266 00102$:
                           7267 ;alien6.c:1029: if (malos[i].dead){
   26FD 3ErF3         [ 7] 7268 	ld	a,#<(_malos)
   26FF 21 05 00      [10] 7269 	ld	hl,#5
   2702 39            [11] 7270 	add	hl,sp
   2703 86            [ 7] 7271 	add	a, (hl)
   2704 5F            [ 4] 7272 	ld	e,a
   2705 3Es00         [ 7] 7273 	ld	a,#>(_malos)
   2707 23            [ 6] 7274 	inc	hl
   2708 8E            [ 7] 7275 	adc	a, (hl)
   2709 57            [ 4] 7276 	ld	d,a
   270A D5            [11] 7277 	push	de
   270B FD E1         [14] 7278 	pop	iy
   270D FD 7E 12      [19] 7279 	ld	a,18 (iy)
   2710 B7            [ 4] 7280 	or	a, a
   2711 28 0A         [12] 7281 	jr	Z,00116$
                           7282 ;alien6.c:1030: malos[i].activo=0;
   2713 21 0D 00      [10] 7283 	ld	hl,#0x000D
   2716 19            [11] 7284 	add	hl,de
   2717 36 00         [10] 7285 	ld	(hl),#0x00
                           7286 ;alien6.c:1031: malos_activos--;
   2719 21rA1r01      [10] 7287 	ld	hl, #_malos_activos+0
   271C 35            [11] 7288 	dec	(hl)
   271D                    7289 00116$:
                           7290 ;alien6.c:1025: for (i=0;i<MAX_MALOS;i++){
   271D 21 05 00      [10] 7291 	ld	hl,#5
   2720 39            [11] 7292 	add	hl,sp
   2721 7E            [ 7] 7293 	ld	a,(hl)
   2722 C6 1D         [ 7] 7294 	add	a, #0x1D
   2724 77            [ 7] 7295 	ld	(hl),a
   2725 23            [ 6] 7296 	inc	hl
   2726 7E            [ 7] 7297 	ld	a,(hl)
   2727 CE 00         [ 7] 7298 	adc	a, #0x00
   2729 77            [ 7] 7299 	ld	(hl),a
   272A 21 03 00      [10] 7300 	ld	hl,#3
   272D 39            [11] 7301 	add	hl,sp
   272E 7E            [ 7] 7302 	ld	a,(hl)
   272F C6 1D         [ 7] 7303 	add	a, #0x1D
   2731 77            [ 7] 7304 	ld	(hl),a
   2732 23            [ 6] 7305 	inc	hl
   2733 7E            [ 7] 7306 	ld	a,(hl)
   2734 CE 00         [ 7] 7307 	adc	a, #0x00
   2736 77            [ 7] 7308 	ld	(hl),a
   2737 FD 21 00 00   [14] 7309 	ld	iy,#0
   273B FD 39         [15] 7310 	add	iy,sp
   273D FD 34 00      [23] 7311 	inc	0 (iy)
   2740 FD 7E 00      [19] 7312 	ld	a,0 (iy)
   2743 D6 06         [ 7] 7313 	sub	a, #0x06
   2745 DAr3Dr26      [10] 7314 	jp	C,00115$
   2748                    7315 00117$:
   2748 21 07 00      [10] 7316 	ld	hl,#7
   274B 39            [11] 7317 	add	hl,sp
   274C F9            [ 6] 7318 	ld	sp,hl
   274D C9            [10] 7319 	ret
   274E                    7320 _borrarMalos_end::
                           7321 ;alien6.c:1038: void pintarMalos(){
                           7322 ;	---------------------------------
                           7323 ; Function pintarMalos
                           7324 ; ---------------------------------
   274E                    7325 _pintarMalos_start::
   274E                    7326 _pintarMalos:
   274E 21 F9 FF      [10] 7327 	ld	hl,#-7
   2751 39            [11] 7328 	add	hl,sp
   2752 F9            [ 6] 7329 	ld	sp,hl
                           7330 ;alien6.c:1040: if (malos_activos>0){
   2753 3ArA1r01      [13] 7331 	ld	a,(#_malos_activos + 0)
   2756 B7            [ 4] 7332 	or	a, a
   2757 CAr83r28      [10] 7333 	jp	Z,00116$
                           7334 ;alien6.c:1041: for (i=0;i<MAX_MALOS;i++){
   275A FD 21 00 00   [14] 7335 	ld	iy,#0
   275E FD 39         [15] 7336 	add	iy,sp
   2760 FD 36 00 00   [19] 7337 	ld	0 (iy),#0x00
   2764 21 05 00      [10] 7338 	ld	hl, #5
   2767 39            [11] 7339 	add	hl, sp
   2768 AF            [ 4] 7340 	xor	a, a
   2769 77            [ 7] 7341 	ld	(hl), a
   276A 23            [ 6] 7342 	inc	hl
   276B 77            [ 7] 7343 	ld	(hl), a
   276C 21 03 00      [10] 7344 	ld	hl, #3
   276F 39            [11] 7345 	add	hl, sp
   2770 AF            [ 4] 7346 	xor	a, a
   2771 77            [ 7] 7347 	ld	(hl), a
   2772 23            [ 6] 7348 	inc	hl
   2773 77            [ 7] 7349 	ld	(hl), a
   2774                    7350 00114$:
                           7351 ;alien6.c:1042: if ((malos[i].activo==1) && (malos[i].moved)){
   2774 3ErF3         [ 7] 7352 	ld	a,#<(_malos)
   2776 21 03 00      [10] 7353 	ld	hl,#3
   2779 39            [11] 7354 	add	hl,sp
   277A FD 21 01 00   [14] 7355 	ld	iy,#1
   277E FD 39         [15] 7356 	add	iy,sp
   2780 86            [ 7] 7357 	add	a, (hl)
   2781 FD 77 00      [19] 7358 	ld	0 (iy),a
   2784 3Es00         [ 7] 7359 	ld	a,#>(_malos)
   2786 23            [ 6] 7360 	inc	hl
   2787 8E            [ 7] 7361 	adc	a, (hl)
   2788 FD 23         [10] 7362 	inc	iy
   278A FD 77 00      [19] 7363 	ld	0 (iy),a
   278D FD 21 01 00   [14] 7364 	ld	iy,#1
   2791 FD 39         [15] 7365 	add	iy,sp
   2793 FD 6E 00      [19] 7366 	ld	l,0 (iy)
   2796 FD 66 01      [19] 7367 	ld	h,1 (iy)
   2799 11 0D 00      [10] 7368 	ld	de, #0x000D
   279C 19            [11] 7369 	add	hl, de
   279D 7E            [ 7] 7370 	ld	a,(hl)
   279E 3D            [ 4] 7371 	dec	a
   279F C2r58r28      [10] 7372 	jp	NZ,00115$
   27A2 FD 6E 00      [19] 7373 	ld	l,0 (iy)
   27A5 FD 66 01      [19] 7374 	ld	h,1 (iy)
   27A8 11 0E 00      [10] 7375 	ld	de, #0x000E
   27AB 19            [11] 7376 	add	hl, de
   27AC 7E            [ 7] 7377 	ld	a,(hl)
   27AD B7            [ 4] 7378 	or	a, a
   27AE CAr58r28      [10] 7379 	jp	Z,00115$
                           7380 ;alien6.c:1044: if((malos[i].cx>0)&&(malos[i].cx<159)&&(malos[i].cy>0)&&(malos[i].cy<199))
   27B1 FD 6E 00      [19] 7381 	ld	l,0 (iy)
   27B4 FD 66 01      [19] 7382 	ld	h,1 (iy)
   27B7 23            [ 6] 7383 	inc	hl
   27B8 23            [ 6] 7384 	inc	hl
   27B9 5E            [ 7] 7385 	ld	e,(hl)
   27BA 7B            [ 4] 7386 	ld	a,e
   27BB B7            [ 4] 7387 	or	a, a
   27BC 28 64         [12] 7388 	jr	Z,00102$
   27BE 7B            [ 4] 7389 	ld	a,e
   27BF D6 9F         [ 7] 7390 	sub	a, #0x9F
   27C1 30 5F         [12] 7391 	jr	NC,00102$
   27C3 FD 6E 00      [19] 7392 	ld	l,0 (iy)
   27C6 FD 66 01      [19] 7393 	ld	h,1 (iy)
   27C9 23            [ 6] 7394 	inc	hl
   27CA 23            [ 6] 7395 	inc	hl
   27CB 23            [ 6] 7396 	inc	hl
   27CC 6E            [ 7] 7397 	ld	l,(hl)
   27CD 7D            [ 4] 7398 	ld	a,l
   27CE B7            [ 4] 7399 	or	a, a
   27CF 28 51         [12] 7400 	jr	Z,00102$
   27D1 7D            [ 4] 7401 	ld	a,l
   27D2 D6 C7         [ 7] 7402 	sub	a, #0xC7
   27D4 30 4C         [12] 7403 	jr	NC,00102$
                           7404 ;alien6.c:1045: cpc_PutSpXOR(malos[i].sp0,malos[i].h,malos[i].w,direccionLinea[malos[i].cy]+malos[i].cx);
   27D6 26 00         [ 7] 7405 	ld	h,#0x00
   27D8 29            [11] 7406 	add	hl, hl
   27D9 01rECr05      [10] 7407 	ld	bc,#_direccionLinea
   27DC 09            [11] 7408 	add	hl,bc
   27DD 7E            [ 7] 7409 	ld	a, (hl)
   27DE 23            [ 6] 7410 	inc	hl
   27DF 66            [ 7] 7411 	ld	h,(hl)
   27E0 6F            [ 4] 7412 	ld	l,a
   27E1 16 00         [ 7] 7413 	ld	d,#0x00
   27E3 19            [11] 7414 	add	hl,de
   27E4 4D            [ 4] 7415 	ld	c,l
   27E5 44            [ 4] 7416 	ld	b,h
   27E6 FD 6E 00      [19] 7417 	ld	l,0 (iy)
   27E9 FD 66 01      [19] 7418 	ld	h,1 (iy)
   27EC 11 07 00      [10] 7419 	ld	de, #0x0007
   27EF 19            [11] 7420 	add	hl, de
   27F0 5E            [ 7] 7421 	ld	e,(hl)
   27F1 FD 6E 00      [19] 7422 	ld	l,0 (iy)
   27F4 FD 66 01      [19] 7423 	ld	h,1 (iy)
   27F7 C5            [11] 7424 	push	bc
   27F8 01 06 00      [10] 7425 	ld	bc, #0x0006
   27FB 09            [11] 7426 	add	hl, bc
   27FC C1            [10] 7427 	pop	bc
   27FD 56            [ 7] 7428 	ld	d,(hl)
   27FE FD 6E 00      [19] 7429 	ld	l,0 (iy)
   2801 FD 66 01      [19] 7430 	ld	h,1 (iy)
   2804 7E            [ 7] 7431 	ld	a,(hl)
   2805 FD 77 00      [19] 7432 	ld	0 (iy),a
   2808 23            [ 6] 7433 	inc	hl
   2809 7E            [ 7] 7434 	ld	a,(hl)
   280A FD 77 01      [19] 7435 	ld	1 (iy),a
   280D C5            [11] 7436 	push	bc
   280E 7B            [ 4] 7437 	ld	a,e
   280F F5            [11] 7438 	push	af
   2810 33            [ 6] 7439 	inc	sp
   2811 D5            [11] 7440 	push	de
   2812 33            [ 6] 7441 	inc	sp
   2813 FD 6E 00      [19] 7442 	ld	l,0 (iy)
   2816 FD 66 01      [19] 7443 	ld	h,1 (iy)
   2819 E5            [11] 7444 	push	hl
   281A CDr00r00      [17] 7445 	call	_cpc_PutSpXOR
   281D 21 06 00      [10] 7446 	ld	hl,#6
   2820 39            [11] 7447 	add	hl,sp
   2821 F9            [ 6] 7448 	ld	sp,hl
   2822                    7449 00102$:
                           7450 ;alien6.c:1046: malos[i].ox=malos[i].cx;
   2822 3ErF3         [ 7] 7451 	ld	a,#<(_malos)
   2824 21 05 00      [10] 7452 	ld	hl,#5
   2827 39            [11] 7453 	add	hl,sp
   2828 86            [ 7] 7454 	add	a, (hl)
   2829 5F            [ 4] 7455 	ld	e,a
   282A 3Es00         [ 7] 7456 	ld	a,#>(_malos)
   282C 23            [ 6] 7457 	inc	hl
   282D 8E            [ 7] 7458 	adc	a, (hl)
   282E 57            [ 4] 7459 	ld	d,a
   282F 21 04 00      [10] 7460 	ld	hl,#0x0004
   2832 19            [11] 7461 	add	hl,de
   2833 4D            [ 4] 7462 	ld	c,l
   2834 44            [ 4] 7463 	ld	b,h
   2835 6B            [ 4] 7464 	ld	l, e
   2836 62            [ 4] 7465 	ld	h, d
   2837 23            [ 6] 7466 	inc	hl
   2838 23            [ 6] 7467 	inc	hl
   2839 7E            [ 7] 7468 	ld	a,(hl)
   283A 02            [ 7] 7469 	ld	(bc),a
                           7470 ;alien6.c:1047: malos[i].oy=malos[i].cy;
   283B 21 05 00      [10] 7471 	ld	hl,#0x0005
   283E 19            [11] 7472 	add	hl,de
   283F 4D            [ 4] 7473 	ld	c,l
   2840 44            [ 4] 7474 	ld	b,h
   2841 D5            [11] 7475 	push	de
   2842 FD E1         [14] 7476 	pop	iy
   2844 FD 7E 03      [19] 7477 	ld	a,3 (iy)
   2847 02            [ 7] 7478 	ld	(bc),a
                           7479 ;alien6.c:1048: if (malos[i].nuevo) malos[i].nuevo=0;
   2848 21 11 00      [10] 7480 	ld	hl,#0x0011
   284B 19            [11] 7481 	add	hl,de
   284C 7E            [ 7] 7482 	ld	a,(hl)
   284D B7            [ 4] 7483 	or	a, a
   284E 28 02         [12] 7484 	jr	Z,00107$
   2850 36 00         [10] 7485 	ld	(hl),#0x00
   2852                    7486 00107$:
                           7487 ;alien6.c:1049: malos[i].moved=0;
   2852 21 0E 00      [10] 7488 	ld	hl,#0x000E
   2855 19            [11] 7489 	add	hl,de
   2856 36 00         [10] 7490 	ld	(hl),#0x00
   2858                    7491 00115$:
                           7492 ;alien6.c:1041: for (i=0;i<MAX_MALOS;i++){
   2858 21 05 00      [10] 7493 	ld	hl,#5
   285B 39            [11] 7494 	add	hl,sp
   285C 7E            [ 7] 7495 	ld	a,(hl)
   285D C6 1D         [ 7] 7496 	add	a, #0x1D
   285F 77            [ 7] 7497 	ld	(hl),a
   2860 23            [ 6] 7498 	inc	hl
   2861 7E            [ 7] 7499 	ld	a,(hl)
   2862 CE 00         [ 7] 7500 	adc	a, #0x00
   2864 77            [ 7] 7501 	ld	(hl),a
   2865 21 03 00      [10] 7502 	ld	hl,#3
   2868 39            [11] 7503 	add	hl,sp
   2869 7E            [ 7] 7504 	ld	a,(hl)
   286A C6 1D         [ 7] 7505 	add	a, #0x1D
   286C 77            [ 7] 7506 	ld	(hl),a
   286D 23            [ 6] 7507 	inc	hl
   286E 7E            [ 7] 7508 	ld	a,(hl)
   286F CE 00         [ 7] 7509 	adc	a, #0x00
   2871 77            [ 7] 7510 	ld	(hl),a
   2872 FD 21 00 00   [14] 7511 	ld	iy,#0
   2876 FD 39         [15] 7512 	add	iy,sp
   2878 FD 34 00      [23] 7513 	inc	0 (iy)
   287B FD 7E 00      [19] 7514 	ld	a,0 (iy)
   287E D6 06         [ 7] 7515 	sub	a, #0x06
   2880 DAr74r27      [10] 7516 	jp	C,00114$
   2883                    7517 00116$:
   2883 21 07 00      [10] 7518 	ld	hl,#7
   2886 39            [11] 7519 	add	hl,sp
   2887 F9            [ 6] 7520 	ld	sp,hl
   2888 C9            [10] 7521 	ret
   2889                    7522 _pintarMalos_end::
                           7523 ;alien6.c:1058: void inicializarDisparos(){
                           7524 ;	---------------------------------
                           7525 ; Function inicializarDisparos
                           7526 ; ---------------------------------
   2889                    7527 _inicializarDisparos_start::
   2889                    7528 _inicializarDisparos:
   2889 3B            [ 6] 7529 	dec	sp
                           7530 ;alien6.c:1060: for (k=0;k<MAX_DISPAROS;k++){
   288A FD 21 00 00   [14] 7531 	ld	iy,#0
   288E FD 39         [15] 7532 	add	iy,sp
   2890 FD 36 00 00   [19] 7533 	ld	0 (iy),#0x00
   2894 11 00 00      [10] 7534 	ld	de,#0x0000
   2897                    7535 00102$:
                           7536 ;alien6.c:1061: disparos[k].activo=0;
   2897 21r50r00      [10] 7537 	ld	hl,#_disparos
   289A 19            [11] 7538 	add	hl,de
   289B 4D            [ 4] 7539 	ld	c,l
   289C 44            [ 4] 7540 	ld	b,h
   289D 21 06 00      [10] 7541 	ld	hl,#0x0006
   28A0 09            [11] 7542 	add	hl,bc
   28A1 36 00         [10] 7543 	ld	(hl),#0x00
                           7544 ;alien6.c:1062: disparos[k].sp0=shot2;
   28A3 69            [ 4] 7545 	ld	l, c
   28A4 60            [ 4] 7546 	ld	h, b
   28A5 36rE5         [10] 7547 	ld	(hl),#<(_shot2)
   28A7 23            [ 6] 7548 	inc	hl
   28A8 36s01         [10] 7549 	ld	(hl),#>(_shot2)
                           7550 ;alien6.c:1063: disparos[k].cx=0;
   28AA 69            [ 4] 7551 	ld	l, c
   28AB 60            [ 4] 7552 	ld	h, b
   28AC 23            [ 6] 7553 	inc	hl
   28AD 23            [ 6] 7554 	inc	hl
   28AE 36 00         [10] 7555 	ld	(hl),#0x00
                           7556 ;alien6.c:1064: disparos[k].cy=0;
   28B0 69            [ 4] 7557 	ld	l, c
   28B1 60            [ 4] 7558 	ld	h, b
   28B2 23            [ 6] 7559 	inc	hl
   28B3 23            [ 6] 7560 	inc	hl
   28B4 23            [ 6] 7561 	inc	hl
   28B5 36 00         [10] 7562 	ld	(hl),#0x00
                           7563 ;alien6.c:1065: disparos[k].ox=0;
   28B7 21 04 00      [10] 7564 	ld	hl,#0x0004
   28BA 09            [11] 7565 	add	hl,bc
   28BB 36 00         [10] 7566 	ld	(hl),#0x00
                           7567 ;alien6.c:1066: disparos[k].oy=0;
   28BD 21 05 00      [10] 7568 	ld	hl,#0x0005
   28C0 09            [11] 7569 	add	hl,bc
   28C1 36 00         [10] 7570 	ld	(hl),#0x00
                           7571 ;alien6.c:1067: disparos[k].nuevo=0;
   28C3 21 09 00      [10] 7572 	ld	hl,#0x0009
   28C6 09            [11] 7573 	add	hl,bc
   28C7 36 00         [10] 7574 	ld	(hl),#0x00
                           7575 ;alien6.c:1068: disparos[k].dead=0;
   28C9 21 0A 00      [10] 7576 	ld	hl,#0x000A
   28CC 09            [11] 7577 	add	hl,bc
   28CD 36 00         [10] 7578 	ld	(hl),#0x00
                           7579 ;alien6.c:1069: disparos[k].lastmoved=0;
   28CF 21 0B 00      [10] 7580 	ld	hl,#0x000B
   28D2 09            [11] 7581 	add	hl,bc
   28D3 AF            [ 4] 7582 	xor	a, a
   28D4 77            [ 7] 7583 	ld	(hl), a
   28D5 23            [ 6] 7584 	inc	hl
   28D6 77            [ 7] 7585 	ld	(hl), a
   28D7 23            [ 6] 7586 	inc	hl
   28D8 AF            [ 4] 7587 	xor	a, a
   28D9 77            [ 7] 7588 	ld	(hl), a
   28DA 23            [ 6] 7589 	inc	hl
   28DB 77            [ 7] 7590 	ld	(hl), a
                           7591 ;alien6.c:1060: for (k=0;k<MAX_DISPAROS;k++){
   28DC 21 0F 00      [10] 7592 	ld	hl,#0x000F
   28DF 19            [11] 7593 	add	hl,de
   28E0 EB            [ 4] 7594 	ex	de,hl
   28E1 FD 21 00 00   [14] 7595 	ld	iy,#0
   28E5 FD 39         [15] 7596 	add	iy,sp
   28E7 FD 34 00      [23] 7597 	inc	0 (iy)
   28EA FD 7E 00      [19] 7598 	ld	a,0 (iy)
   28ED D6 02         [ 7] 7599 	sub	a, #0x02
   28EF 38 A6         [12] 7600 	jr	C,00102$
                           7601 ;alien6.c:1071: disparos_activos=0;
   28F1 21r9Br00      [10] 7602 	ld	hl,#_disparos_activos + 0
   28F4 36 00         [10] 7603 	ld	(hl), #0x00
   28F6 33            [ 6] 7604 	inc	sp
   28F7 C9            [10] 7605 	ret
   28F8                    7606 _inicializarDisparos_end::
                           7607 ;alien6.c:1074: void crearDisparo(unsigned char x, unsigned char y){
                           7608 ;	---------------------------------
                           7609 ; Function crearDisparo
                           7610 ; ---------------------------------
   28F8                    7611 _crearDisparo_start::
   28F8                    7612 _crearDisparo:
   28F8 F5            [11] 7613 	push	af
                           7614 ;alien6.c:1077: while (disparos[k].activo==1){
   28F9 FD 21 01 00   [14] 7615 	ld	iy,#1
   28FD FD 39         [15] 7616 	add	iy,sp
   28FF FD 36 00 00   [19] 7617 	ld	0 (iy),#0x00
   2903 11 00 00      [10] 7618 	ld	de,#0x0000
   2906                    7619 00101$:
   2906 21r50r00      [10] 7620 	ld	hl,#_disparos
   2909 19            [11] 7621 	add	hl,de
   290A E3            [19] 7622 	ex	(sp), hl
   290B FD 21 00 00   [14] 7623 	ld	iy,#0
   290F FD 39         [15] 7624 	add	iy,sp
   2911 FD 7E 00      [19] 7625 	ld	a,0 (iy)
   2914 C6 06         [ 7] 7626 	add	a, #0x06
   2916 4F            [ 4] 7627 	ld	c,a
   2917 FD 7E 01      [19] 7628 	ld	a,1 (iy)
   291A CE 00         [ 7] 7629 	adc	a, #0x00
   291C 47            [ 4] 7630 	ld	b,a
   291D 0A            [ 7] 7631 	ld	a,(bc)
   291E 3D            [ 4] 7632 	dec	a
   291F 20 07         [12] 7633 	jr	NZ,00103$
                           7634 ;alien6.c:1078: k++;
   2921 21 0F 00      [10] 7635 	ld	hl,#0x000F
   2924 19            [11] 7636 	add	hl,de
   2925 EB            [ 4] 7637 	ex	de,hl
   2926 18 DE         [12] 7638 	jr	00101$
   2928                    7639 00103$:
                           7640 ;alien6.c:1080: disparos[k].activo=1;
   2928 3E 01         [ 7] 7641 	ld	a,#0x01
   292A 02            [ 7] 7642 	ld	(bc),a
                           7643 ;alien6.c:1081: disparos[k].cx=x+1;
   292B C1            [10] 7644 	pop	bc
   292C C5            [11] 7645 	push	bc
   292D 03            [ 6] 7646 	inc	bc
   292E 03            [ 6] 7647 	inc	bc
   292F 21 04 00      [10] 7648 	ld	hl, #4+0
   2932 39            [11] 7649 	add	hl, sp
   2933 5E            [ 7] 7650 	ld	e, (hl)
   2934 1C            [ 4] 7651 	inc	e
   2935 7B            [ 4] 7652 	ld	a,e
   2936 02            [ 7] 7653 	ld	(bc),a
                           7654 ;alien6.c:1082: disparos[k].cy=y-1;
   2937 C1            [10] 7655 	pop	bc
   2938 C5            [11] 7656 	push	bc
   2939 03            [ 6] 7657 	inc	bc
   293A 03            [ 6] 7658 	inc	bc
   293B 03            [ 6] 7659 	inc	bc
   293C 21 05 00      [10] 7660 	ld	hl, #5+0
   293F 39            [11] 7661 	add	hl, sp
   2940 56            [ 7] 7662 	ld	d, (hl)
   2941 15            [ 4] 7663 	dec	d
   2942 7A            [ 4] 7664 	ld	a,d
   2943 02            [ 7] 7665 	ld	(bc),a
                           7666 ;alien6.c:1083: disparos[k].ox=x+1;
   2944 FD 21 00 00   [14] 7667 	ld	iy,#0
   2948 FD 39         [15] 7668 	add	iy,sp
   294A FD 7E 00      [19] 7669 	ld	a,0 (iy)
   294D C6 04         [ 7] 7670 	add	a, #0x04
   294F 4F            [ 4] 7671 	ld	c,a
   2950 FD 7E 01      [19] 7672 	ld	a,1 (iy)
   2953 CE 00         [ 7] 7673 	adc	a, #0x00
   2955 47            [ 4] 7674 	ld	b,a
   2956 7B            [ 4] 7675 	ld	a,e
   2957 02            [ 7] 7676 	ld	(bc),a
                           7677 ;alien6.c:1084: disparos[k].oy=y-1;
   2958 FD 7E 00      [19] 7678 	ld	a,0 (iy)
   295B C6 05         [ 7] 7679 	add	a, #0x05
   295D 6F            [ 4] 7680 	ld	l, a
   295E FD 7E 01      [19] 7681 	ld	a, 1 (iy)
   2961 CE 00         [ 7] 7682 	adc	a, #0x00
   2963 67            [ 4] 7683 	ld	h, a
   2964 72            [ 7] 7684 	ld	(hl),d
                           7685 ;alien6.c:1085: disparos[k].sp0=shot2;
   2965 E1            [10] 7686 	pop	hl
   2966 E5            [11] 7687 	push	hl
   2967 36rE5         [10] 7688 	ld	(hl),#<(_shot2)
   2969 23            [ 6] 7689 	inc	hl
   296A 36s01         [10] 7690 	ld	(hl),#>(_shot2)
                           7691 ;alien6.c:1086: disparos[k].nuevo=1;
   296C FD 7E 00      [19] 7692 	ld	a,0 (iy)
   296F C6 09         [ 7] 7693 	add	a, #0x09
   2971 6F            [ 4] 7694 	ld	l, a
   2972 FD 7E 01      [19] 7695 	ld	a, 1 (iy)
   2975 CE 00         [ 7] 7696 	adc	a, #0x00
   2977 67            [ 4] 7697 	ld	h, a
   2978 36 01         [10] 7698 	ld	(hl),#0x01
                           7699 ;alien6.c:1087: disparos[k].dead=0;
   297A FD 7E 00      [19] 7700 	ld	a,0 (iy)
   297D C6 0A         [ 7] 7701 	add	a, #0x0A
   297F 5F            [ 4] 7702 	ld	e,a
   2980 FD 7E 01      [19] 7703 	ld	a,1 (iy)
   2983 CE 00         [ 7] 7704 	adc	a, #0x00
   2985 57            [ 4] 7705 	ld	d,a
   2986 AF            [ 4] 7706 	xor	a, a
   2987 12            [ 7] 7707 	ld	(de),a
                           7708 ;alien6.c:1088: disparos_activos++;
   2988 21r9Br00      [10] 7709 	ld	hl, #_disparos_activos+0
   298B 34            [11] 7710 	inc	(hl)
                           7711 ;alien6.c:1089: prota.lastShot = getTime();
   298C CDr89r07      [17] 7712 	call	_getTime
   298F 4D            [ 4] 7713 	ld	c,l
   2990 44            [ 4] 7714 	ld	b,h
   2991 ED 43rEEr00   [20] 7715 	ld	((_prota + 0x0014)), bc
   2995 ED 53rF0r00   [20] 7716 	ld	((_prota + 0x0014) + 2), de
                           7717 ;alien6.c:1090: if (SONIDO_ACTIVADO) cpc_WyzStartEffect(0,0);
   2999 21 00 00      [10] 7718 	ld	hl,#0x0000
   299C E5            [11] 7719 	push	hl
   299D CDr00r00      [17] 7720 	call	_cpc_WyzStartEffect
   29A0 F1            [10] 7721 	pop	af
   29A1 F1            [10] 7722 	pop	af
   29A2 C9            [10] 7723 	ret
   29A3                    7724 _crearDisparo_end::
                           7725 ;alien6.c:1093: void moverDisparos(){
                           7726 ;	---------------------------------
                           7727 ; Function moverDisparos
                           7728 ; ---------------------------------
   29A3                    7729 _moverDisparos_start::
   29A3                    7730 _moverDisparos:
   29A3 21 DF FF      [10] 7731 	ld	hl,#-33
   29A6 39            [11] 7732 	add	hl,sp
   29A7 F9            [ 6] 7733 	ld	sp,hl
                           7734 ;alien6.c:1099: if (disparos_activos>0){
   29A8 3Ar9Br00      [13] 7735 	ld	a,(#_disparos_activos + 0)
   29AB B7            [ 4] 7736 	or	a, a
   29AC CArBCr2D      [10] 7737 	jp	Z,00135$
                           7738 ;alien6.c:1100: for (i=0;i<MAX_DISPAROS;i++){
   29AF FD 21 02 00   [14] 7739 	ld	iy,#2
   29B3 FD 39         [15] 7740 	add	iy,sp
   29B5 FD 36 00 00   [19] 7741 	ld	0 (iy),#0x00
   29B9 21 1F 00      [10] 7742 	ld	hl, #31
   29BC 39            [11] 7743 	add	hl, sp
   29BD AF            [ 4] 7744 	xor	a, a
   29BE 77            [ 7] 7745 	ld	(hl), a
   29BF 23            [ 6] 7746 	inc	hl
   29C0 77            [ 7] 7747 	ld	(hl), a
   29C1 21 1D 00      [10] 7748 	ld	hl, #29
   29C4 39            [11] 7749 	add	hl, sp
   29C5 AF            [ 4] 7750 	xor	a, a
   29C6 77            [ 7] 7751 	ld	(hl), a
   29C7 23            [ 6] 7752 	inc	hl
   29C8 77            [ 7] 7753 	ld	(hl), a
   29C9 21 1B 00      [10] 7754 	ld	hl, #27
   29CC 39            [11] 7755 	add	hl, sp
   29CD AF            [ 4] 7756 	xor	a, a
   29CE 77            [ 7] 7757 	ld	(hl), a
   29CF 23            [ 6] 7758 	inc	hl
   29D0 77            [ 7] 7759 	ld	(hl), a
   29D1 21 19 00      [10] 7760 	ld	hl, #25
   29D4 39            [11] 7761 	add	hl, sp
   29D5 AF            [ 4] 7762 	xor	a, a
   29D6 77            [ 7] 7763 	ld	(hl), a
   29D7 23            [ 6] 7764 	inc	hl
   29D8 77            [ 7] 7765 	ld	(hl), a
   29D9                    7766 00133$:
                           7767 ;alien6.c:1101: if ((disparos[i].activo==1) && (disparos[i].dead==0)){
   29D9 3Er50         [ 7] 7768 	ld	a,#<(_disparos)
   29DB 21 19 00      [10] 7769 	ld	hl,#25
   29DE 39            [11] 7770 	add	hl,sp
   29DF FD 21 17 00   [14] 7771 	ld	iy,#23
   29E3 FD 39         [15] 7772 	add	iy,sp
   29E5 86            [ 7] 7773 	add	a, (hl)
   29E6 FD 77 00      [19] 7774 	ld	0 (iy),a
   29E9 3Es00         [ 7] 7775 	ld	a,#>(_disparos)
   29EB 23            [ 6] 7776 	inc	hl
   29EC 8E            [ 7] 7777 	adc	a, (hl)
   29ED FD 23         [10] 7778 	inc	iy
   29EF FD 77 00      [19] 7779 	ld	0 (iy),a
   29F2 21 17 00      [10] 7780 	ld	hl, #23+0
   29F5 39            [11] 7781 	add	hl, sp
   29F6 7E            [ 7] 7782 	ld	a, (hl)
   29F7 FD 21 15 00   [14] 7783 	ld	iy,#21
   29FB FD 39         [15] 7784 	add	iy,sp
   29FD FD 77 00      [19] 7785 	ld	0 (iy),a
   2A00 21 18 00      [10] 7786 	ld	hl, #23+1
   2A03 39            [11] 7787 	add	hl, sp
   2A04 7E            [ 7] 7788 	ld	a, (hl)
   2A05 FD 21 15 00   [14] 7789 	ld	iy,#21
   2A09 FD 39         [15] 7790 	add	iy,sp
   2A0B FD 77 01      [19] 7791 	ld	1 (iy),a
   2A0E FD 6E 00      [19] 7792 	ld	l,0 (iy)
   2A11 FD 66 01      [19] 7793 	ld	h,1 (iy)
   2A14 11 06 00      [10] 7794 	ld	de, #0x0006
   2A17 19            [11] 7795 	add	hl, de
   2A18 7E            [ 7] 7796 	ld	a,(hl)
   2A19 3D            [ 4] 7797 	dec	a
   2A1A C2r77r2D      [10] 7798 	jp	NZ,00134$
   2A1D 21 15 00      [10] 7799 	ld	hl,#21
   2A20 39            [11] 7800 	add	hl,sp
   2A21 FD 21 17 00   [14] 7801 	ld	iy,#23
   2A25 FD 39         [15] 7802 	add	iy,sp
   2A27 FD 7E 00      [19] 7803 	ld	a,0 (iy)
   2A2A C6 0A         [ 7] 7804 	add	a, #0x0A
   2A2C 77            [ 7] 7805 	ld	(hl),a
   2A2D FD 7E 01      [19] 7806 	ld	a,1 (iy)
   2A30 CE 00         [ 7] 7807 	adc	a, #0x00
   2A32 23            [ 6] 7808 	inc	hl
   2A33 77            [ 7] 7809 	ld	(hl),a
   2A34 21 15 00      [10] 7810 	ld	hl, #21
   2A37 39            [11] 7811 	add	hl, sp
   2A38 7E            [ 7] 7812 	ld	a, (hl)
   2A39 23            [ 6] 7813 	inc	hl
   2A3A 66            [ 7] 7814 	ld	h, (hl)
   2A3B 6F            [ 4] 7815 	ld	l, a
   2A3C 7E            [ 7] 7816 	ld	a,(hl)
   2A3D FD 21 14 00   [14] 7817 	ld	iy,#20
   2A41 FD 39         [15] 7818 	add	iy,sp
   2A43 FD 77 00      [19] 7819 	ld	0 (iy),a
   2A46 FD 7E 00      [19] 7820 	ld	a,0 (iy)
   2A49 B7            [ 4] 7821 	or	a, a
   2A4A C2r77r2D      [10] 7822 	jp	NZ,00134$
                           7823 ;alien6.c:1102: if (disparos[i].cy>16){
   2A4D 21 17 00      [10] 7824 	ld	hl,#23
   2A50 39            [11] 7825 	add	hl,sp
   2A51 7E            [ 7] 7826 	ld	a,(hl)
   2A52 C6 03         [ 7] 7827 	add	a, #0x03
   2A54 77            [ 7] 7828 	ld	(hl),a
   2A55 23            [ 6] 7829 	inc	hl
   2A56 7E            [ 7] 7830 	ld	a,(hl)
   2A57 CE 00         [ 7] 7831 	adc	a, #0x00
   2A59 77            [ 7] 7832 	ld	(hl),a
   2A5A 21 17 00      [10] 7833 	ld	hl, #23
   2A5D 39            [11] 7834 	add	hl, sp
   2A5E 7E            [ 7] 7835 	ld	a, (hl)
   2A5F 23            [ 6] 7836 	inc	hl
   2A60 66            [ 7] 7837 	ld	h, (hl)
   2A61 6F            [ 4] 7838 	ld	l, a
   2A62 7E            [ 7] 7839 	ld	a,(hl)
   2A63 FD 21 14 00   [14] 7840 	ld	iy,#20
   2A67 FD 39         [15] 7841 	add	iy,sp
   2A69 FD 77 00      [19] 7842 	ld	0 (iy),a
   2A6C 3E 10         [ 7] 7843 	ld	a,#0x10
   2A6E FD 96 00      [19] 7844 	sub	a, 0 (iy)
   2A71 D2r3Dr2D      [10] 7845 	jp	NC,00123$
                           7846 ;alien6.c:1103: disparos[i].cy=disparos[i].cy - SALTO_DISPARO;
   2A74 21 14 00      [10] 7847 	ld	hl,#20
   2A77 39            [11] 7848 	add	hl,sp
   2A78 7E            [ 7] 7849 	ld	a,(hl)
   2A79 C6 FC         [ 7] 7850 	add	a,#0xFC
   2A7B 77            [ 7] 7851 	ld	(hl),a
   2A7C 21 17 00      [10] 7852 	ld	hl, #23
   2A7F 39            [11] 7853 	add	hl, sp
   2A80 7E            [ 7] 7854 	ld	a, (hl)
   2A81 23            [ 6] 7855 	inc	hl
   2A82 66            [ 7] 7856 	ld	h, (hl)
   2A83 6F            [ 4] 7857 	ld	l, a
   2A84 FD 21 14 00   [14] 7858 	ld	iy,#20
   2A88 FD 39         [15] 7859 	add	iy,sp
   2A8A FD 7E 00      [19] 7860 	ld	a,0 (iy)
   2A8D 77            [ 7] 7861 	ld	(hl),a
                           7862 ;alien6.c:1104: for (j=0;j<MAX_MALOS;j++){	//compruebo colisiones con los malos.
   2A8E 3Er50         [ 7] 7863 	ld	a,#<(_disparos)
   2A90 21 1D 00      [10] 7864 	ld	hl,#29
   2A93 39            [11] 7865 	add	hl,sp
   2A94 FD 21 17 00   [14] 7866 	ld	iy,#23
   2A98 FD 39         [15] 7867 	add	iy,sp
   2A9A 86            [ 7] 7868 	add	a, (hl)
   2A9B FD 77 00      [19] 7869 	ld	0 (iy),a
   2A9E 3Es00         [ 7] 7870 	ld	a,#>(_disparos)
   2AA0 23            [ 6] 7871 	inc	hl
   2AA1 8E            [ 7] 7872 	adc	a, (hl)
   2AA2 FD 23         [10] 7873 	inc	iy
   2AA4 FD 77 00      [19] 7874 	ld	0 (iy),a
   2AA7 21 17 00      [10] 7875 	ld	hl, #23+0
   2AAA 39            [11] 7876 	add	hl, sp
   2AAB 7E            [ 7] 7877 	ld	a, (hl)
   2AAC FD 21 12 00   [14] 7878 	ld	iy,#18
   2AB0 FD 39         [15] 7879 	add	iy,sp
   2AB2 FD 77 00      [19] 7880 	ld	0 (iy),a
   2AB5 21 18 00      [10] 7881 	ld	hl, #23+1
   2AB8 39            [11] 7882 	add	hl, sp
   2AB9 7E            [ 7] 7883 	ld	a, (hl)
   2ABA FD 21 12 00   [14] 7884 	ld	iy,#18
   2ABE FD 39         [15] 7885 	add	iy,sp
   2AC0 FD 77 01      [19] 7886 	ld	1 (iy),a
   2AC3 21 17 00      [10] 7887 	ld	hl, #23+0
   2AC6 39            [11] 7888 	add	hl, sp
   2AC7 7E            [ 7] 7889 	ld	a, (hl)
   2AC8 FD 21 10 00   [14] 7890 	ld	iy,#16
   2ACC FD 39         [15] 7891 	add	iy,sp
   2ACE FD 77 00      [19] 7892 	ld	0 (iy),a
   2AD1 21 18 00      [10] 7893 	ld	hl, #23+1
   2AD4 39            [11] 7894 	add	hl, sp
   2AD5 7E            [ 7] 7895 	ld	a, (hl)
   2AD6 FD 21 10 00   [14] 7896 	ld	iy,#16
   2ADA FD 39         [15] 7897 	add	iy,sp
   2ADC FD 77 01      [19] 7898 	ld	1 (iy),a
   2ADF FD 21 01 00   [14] 7899 	ld	iy,#1
   2AE3 FD 39         [15] 7900 	add	iy,sp
   2AE5 FD 36 00 00   [19] 7901 	ld	0 (iy),#0x00
   2AE9 21 0E 00      [10] 7902 	ld	hl, #14
   2AEC 39            [11] 7903 	add	hl, sp
   2AED AF            [ 4] 7904 	xor	a, a
   2AEE 77            [ 7] 7905 	ld	(hl), a
   2AEF 23            [ 6] 7906 	inc	hl
   2AF0 77            [ 7] 7907 	ld	(hl), a
   2AF1 21 0C 00      [10] 7908 	ld	hl, #12
   2AF4 39            [11] 7909 	add	hl, sp
   2AF5 AF            [ 4] 7910 	xor	a, a
   2AF6 77            [ 7] 7911 	ld	(hl), a
   2AF7 23            [ 6] 7912 	inc	hl
   2AF8 77            [ 7] 7913 	ld	(hl), a
   2AF9                    7914 00131$:
                           7915 ;alien6.c:1105: if (malos[j].activo==1){
   2AF9 3ErF3         [ 7] 7916 	ld	a,#<(_malos)
   2AFB 21 0C 00      [10] 7917 	ld	hl,#12
   2AFE 39            [11] 7918 	add	hl,sp
   2AFF 86            [ 7] 7919 	add	a, (hl)
   2B00 4F            [ 4] 7920 	ld	c,a
   2B01 3Es00         [ 7] 7921 	ld	a,#>(_malos)
   2B03 23            [ 6] 7922 	inc	hl
   2B04 8E            [ 7] 7923 	adc	a, (hl)
   2B05 47            [ 4] 7924 	ld	b,a
   2B06 C5            [11] 7925 	push	bc
   2B07 FD E1         [14] 7926 	pop	iy
   2B09 FD 7E 0D      [19] 7927 	ld	a,13 (iy)
   2B0C 3D            [ 4] 7928 	dec	a
   2B0D C2r10r2D      [10] 7929 	jp	NZ,00132$
                           7930 ;alien6.c:1106: if (detectarColision(disparos[i].cx,disparos[i].cy,2,6,malos[j].cx,malos[j].cy,malos[j].w,malos[j].h)){  
   2B10 69            [ 4] 7931 	ld	l, c
   2B11 60            [ 4] 7932 	ld	h, b
   2B12 11 06 00      [10] 7933 	ld	de, #0x0006
   2B15 19            [11] 7934 	add	hl, de
   2B16 7E            [ 7] 7935 	ld	a,(hl)
   2B17 FD 21 14 00   [14] 7936 	ld	iy,#20
   2B1B FD 39         [15] 7937 	add	iy,sp
   2B1D FD 77 00      [19] 7938 	ld	0 (iy),a
   2B20 C5            [11] 7939 	push	bc
   2B21 FD E1         [14] 7940 	pop	iy
   2B23 FD 5E 07      [19] 7941 	ld	e,7 (iy)
   2B26 21 03 00      [10] 7942 	ld	hl,#0x0003
   2B29 09            [11] 7943 	add	hl,bc
   2B2A FD 21 0A 00   [14] 7944 	ld	iy,#10
   2B2E FD 39         [15] 7945 	add	iy,sp
   2B30 FD 75 00      [19] 7946 	ld	0 (iy),l
   2B33 FD 74 01      [19] 7947 	ld	1 (iy),h
   2B36 FD 6E 00      [19] 7948 	ld	l,0 (iy)
   2B39 FD 66 01      [19] 7949 	ld	h,1 (iy)
   2B3C 7E            [ 7] 7950 	ld	a,(hl)
   2B3D FD 21 09 00   [14] 7951 	ld	iy,#9
   2B41 FD 39         [15] 7952 	add	iy,sp
   2B43 FD 77 00      [19] 7953 	ld	0 (iy),a
   2B46 21 02 00      [10] 7954 	ld	hl,#0x0002
   2B49 09            [11] 7955 	add	hl,bc
   2B4A FD 21 07 00   [14] 7956 	ld	iy,#7
   2B4E FD 39         [15] 7957 	add	iy,sp
   2B50 FD 75 00      [19] 7958 	ld	0 (iy),l
   2B53 FD 74 01      [19] 7959 	ld	1 (iy),h
   2B56 FD 6E 00      [19] 7960 	ld	l,0 (iy)
   2B59 FD 66 01      [19] 7961 	ld	h,1 (iy)
   2B5C 7E            [ 7] 7962 	ld	a,(hl)
   2B5D FD 21 06 00   [14] 7963 	ld	iy,#6
   2B61 FD 39         [15] 7964 	add	iy,sp
   2B63 FD 77 00      [19] 7965 	ld	0 (iy),a
   2B66 21 12 00      [10] 7966 	ld	hl, #18
   2B69 39            [11] 7967 	add	hl, sp
   2B6A 7E            [ 7] 7968 	ld	a, (hl)
   2B6B 23            [ 6] 7969 	inc	hl
   2B6C 66            [ 7] 7970 	ld	h, (hl)
   2B6D 6F            [ 4] 7971 	ld	l, a
   2B6E 23            [ 6] 7972 	inc	hl
   2B6F 23            [ 6] 7973 	inc	hl
   2B70 23            [ 6] 7974 	inc	hl
   2B71 7E            [ 7] 7975 	ld	a,(hl)
   2B72 FD 21 05 00   [14] 7976 	ld	iy,#5
   2B76 FD 39         [15] 7977 	add	iy,sp
   2B78 FD 77 00      [19] 7978 	ld	0 (iy),a
   2B7B 21 10 00      [10] 7979 	ld	hl, #16
   2B7E 39            [11] 7980 	add	hl, sp
   2B7F 7E            [ 7] 7981 	ld	a, (hl)
   2B80 23            [ 6] 7982 	inc	hl
   2B81 66            [ 7] 7983 	ld	h, (hl)
   2B82 6F            [ 4] 7984 	ld	l, a
   2B83 23            [ 6] 7985 	inc	hl
   2B84 23            [ 6] 7986 	inc	hl
   2B85 56            [ 7] 7987 	ld	d,(hl)
   2B86 C5            [11] 7988 	push	bc
   2B87 21 16 00      [10] 7989 	ld	hl, #22+0
   2B8A 39            [11] 7990 	add	hl, sp
   2B8B 7E            [ 7] 7991 	ld	a, (hl)
   2B8C F5            [11] 7992 	push	af
   2B8D 33            [ 6] 7993 	inc	sp
   2B8E 7B            [ 4] 7994 	ld	a,e
   2B8F F5            [11] 7995 	push	af
   2B90 33            [ 6] 7996 	inc	sp
   2B91 21 0D 00      [10] 7997 	ld	hl, #13+0
   2B94 39            [11] 7998 	add	hl, sp
   2B95 7E            [ 7] 7999 	ld	a, (hl)
   2B96 F5            [11] 8000 	push	af
   2B97 33            [ 6] 8001 	inc	sp
   2B98 21 0B 00      [10] 8002 	ld	hl, #11+0
   2B9B 39            [11] 8003 	add	hl, sp
   2B9C 7E            [ 7] 8004 	ld	a, (hl)
   2B9D F5            [11] 8005 	push	af
   2B9E 33            [ 6] 8006 	inc	sp
   2B9F 21 02 06      [10] 8007 	ld	hl,#0x0602
   2BA2 E5            [11] 8008 	push	hl
   2BA3 21 0D 00      [10] 8009 	ld	hl, #13+0
   2BA6 39            [11] 8010 	add	hl, sp
   2BA7 7E            [ 7] 8011 	ld	a, (hl)
   2BA8 F5            [11] 8012 	push	af
   2BA9 33            [ 6] 8013 	inc	sp
   2BAA D5            [11] 8014 	push	de
   2BAB 33            [ 6] 8015 	inc	sp
   2BAC CDrCEr07      [17] 8016 	call	_detectarColision
   2BAF F1            [10] 8017 	pop	af
   2BB0 F1            [10] 8018 	pop	af
   2BB1 F1            [10] 8019 	pop	af
   2BB2 F1            [10] 8020 	pop	af
   2BB3 7D            [ 4] 8021 	ld	a,l
   2BB4 C1            [10] 8022 	pop	bc
   2BB5 B7            [ 4] 8023 	or	a, a
   2BB6 CAr10r2D      [10] 8024 	jp	Z,00132$
                           8025 ;alien6.c:1108: disparos[i].dead=1;
   2BB9 FD 21 17 00   [14] 8026 	ld	iy,#23
   2BBD FD 39         [15] 8027 	add	iy,sp
   2BBF FD 7E 00      [19] 8028 	ld	a,0 (iy)
   2BC2 C6 0A         [ 7] 8029 	add	a, #0x0A
   2BC4 5F            [ 4] 8030 	ld	e,a
   2BC5 FD 7E 01      [19] 8031 	ld	a,1 (iy)
   2BC8 CE 00         [ 7] 8032 	adc	a, #0x00
   2BCA 57            [ 4] 8033 	ld	d,a
   2BCB 3E 01         [ 7] 8034 	ld	a,#0x01
   2BCD 12            [ 7] 8035 	ld	(de),a
                           8036 ;alien6.c:1110: malos[j].vidas--;
   2BCE 21 13 00      [10] 8037 	ld	hl,#0x0013
   2BD1 09            [11] 8038 	add	hl,bc
   2BD2 EB            [ 4] 8039 	ex	de,hl
   2BD3 1A            [ 7] 8040 	ld	a,(de)
   2BD4 C6 FF         [ 7] 8041 	add	a,#0xFF
   2BD6 12            [ 7] 8042 	ld	(de),a
                           8043 ;alien6.c:1111: if (malos[j].vidas==0){
   2BD7 B7            [ 4] 8044 	or	a, a
   2BD8 C2rC3r2C      [10] 8045 	jp	NZ,00115$
                           8046 ;alien6.c:1112: malos[j].dead=1;
   2BDB 21 12 00      [10] 8047 	ld	hl,#0x0012
   2BDE 09            [11] 8048 	add	hl,bc
   2BDF 36 01         [10] 8049 	ld	(hl),#0x01
                           8050 ;alien6.c:1114: if (malos[j].movement==BADDIE_ATTACK){
   2BE1 C5            [11] 8051 	push	bc
   2BE2 FD E1         [14] 8052 	pop	iy
   2BE4 FD 7E 09      [19] 8053 	ld	a,9 (iy)
   2BE7 3D            [ 4] 8054 	dec	a
   2BE8 20 70         [12] 8055 	jr	NZ,00106$
                           8056 ;alien6.c:1116: while ((ataques[k].idMalo!=j)&&(!ataques[k].activo))
   2BEA FD 21 00 00   [14] 8057 	ld	iy,#0
   2BEE FD 39         [15] 8058 	add	iy,sp
   2BF0 FD 36 00 00   [19] 8059 	ld	0 (iy),#0x00
   2BF4 21 03 00      [10] 8060 	ld	hl, #3
   2BF7 39            [11] 8061 	add	hl, sp
   2BF8 AF            [ 4] 8062 	xor	a, a
   2BF9 77            [ 7] 8063 	ld	(hl), a
   2BFA 23            [ 6] 8064 	inc	hl
   2BFB 77            [ 7] 8065 	ld	(hl), a
   2BFC                    8066 00102$:
   2BFC 3ErA0         [ 7] 8067 	ld	a,#<(_ataques)
   2BFE 21 03 00      [10] 8068 	ld	hl,#3
   2C01 39            [11] 8069 	add	hl,sp
   2C02 86            [ 7] 8070 	add	a, (hl)
   2C03 5F            [ 4] 8071 	ld	e,a
   2C04 3Es02         [ 7] 8072 	ld	a,#>(_ataques)
   2C06 23            [ 6] 8073 	inc	hl
   2C07 8E            [ 7] 8074 	adc	a, (hl)
   2C08 57            [ 4] 8075 	ld	d,a
   2C09 6B            [ 4] 8076 	ld	l, e
   2C0A 62            [ 4] 8077 	ld	h, d
   2C0B 23            [ 6] 8078 	inc	hl
   2C0C 46            [ 7] 8079 	ld	b,(hl)
   2C0D 21 01 00      [10] 8080 	ld	hl, #1+0
   2C10 39            [11] 8081 	add	hl, sp
   2C11 7E            [ 7] 8082 	ld	a, (hl)
   2C12 90            [ 4] 8083 	sub	a, b
   2C13 28 1C         [12] 8084 	jr	Z,00104$
   2C15 1A            [ 7] 8085 	ld	a,(de)
   2C16 B7            [ 4] 8086 	or	a, a
   2C17 20 18         [12] 8087 	jr	NZ,00104$
                           8088 ;alien6.c:1117: k++;
   2C19 21 03 00      [10] 8089 	ld	hl,#3
   2C1C 39            [11] 8090 	add	hl,sp
   2C1D 7E            [ 7] 8091 	ld	a,(hl)
   2C1E C6 06         [ 7] 8092 	add	a, #0x06
   2C20 77            [ 7] 8093 	ld	(hl),a
   2C21 23            [ 6] 8094 	inc	hl
   2C22 7E            [ 7] 8095 	ld	a,(hl)
   2C23 CE 00         [ 7] 8096 	adc	a, #0x00
   2C25 77            [ 7] 8097 	ld	(hl),a
   2C26 FD 21 00 00   [14] 8098 	ld	iy,#0
   2C2A FD 39         [15] 8099 	add	iy,sp
   2C2C FD 34 00      [23] 8100 	inc	0 (iy)
   2C2F 18 CB         [12] 8101 	jr	00102$
   2C31                    8102 00104$:
                           8103 ;alien6.c:1118: ataques[k].activo=0;
   2C31 21 00 00      [10] 8104 	ld	hl, #0+0
   2C34 39            [11] 8105 	add	hl, sp
   2C35 4E            [ 7] 8106 	ld	c, (hl)
   2C36 06 00         [ 7] 8107 	ld	b,#0x00
   2C38 69            [ 4] 8108 	ld	l, c
   2C39 60            [ 4] 8109 	ld	h, b
   2C3A 29            [11] 8110 	add	hl, hl
   2C3B 09            [11] 8111 	add	hl, bc
   2C3C 29            [11] 8112 	add	hl, hl
   2C3D 11rA0r02      [10] 8113 	ld	de,#_ataques
   2C40 19            [11] 8114 	add	hl,de
   2C41 36 00         [10] 8115 	ld	(hl),#0x00
                           8116 ;alien6.c:1119: ataques_activos--;
   2C43 21rB2r02      [10] 8117 	ld	hl, #_ataques_activos+0
   2C46 35            [11] 8118 	dec	(hl)
                           8119 ;alien6.c:1121: score+=100;
   2C47 21r6Dr03      [10] 8120 	ld	hl,#_score
   2C4A 7E            [ 7] 8121 	ld	a,(hl)
   2C4B C6 64         [ 7] 8122 	add	a, #0x64
   2C4D 77            [ 7] 8123 	ld	(hl),a
   2C4E 23            [ 6] 8124 	inc	hl
   2C4F 7E            [ 7] 8125 	ld	a,(hl)
   2C50 CE 00         [ 7] 8126 	adc	a, #0x00
   2C52 77            [ 7] 8127 	ld	(hl),a
                           8128 ;alien6.c:1122: cambio_score=1;
   2C53 21r6Fr03      [10] 8129 	ld	hl,#_cambio_score + 0
   2C56 36 01         [10] 8130 	ld	(hl), #0x01
   2C58 18 11         [12] 8131 	jr	00107$
   2C5A                    8132 00106$:
                           8133 ;alien6.c:1125: score+=50;
   2C5A 21r6Dr03      [10] 8134 	ld	hl,#_score
   2C5D 7E            [ 7] 8135 	ld	a,(hl)
   2C5E C6 32         [ 7] 8136 	add	a, #0x32
   2C60 77            [ 7] 8137 	ld	(hl),a
   2C61 23            [ 6] 8138 	inc	hl
   2C62 7E            [ 7] 8139 	ld	a,(hl)
   2C63 CE 00         [ 7] 8140 	adc	a, #0x00
   2C65 77            [ 7] 8141 	ld	(hl),a
                           8142 ;alien6.c:1126: cambio_score=1;
   2C66 21r6Fr03      [10] 8143 	ld	hl,#_cambio_score + 0
   2C69 36 01         [10] 8144 	ld	(hl), #0x01
   2C6B                    8145 00107$:
                           8146 ;alien6.c:1129: crearExplosion(0, malos[j].cx, malos[j].cy);
   2C6B 3ErF3         [ 7] 8147 	ld	a,#<(_malos)
   2C6D 21 0E 00      [10] 8148 	ld	hl,#14
   2C70 39            [11] 8149 	add	hl,sp
   2C71 86            [ 7] 8150 	add	a, (hl)
   2C72 5F            [ 4] 8151 	ld	e,a
   2C73 3Es00         [ 7] 8152 	ld	a,#>(_malos)
   2C75 23            [ 6] 8153 	inc	hl
   2C76 8E            [ 7] 8154 	adc	a, (hl)
   2C77 57            [ 4] 8155 	ld	d,a
   2C78 21 03 00      [10] 8156 	ld	hl,#0x0003
   2C7B 19            [11] 8157 	add	hl,de
   2C7C FD 21 03 00   [14] 8158 	ld	iy,#3
   2C80 FD 39         [15] 8159 	add	iy,sp
   2C82 FD 75 00      [19] 8160 	ld	0 (iy),l
   2C85 FD 74 01      [19] 8161 	ld	1 (iy),h
   2C88 FD 6E 00      [19] 8162 	ld	l,0 (iy)
   2C8B FD 66 01      [19] 8163 	ld	h,1 (iy)
   2C8E 46            [ 7] 8164 	ld	b,(hl)
   2C8F 13            [ 6] 8165 	inc	de
   2C90 13            [ 6] 8166 	inc	de
   2C91 1A            [ 7] 8167 	ld	a,(de)
   2C92 D5            [11] 8168 	push	de
   2C93 C5            [11] 8169 	push	bc
   2C94 33            [ 6] 8170 	inc	sp
   2C95 F5            [11] 8171 	push	af
   2C96 33            [ 6] 8172 	inc	sp
   2C97 AF            [ 4] 8173 	xor	a, a
   2C98 F5            [11] 8174 	push	af
   2C99 33            [ 6] 8175 	inc	sp
   2C9A CDr67r0E      [17] 8176 	call	_crearExplosion
   2C9D 33            [ 6] 8177 	inc	sp
   2C9E 21 01 03      [10] 8178 	ld	hl,#0x0301
   2CA1 E3            [19] 8179 	ex	(sp),hl
   2CA2 CDr00r00      [17] 8180 	call	_cpc_WyzStartEffect
   2CA5 F1            [10] 8181 	pop	af
   2CA6 CDr00r00      [17] 8182 	call	_cpc_Random
   2CA9 D1            [10] 8183 	pop	de
   2CAA 7D            [ 4] 8184 	ld	a,l
   2CAB D6 19         [ 7] 8185 	sub	a, #0x19
   2CAD 30 61         [12] 8186 	jr	NC,00132$
                           8187 ;alien6.c:1134: crearAddon(malos[j].cx, malos[j].cy);
   2CAF 21 03 00      [10] 8188 	ld	hl, #3
   2CB2 39            [11] 8189 	add	hl, sp
   2CB3 7E            [ 7] 8190 	ld	a, (hl)
   2CB4 23            [ 6] 8191 	inc	hl
   2CB5 66            [ 7] 8192 	ld	h, (hl)
   2CB6 6F            [ 4] 8193 	ld	l, a
   2CB7 46            [ 7] 8194 	ld	b,(hl)
   2CB8 1A            [ 7] 8195 	ld	a,(de)
   2CB9 C5            [11] 8196 	push	bc
   2CBA 33            [ 6] 8197 	inc	sp
   2CBB F5            [11] 8198 	push	af
   2CBC 33            [ 6] 8199 	inc	sp
   2CBD CDr78r16      [17] 8200 	call	_crearAddon
   2CC0 F1            [10] 8201 	pop	af
   2CC1 18 4D         [12] 8202 	jr	00132$
   2CC3                    8203 00115$:
                           8204 ;alien6.c:1137: crearExplosion(1, malos[j].cx, malos[j].cy+malos[i].h);
   2CC3 21 0A 00      [10] 8205 	ld	hl, #10
   2CC6 39            [11] 8206 	add	hl, sp
   2CC7 7E            [ 7] 8207 	ld	a, (hl)
   2CC8 23            [ 6] 8208 	inc	hl
   2CC9 66            [ 7] 8209 	ld	h, (hl)
   2CCA 6F            [ 4] 8210 	ld	l, a
   2CCB 56            [ 7] 8211 	ld	d,(hl)
   2CCC 3ErF3         [ 7] 8212 	ld	a,#<(_malos)
   2CCE 21 1F 00      [10] 8213 	ld	hl,#31
   2CD1 39            [11] 8214 	add	hl,sp
   2CD2 86            [ 7] 8215 	add	a, (hl)
   2CD3 5F            [ 4] 8216 	ld	e,a
   2CD4 3Es00         [ 7] 8217 	ld	a,#>(_malos)
   2CD6 23            [ 6] 8218 	inc	hl
   2CD7 8E            [ 7] 8219 	adc	a, (hl)
   2CD8 67            [ 4] 8220 	ld	h,a
   2CD9 6B            [ 4] 8221 	ld	l, e
   2CDA 01 06 00      [10] 8222 	ld	bc, #0x0006
   2CDD 09            [11] 8223 	add	hl, bc
   2CDE 6E            [ 7] 8224 	ld	l,(hl)
   2CDF 7A            [ 4] 8225 	ld	a,d
   2CE0 85            [ 4] 8226 	add	a, l
   2CE1 FD 21 07 00   [14] 8227 	ld	iy,#7
   2CE5 FD 39         [15] 8228 	add	iy,sp
   2CE7 FD 6E 00      [19] 8229 	ld	l,0 (iy)
   2CEA FD 66 01      [19] 8230 	ld	h,1 (iy)
   2CED 56            [ 7] 8231 	ld	d,(hl)
   2CEE F5            [11] 8232 	push	af
   2CEF 33            [ 6] 8233 	inc	sp
   2CF0 1E 01         [ 7] 8234 	ld	e, #0x01
   2CF2 D5            [11] 8235 	push	de
   2CF3 CDr67r0E      [17] 8236 	call	_crearExplosion
                           8237 ;alien6.c:1139: if (SONIDO_ACTIVADO) cpc_WyzStartEffect(2,2);
   2CF6 33            [ 6] 8238 	inc	sp
   2CF7 21 02 02      [10] 8239 	ld	hl,#0x0202
   2CFA E3            [19] 8240 	ex	(sp),hl
   2CFB CDr00r00      [17] 8241 	call	_cpc_WyzStartEffect
   2CFE F1            [10] 8242 	pop	af
                           8243 ;alien6.c:1141: score+=5;
   2CFF 21r6Dr03      [10] 8244 	ld	hl,#_score
   2D02 7E            [ 7] 8245 	ld	a,(hl)
   2D03 C6 05         [ 7] 8246 	add	a, #0x05
   2D05 77            [ 7] 8247 	ld	(hl),a
   2D06 23            [ 6] 8248 	inc	hl
   2D07 7E            [ 7] 8249 	ld	a,(hl)
   2D08 CE 00         [ 7] 8250 	adc	a, #0x00
   2D0A 77            [ 7] 8251 	ld	(hl),a
                           8252 ;alien6.c:1142: cambio_score=1;
   2D0B 21r6Fr03      [10] 8253 	ld	hl,#_cambio_score + 0
   2D0E 36 01         [10] 8254 	ld	(hl), #0x01
   2D10                    8255 00132$:
                           8256 ;alien6.c:1104: for (j=0;j<MAX_MALOS;j++){	//compruebo colisiones con los malos.
   2D10 21 0E 00      [10] 8257 	ld	hl,#14
   2D13 39            [11] 8258 	add	hl,sp
   2D14 7E            [ 7] 8259 	ld	a,(hl)
   2D15 C6 1D         [ 7] 8260 	add	a, #0x1D
   2D17 77            [ 7] 8261 	ld	(hl),a
   2D18 23            [ 6] 8262 	inc	hl
   2D19 7E            [ 7] 8263 	ld	a,(hl)
   2D1A CE 00         [ 7] 8264 	adc	a, #0x00
   2D1C 77            [ 7] 8265 	ld	(hl),a
   2D1D 21 0C 00      [10] 8266 	ld	hl,#12
   2D20 39            [11] 8267 	add	hl,sp
   2D21 7E            [ 7] 8268 	ld	a,(hl)
   2D22 C6 1D         [ 7] 8269 	add	a, #0x1D
   2D24 77            [ 7] 8270 	ld	(hl),a
   2D25 23            [ 6] 8271 	inc	hl
   2D26 7E            [ 7] 8272 	ld	a,(hl)
   2D27 CE 00         [ 7] 8273 	adc	a, #0x00
   2D29 77            [ 7] 8274 	ld	(hl),a
   2D2A FD 21 01 00   [14] 8275 	ld	iy,#1
   2D2E FD 39         [15] 8276 	add	iy,sp
   2D30 FD 34 00      [23] 8277 	inc	0 (iy)
   2D33 FD 7E 00      [19] 8278 	ld	a,0 (iy)
   2D36 D6 06         [ 7] 8279 	sub	a, #0x06
   2D38 DArF9r2A      [10] 8280 	jp	C,00131$
   2D3B 18 0A         [12] 8281 	jr	00124$
   2D3D                    8282 00123$:
                           8283 ;alien6.c:1150: disparos[i].dead=1;
   2D3D 21 15 00      [10] 8284 	ld	hl, #21
   2D40 39            [11] 8285 	add	hl, sp
   2D41 7E            [ 7] 8286 	ld	a, (hl)
   2D42 23            [ 6] 8287 	inc	hl
   2D43 66            [ 7] 8288 	ld	h, (hl)
   2D44 6F            [ 4] 8289 	ld	l, a
   2D45 36 01         [10] 8290 	ld	(hl),#0x01
   2D47                    8291 00124$:
                           8292 ;alien6.c:1152: disparos[i].moved=1;
   2D47 3Er50         [ 7] 8293 	ld	a,#<(_disparos)
   2D49 21 1B 00      [10] 8294 	ld	hl,#27
   2D4C 39            [11] 8295 	add	hl,sp
   2D4D FD 21 03 00   [14] 8296 	ld	iy,#3
   2D51 FD 39         [15] 8297 	add	iy,sp
   2D53 86            [ 7] 8298 	add	a, (hl)
   2D54 FD 77 00      [19] 8299 	ld	0 (iy),a
   2D57 3Es00         [ 7] 8300 	ld	a,#>(_disparos)
   2D59 23            [ 6] 8301 	inc	hl
   2D5A 8E            [ 7] 8302 	adc	a, (hl)
   2D5B FD 23         [10] 8303 	inc	iy
   2D5D FD 77 00      [19] 8304 	ld	0 (iy),a
   2D60 21 03 00      [10] 8305 	ld	hl,#3
   2D63 39            [11] 8306 	add	hl,sp
   2D64 7E            [ 7] 8307 	ld	a,(hl)
   2D65 C6 07         [ 7] 8308 	add	a, #0x07
   2D67 77            [ 7] 8309 	ld	(hl),a
   2D68 23            [ 6] 8310 	inc	hl
   2D69 7E            [ 7] 8311 	ld	a,(hl)
   2D6A CE 00         [ 7] 8312 	adc	a, #0x00
   2D6C 77            [ 7] 8313 	ld	(hl),a
   2D6D 21 03 00      [10] 8314 	ld	hl, #3
   2D70 39            [11] 8315 	add	hl, sp
   2D71 7E            [ 7] 8316 	ld	a, (hl)
   2D72 23            [ 6] 8317 	inc	hl
   2D73 66            [ 7] 8318 	ld	h, (hl)
   2D74 6F            [ 4] 8319 	ld	l, a
   2D75 36 01         [10] 8320 	ld	(hl),#0x01
   2D77                    8321 00134$:
                           8322 ;alien6.c:1100: for (i=0;i<MAX_DISPAROS;i++){
   2D77 21 1F 00      [10] 8323 	ld	hl,#31
   2D7A 39            [11] 8324 	add	hl,sp
   2D7B 7E            [ 7] 8325 	ld	a,(hl)
   2D7C C6 1D         [ 7] 8326 	add	a, #0x1D
   2D7E 77            [ 7] 8327 	ld	(hl),a
   2D7F 23            [ 6] 8328 	inc	hl
   2D80 7E            [ 7] 8329 	ld	a,(hl)
   2D81 CE 00         [ 7] 8330 	adc	a, #0x00
   2D83 77            [ 7] 8331 	ld	(hl),a
   2D84 21 1D 00      [10] 8332 	ld	hl,#29
   2D87 39            [11] 8333 	add	hl,sp
   2D88 7E            [ 7] 8334 	ld	a,(hl)
   2D89 C6 0F         [ 7] 8335 	add	a, #0x0F
   2D8B 77            [ 7] 8336 	ld	(hl),a
   2D8C 23            [ 6] 8337 	inc	hl
   2D8D 7E            [ 7] 8338 	ld	a,(hl)
   2D8E CE 00         [ 7] 8339 	adc	a, #0x00
   2D90 77            [ 7] 8340 	ld	(hl),a
   2D91 21 1B 00      [10] 8341 	ld	hl,#27
   2D94 39            [11] 8342 	add	hl,sp
   2D95 7E            [ 7] 8343 	ld	a,(hl)
   2D96 C6 0F         [ 7] 8344 	add	a, #0x0F
   2D98 77            [ 7] 8345 	ld	(hl),a
   2D99 23            [ 6] 8346 	inc	hl
   2D9A 7E            [ 7] 8347 	ld	a,(hl)
   2D9B CE 00         [ 7] 8348 	adc	a, #0x00
   2D9D 77            [ 7] 8349 	ld	(hl),a
   2D9E 21 19 00      [10] 8350 	ld	hl,#25
   2DA1 39            [11] 8351 	add	hl,sp
   2DA2 7E            [ 7] 8352 	ld	a,(hl)
   2DA3 C6 0F         [ 7] 8353 	add	a, #0x0F
   2DA5 77            [ 7] 8354 	ld	(hl),a
   2DA6 23            [ 6] 8355 	inc	hl
   2DA7 7E            [ 7] 8356 	ld	a,(hl)
   2DA8 CE 00         [ 7] 8357 	adc	a, #0x00
   2DAA 77            [ 7] 8358 	ld	(hl),a
   2DAB FD 21 02 00   [14] 8359 	ld	iy,#2
   2DAF FD 39         [15] 8360 	add	iy,sp
   2DB1 FD 34 00      [23] 8361 	inc	0 (iy)
   2DB4 FD 7E 00      [19] 8362 	ld	a,0 (iy)
   2DB7 D6 02         [ 7] 8363 	sub	a, #0x02
   2DB9 DArD9r29      [10] 8364 	jp	C,00133$
   2DBC                    8365 00135$:
   2DBC 21 21 00      [10] 8366 	ld	hl,#33
   2DBF 39            [11] 8367 	add	hl,sp
   2DC0 F9            [ 6] 8368 	ld	sp,hl
   2DC1 C9            [10] 8369 	ret
   2DC2                    8370 _moverDisparos_end::
                           8371 ;alien6.c:1159: void borrarDisparos(){
                           8372 ;	---------------------------------
                           8373 ; Function borrarDisparos
                           8374 ; ---------------------------------
   2DC2                    8375 _borrarDisparos_start::
   2DC2                    8376 _borrarDisparos:
   2DC2 21 F9 FF      [10] 8377 	ld	hl,#-7
   2DC5 39            [11] 8378 	add	hl,sp
   2DC6 F9            [ 6] 8379 	ld	sp,hl
                           8380 ;alien6.c:1162: if (disparos_activos>0){
   2DC7 3Ar9Br00      [13] 8381 	ld	a,(#_disparos_activos + 0)
   2DCA B7            [ 4] 8382 	or	a, a
   2DCB CArB2r2E      [10] 8383 	jp	Z,00112$
                           8384 ;alien6.c:1163: for (k=0;k<MAX_DISPAROS;k++){
   2DCE FD 21 00 00   [14] 8385 	ld	iy,#0
   2DD2 FD 39         [15] 8386 	add	iy,sp
   2DD4 FD 36 00 00   [19] 8387 	ld	0 (iy),#0x00
   2DD8 01 00 00      [10] 8388 	ld	bc,#0x0000
   2DDB                    8389 00110$:
                           8390 ;alien6.c:1164: if ((disparos[k].activo) && (!disparos[k].nuevo) && (disparos[k].moved)){
   2DDB 21r50r00      [10] 8391 	ld	hl,#_disparos
   2DDE 09            [11] 8392 	add	hl,bc
   2DDF EB            [ 4] 8393 	ex	de,hl
   2DE0 21 06 00      [10] 8394 	ld	hl,#0x0006
   2DE3 19            [11] 8395 	add	hl,de
   2DE4 FD 21 05 00   [14] 8396 	ld	iy,#5
   2DE8 FD 39         [15] 8397 	add	iy,sp
   2DEA FD 75 00      [19] 8398 	ld	0 (iy),l
   2DED FD 74 01      [19] 8399 	ld	1 (iy),h
   2DF0 FD 6E 00      [19] 8400 	ld	l,0 (iy)
   2DF3 FD 66 01      [19] 8401 	ld	h,1 (iy)
   2DF6 7E            [ 7] 8402 	ld	a,(hl)
   2DF7 B7            [ 4] 8403 	or	a, a
   2DF8 CAr9Br2E      [10] 8404 	jp	Z,00111$
   2DFB D5            [11] 8405 	push	de
   2DFC FD E1         [14] 8406 	pop	iy
   2DFE FD 7E 09      [19] 8407 	ld	a,9 (iy)
   2E01 B7            [ 4] 8408 	or	a, a
   2E02 C2r9Br2E      [10] 8409 	jp	NZ,00111$
   2E05 D5            [11] 8410 	push	de
   2E06 FD E1         [14] 8411 	pop	iy
   2E08 FD 7E 07      [19] 8412 	ld	a,7 (iy)
   2E0B B7            [ 4] 8413 	or	a, a
   2E0C CAr9Br2E      [10] 8414 	jp	Z,00111$
                           8415 ;alien6.c:1165: cpc_PutSpXOR(disparos[k].sp0,6,2,direccionLinea[disparos[k].oy]+disparos[k].ox);
   2E0F 6B            [ 4] 8416 	ld	l, e
   2E10 62            [ 4] 8417 	ld	h, d
   2E11 23            [ 6] 8418 	inc	hl
   2E12 23            [ 6] 8419 	inc	hl
   2E13 23            [ 6] 8420 	inc	hl
   2E14 23            [ 6] 8421 	inc	hl
   2E15 23            [ 6] 8422 	inc	hl
   2E16 6E            [ 7] 8423 	ld	l,(hl)
   2E17 26 00         [ 7] 8424 	ld	h,#0x00
   2E19 29            [11] 8425 	add	hl, hl
   2E1A 3ErEC         [ 7] 8426 	ld	a,#<(_direccionLinea)
   2E1C 85            [ 4] 8427 	add	a, l
   2E1D 6F            [ 4] 8428 	ld	l,a
   2E1E 3Es05         [ 7] 8429 	ld	a,#>(_direccionLinea)
   2E20 8C            [ 4] 8430 	adc	a, h
   2E21 67            [ 4] 8431 	ld	h,a
   2E22 7E            [ 7] 8432 	ld	a,(hl)
   2E23 FD 21 03 00   [14] 8433 	ld	iy,#3
   2E27 FD 39         [15] 8434 	add	iy,sp
   2E29 FD 77 00      [19] 8435 	ld	0 (iy),a
   2E2C 23            [ 6] 8436 	inc	hl
   2E2D 7E            [ 7] 8437 	ld	a,(hl)
   2E2E FD 77 01      [19] 8438 	ld	1 (iy),a
   2E31 D5            [11] 8439 	push	de
   2E32 FD E1         [14] 8440 	pop	iy
   2E34 FD 7E 04      [19] 8441 	ld	a,4 (iy)
   2E37 FD 21 01 00   [14] 8442 	ld	iy,#1
   2E3B FD 39         [15] 8443 	add	iy,sp
   2E3D FD 77 00      [19] 8444 	ld	0 (iy),a
   2E40 FD 36 01 00   [19] 8445 	ld	1 (iy),#0x00
   2E44 21 01 00      [10] 8446 	ld	hl,#1
   2E47 39            [11] 8447 	add	hl,sp
   2E48 FD 21 03 00   [14] 8448 	ld	iy,#3
   2E4C FD 39         [15] 8449 	add	iy,sp
   2E4E FD 7E 00      [19] 8450 	ld	a,0 (iy)
   2E51 86            [ 7] 8451 	add	a, (hl)
   2E52 77            [ 7] 8452 	ld	(hl),a
   2E53 FD 7E 01      [19] 8453 	ld	a,1 (iy)
   2E56 23            [ 6] 8454 	inc	hl
   2E57 8E            [ 7] 8455 	adc	a, (hl)
   2E58 77            [ 7] 8456 	ld	(hl),a
   2E59 6B            [ 4] 8457 	ld	l, e
   2E5A 62            [ 4] 8458 	ld	h, d
   2E5B 7E            [ 7] 8459 	ld	a,(hl)
   2E5C FD 77 00      [19] 8460 	ld	0 (iy),a
   2E5F 23            [ 6] 8461 	inc	hl
   2E60 7E            [ 7] 8462 	ld	a,(hl)
   2E61 FD 77 01      [19] 8463 	ld	1 (iy),a
   2E64 C5            [11] 8464 	push	bc
   2E65 D5            [11] 8465 	push	de
   2E66 21 05 00      [10] 8466 	ld	hl, #5
   2E69 39            [11] 8467 	add	hl, sp
   2E6A 4E            [ 7] 8468 	ld	c, (hl)
   2E6B 23            [ 6] 8469 	inc	hl
   2E6C 46            [ 7] 8470 	ld	b, (hl)
   2E6D C5            [11] 8471 	push	bc
   2E6E 21 06 02      [10] 8472 	ld	hl,#0x0206
   2E71 E5            [11] 8473 	push	hl
   2E72 21 0B 00      [10] 8474 	ld	hl, #11
   2E75 39            [11] 8475 	add	hl, sp
   2E76 4E            [ 7] 8476 	ld	c, (hl)
   2E77 23            [ 6] 8477 	inc	hl
   2E78 46            [ 7] 8478 	ld	b, (hl)
   2E79 C5            [11] 8479 	push	bc
   2E7A CDr00r00      [17] 8480 	call	_cpc_PutSpXOR
   2E7D 21 06 00      [10] 8481 	ld	hl,#6
   2E80 39            [11] 8482 	add	hl,sp
   2E81 F9            [ 6] 8483 	ld	sp,hl
   2E82 D1            [10] 8484 	pop	de
   2E83 C1            [10] 8485 	pop	bc
                           8486 ;alien6.c:1166: if (disparos[k].dead){
   2E84 D5            [11] 8487 	push	de
   2E85 FD E1         [14] 8488 	pop	iy
   2E87 FD 7E 0A      [19] 8489 	ld	a,10 (iy)
   2E8A B7            [ 4] 8490 	or	a, a
   2E8B 28 0E         [12] 8491 	jr	Z,00111$
                           8492 ;alien6.c:1167: disparos[k].activo=0;
   2E8D 21 05 00      [10] 8493 	ld	hl, #5
   2E90 39            [11] 8494 	add	hl, sp
   2E91 7E            [ 7] 8495 	ld	a, (hl)
   2E92 23            [ 6] 8496 	inc	hl
   2E93 66            [ 7] 8497 	ld	h, (hl)
   2E94 6F            [ 4] 8498 	ld	l, a
   2E95 36 00         [10] 8499 	ld	(hl),#0x00
                           8500 ;alien6.c:1168: disparos_activos--;
   2E97 21r9Br00      [10] 8501 	ld	hl, #_disparos_activos+0
   2E9A 35            [11] 8502 	dec	(hl)
   2E9B                    8503 00111$:
                           8504 ;alien6.c:1163: for (k=0;k<MAX_DISPAROS;k++){
   2E9B 21 0F 00      [10] 8505 	ld	hl,#0x000F
   2E9E 09            [11] 8506 	add	hl,bc
   2E9F 4D            [ 4] 8507 	ld	c,l
   2EA0 44            [ 4] 8508 	ld	b,h
   2EA1 FD 21 00 00   [14] 8509 	ld	iy,#0
   2EA5 FD 39         [15] 8510 	add	iy,sp
   2EA7 FD 34 00      [23] 8511 	inc	0 (iy)
   2EAA FD 7E 00      [19] 8512 	ld	a,0 (iy)
   2EAD D6 02         [ 7] 8513 	sub	a, #0x02
   2EAF DArDBr2D      [10] 8514 	jp	C,00110$
   2EB2                    8515 00112$:
   2EB2 21 07 00      [10] 8516 	ld	hl,#7
   2EB5 39            [11] 8517 	add	hl,sp
   2EB6 F9            [ 6] 8518 	ld	sp,hl
   2EB7 C9            [10] 8519 	ret
   2EB8                    8520 _borrarDisparos_end::
                           8521 ;alien6.c:1179: void pintarDisparos(){
                           8522 ;	---------------------------------
                           8523 ; Function pintarDisparos
                           8524 ; ---------------------------------
   2EB8                    8525 _pintarDisparos_start::
   2EB8                    8526 _pintarDisparos:
   2EB8 21 F5 FF      [10] 8527 	ld	hl,#-11
   2EBB 39            [11] 8528 	add	hl,sp
   2EBC F9            [ 6] 8529 	ld	sp,hl
                           8530 ;alien6.c:1182: if (disparos_activos>0){
   2EBD 3Ar9Br00      [13] 8531 	ld	a,(#_disparos_activos + 0)
   2EC0 B7            [ 4] 8532 	or	a, a
   2EC1 CAr0Dr30      [10] 8533 	jp	Z,00112$
                           8534 ;alien6.c:1183: for (k=0;k<MAX_DISPAROS;k++){
   2EC4 FD 21 00 00   [14] 8535 	ld	iy,#0
   2EC8 FD 39         [15] 8536 	add	iy,sp
   2ECA FD 36 00 00   [19] 8537 	ld	0 (iy),#0x00
   2ECE 21 09 00      [10] 8538 	ld	hl, #9
   2ED1 39            [11] 8539 	add	hl, sp
   2ED2 AF            [ 4] 8540 	xor	a, a
   2ED3 77            [ 7] 8541 	ld	(hl), a
   2ED4 23            [ 6] 8542 	inc	hl
   2ED5 77            [ 7] 8543 	ld	(hl), a
   2ED6 21 07 00      [10] 8544 	ld	hl, #7
   2ED9 39            [11] 8545 	add	hl, sp
   2EDA AF            [ 4] 8546 	xor	a, a
   2EDB 77            [ 7] 8547 	ld	(hl), a
   2EDC 23            [ 6] 8548 	inc	hl
   2EDD 77            [ 7] 8549 	ld	(hl), a
   2EDE                    8550 00110$:
                           8551 ;alien6.c:1184: if ((disparos[k].activo) && (disparos[k].moved) && (!disparos[k].dead)){
   2EDE 3Er50         [ 7] 8552 	ld	a,#<(_disparos)
   2EE0 21 07 00      [10] 8553 	ld	hl,#7
   2EE3 39            [11] 8554 	add	hl,sp
   2EE4 FD 21 05 00   [14] 8555 	ld	iy,#5
   2EE8 FD 39         [15] 8556 	add	iy,sp
   2EEA 86            [ 7] 8557 	add	a, (hl)
   2EEB FD 77 00      [19] 8558 	ld	0 (iy),a
   2EEE 3Es00         [ 7] 8559 	ld	a,#>(_disparos)
   2EF0 23            [ 6] 8560 	inc	hl
   2EF1 8E            [ 7] 8561 	adc	a, (hl)
   2EF2 FD 23         [10] 8562 	inc	iy
   2EF4 FD 77 00      [19] 8563 	ld	0 (iy),a
   2EF7 FD 21 05 00   [14] 8564 	ld	iy,#5
   2EFB FD 39         [15] 8565 	add	iy,sp
   2EFD FD 6E 00      [19] 8566 	ld	l,0 (iy)
   2F00 FD 66 01      [19] 8567 	ld	h,1 (iy)
   2F03 11 06 00      [10] 8568 	ld	de, #0x0006
   2F06 19            [11] 8569 	add	hl, de
   2F07 7E            [ 7] 8570 	ld	a, (hl)
   2F08 B7            [ 4] 8571 	or	a, a
   2F09 CArE2r2F      [10] 8572 	jp	Z,00111$
   2F0C FD 6E 00      [19] 8573 	ld	l,0 (iy)
   2F0F FD 66 01      [19] 8574 	ld	h,1 (iy)
   2F12 11 07 00      [10] 8575 	ld	de, #0x0007
   2F15 19            [11] 8576 	add	hl, de
   2F16 7E            [ 7] 8577 	ld	a,(hl)
   2F17 B7            [ 4] 8578 	or	a, a
   2F18 CArE2r2F      [10] 8579 	jp	Z,00111$
   2F1B FD 6E 00      [19] 8580 	ld	l,0 (iy)
   2F1E FD 66 01      [19] 8581 	ld	h,1 (iy)
   2F21 11 0A 00      [10] 8582 	ld	de, #0x000A
   2F24 19            [11] 8583 	add	hl, de
   2F25 7E            [ 7] 8584 	ld	a,(hl)
   2F26 B7            [ 4] 8585 	or	a, a
   2F27 C2rE2r2F      [10] 8586 	jp	NZ,00111$
                           8587 ;alien6.c:1185: cpc_PutSpXOR(disparos[k].sp0,6,2,direccionLinea[disparos[k].cy]+disparos[k].cx);
   2F2A 21 03 00      [10] 8588 	ld	hl,#3
   2F2D 39            [11] 8589 	add	hl,sp
   2F2E FD 7E 00      [19] 8590 	ld	a,0 (iy)
   2F31 C6 03         [ 7] 8591 	add	a, #0x03
   2F33 77            [ 7] 8592 	ld	(hl),a
   2F34 FD 7E 01      [19] 8593 	ld	a,1 (iy)
   2F37 CE 00         [ 7] 8594 	adc	a, #0x00
   2F39 23            [ 6] 8595 	inc	hl
   2F3A 77            [ 7] 8596 	ld	(hl),a
   2F3B 21 03 00      [10] 8597 	ld	hl, #3
   2F3E 39            [11] 8598 	add	hl, sp
   2F3F 7E            [ 7] 8599 	ld	a, (hl)
   2F40 23            [ 6] 8600 	inc	hl
   2F41 66            [ 7] 8601 	ld	h, (hl)
   2F42 6F            [ 4] 8602 	ld	l, a
   2F43 6E            [ 7] 8603 	ld	l,(hl)
   2F44 26 00         [ 7] 8604 	ld	h,#0x00
   2F46 29            [11] 8605 	add	hl, hl
   2F47 11rECr05      [10] 8606 	ld	de,#_direccionLinea
   2F4A 19            [11] 8607 	add	hl,de
   2F4B 5E            [ 7] 8608 	ld	e,(hl)
   2F4C 23            [ 6] 8609 	inc	hl
   2F4D 56            [ 7] 8610 	ld	d,(hl)
   2F4E FD 21 05 00   [14] 8611 	ld	iy,#5
   2F52 FD 39         [15] 8612 	add	iy,sp
   2F54 FD 4E 00      [19] 8613 	ld	c,0 (iy)
   2F57 FD 46 01      [19] 8614 	ld	b,1 (iy)
   2F5A 03            [ 6] 8615 	inc	bc
   2F5B 03            [ 6] 8616 	inc	bc
   2F5C 0A            [ 7] 8617 	ld	a,(bc)
   2F5D 6F            [ 4] 8618 	ld	l,a
   2F5E 26 00         [ 7] 8619 	ld	h,#0x00
   2F60 19            [11] 8620 	add	hl,de
   2F61 EB            [ 4] 8621 	ex	de,hl
   2F62 FD 6E 00      [19] 8622 	ld	l,0 (iy)
   2F65 FD 66 01      [19] 8623 	ld	h,1 (iy)
   2F68 7E            [ 7] 8624 	ld	a,(hl)
   2F69 FD 21 01 00   [14] 8625 	ld	iy,#1
   2F6D FD 39         [15] 8626 	add	iy,sp
   2F6F FD 77 00      [19] 8627 	ld	0 (iy),a
   2F72 23            [ 6] 8628 	inc	hl
   2F73 7E            [ 7] 8629 	ld	a,(hl)
   2F74 FD 77 01      [19] 8630 	ld	1 (iy),a
   2F77 C5            [11] 8631 	push	bc
   2F78 D5            [11] 8632 	push	de
   2F79 21 06 02      [10] 8633 	ld	hl,#0x0206
   2F7C E5            [11] 8634 	push	hl
   2F7D FD 6E 00      [19] 8635 	ld	l,0 (iy)
   2F80 FD 66 01      [19] 8636 	ld	h,1 (iy)
   2F83 E5            [11] 8637 	push	hl
   2F84 CDr00r00      [17] 8638 	call	_cpc_PutSpXOR
   2F87 21 06 00      [10] 8639 	ld	hl,#6
   2F8A 39            [11] 8640 	add	hl,sp
   2F8B F9            [ 6] 8641 	ld	sp,hl
   2F8C C1            [10] 8642 	pop	bc
                           8643 ;alien6.c:1186: disparos[k].ox=disparos[k].cx;
   2F8D FD 21 05 00   [14] 8644 	ld	iy,#5
   2F91 FD 39         [15] 8645 	add	iy,sp
   2F93 FD 7E 00      [19] 8646 	ld	a,0 (iy)
   2F96 C6 04         [ 7] 8647 	add	a, #0x04
   2F98 5F            [ 4] 8648 	ld	e,a
   2F99 FD 7E 01      [19] 8649 	ld	a,1 (iy)
   2F9C CE 00         [ 7] 8650 	adc	a, #0x00
   2F9E 57            [ 4] 8651 	ld	d,a
   2F9F 0A            [ 7] 8652 	ld	a,(bc)
   2FA0 12            [ 7] 8653 	ld	(de),a
                           8654 ;alien6.c:1187: disparos[k].oy=disparos[k].cy;
   2FA1 FD 7E 00      [19] 8655 	ld	a,0 (iy)
   2FA4 C6 05         [ 7] 8656 	add	a, #0x05
   2FA6 5F            [ 4] 8657 	ld	e,a
   2FA7 FD 7E 01      [19] 8658 	ld	a,1 (iy)
   2FAA CE 00         [ 7] 8659 	adc	a, #0x00
   2FAC 57            [ 4] 8660 	ld	d,a
   2FAD 21 03 00      [10] 8661 	ld	hl, #3
   2FB0 39            [11] 8662 	add	hl, sp
   2FB1 7E            [ 7] 8663 	ld	a, (hl)
   2FB2 23            [ 6] 8664 	inc	hl
   2FB3 66            [ 7] 8665 	ld	h, (hl)
   2FB4 6F            [ 4] 8666 	ld	l, a
   2FB5 7E            [ 7] 8667 	ld	a,(hl)
   2FB6 12            [ 7] 8668 	ld	(de),a
                           8669 ;alien6.c:1188: if (disparos[k].nuevo) disparos[k].nuevo=0;
   2FB7 FD 21 05 00   [14] 8670 	ld	iy,#5
   2FBB FD 39         [15] 8671 	add	iy,sp
   2FBD FD 7E 00      [19] 8672 	ld	a,0 (iy)
   2FC0 C6 09         [ 7] 8673 	add	a, #0x09
   2FC2 5F            [ 4] 8674 	ld	e,a
   2FC3 FD 7E 01      [19] 8675 	ld	a,1 (iy)
   2FC6 CE 00         [ 7] 8676 	adc	a, #0x00
   2FC8 57            [ 4] 8677 	ld	d,a
   2FC9 1A            [ 7] 8678 	ld	a,(de)
   2FCA B7            [ 4] 8679 	or	a, a
   2FCB 28 02         [12] 8680 	jr	Z,00102$
   2FCD AF            [ 4] 8681 	xor	a, a
   2FCE 12            [ 7] 8682 	ld	(de),a
   2FCF                    8683 00102$:
                           8684 ;alien6.c:1189: disparos[k].moved=0;
   2FCF 3Er50         [ 7] 8685 	ld	a,#<(_disparos)
   2FD1 21 09 00      [10] 8686 	ld	hl,#9
   2FD4 39            [11] 8687 	add	hl,sp
   2FD5 86            [ 7] 8688 	add	a, (hl)
   2FD6 5F            [ 4] 8689 	ld	e,a
   2FD7 3Es00         [ 7] 8690 	ld	a,#>(_disparos)
   2FD9 23            [ 6] 8691 	inc	hl
   2FDA 8E            [ 7] 8692 	adc	a, (hl)
   2FDB 57            [ 4] 8693 	ld	d,a
   2FDC 21 07 00      [10] 8694 	ld	hl,#0x0007
   2FDF 19            [11] 8695 	add	hl,de
   2FE0 36 00         [10] 8696 	ld	(hl),#0x00
   2FE2                    8697 00111$:
                           8698 ;alien6.c:1183: for (k=0;k<MAX_DISPAROS;k++){
   2FE2 21 09 00      [10] 8699 	ld	hl,#9
   2FE5 39            [11] 8700 	add	hl,sp
   2FE6 7E            [ 7] 8701 	ld	a,(hl)
   2FE7 C6 0F         [ 7] 8702 	add	a, #0x0F
   2FE9 77            [ 7] 8703 	ld	(hl),a
   2FEA 23            [ 6] 8704 	inc	hl
   2FEB 7E            [ 7] 8705 	ld	a,(hl)
   2FEC CE 00         [ 7] 8706 	adc	a, #0x00
   2FEE 77            [ 7] 8707 	ld	(hl),a
   2FEF 21 07 00      [10] 8708 	ld	hl,#7
   2FF2 39            [11] 8709 	add	hl,sp
   2FF3 7E            [ 7] 8710 	ld	a,(hl)
   2FF4 C6 0F         [ 7] 8711 	add	a, #0x0F
   2FF6 77            [ 7] 8712 	ld	(hl),a
   2FF7 23            [ 6] 8713 	inc	hl
   2FF8 7E            [ 7] 8714 	ld	a,(hl)
   2FF9 CE 00         [ 7] 8715 	adc	a, #0x00
   2FFB 77            [ 7] 8716 	ld	(hl),a
   2FFC FD 21 00 00   [14] 8717 	ld	iy,#0
   3000 FD 39         [15] 8718 	add	iy,sp
   3002 FD 34 00      [23] 8719 	inc	0 (iy)
   3005 FD 7E 00      [19] 8720 	ld	a,0 (iy)
   3008 D6 02         [ 7] 8721 	sub	a, #0x02
   300A DArDEr2E      [10] 8722 	jp	C,00110$
   300D                    8723 00112$:
   300D 21 0B 00      [10] 8724 	ld	hl,#11
   3010 39            [11] 8725 	add	hl,sp
   3011 F9            [ 6] 8726 	ld	sp,hl
   3012 C9            [10] 8727 	ret
   3013                    8728 _pintarDisparos_end::
                           8729 ;alien6.c:1195: void inicializarProta(){
                           8730 ;	---------------------------------
                           8731 ; Function inicializarProta
                           8732 ; ---------------------------------
   3013                    8733 _inicializarProta_start::
   3013                    8734 _inicializarProta:
                           8735 ;alien6.c:1196: prota.activo=1;
   3013 21rE3r00      [10] 8736 	ld	hl,#_prota + 9
   3016 36 01         [10] 8737 	ld	(hl),#0x01
                           8738 ;alien6.c:1197: prota.sp0=nave;
   3018 21r25r00      [10] 8739 	ld	hl,#_nave
   301B 22rDAr00      [16] 8740 	ld	(_prota), hl
                           8741 ;alien6.c:1198: prota.cx=39;
   301E 21rDCr00      [10] 8742 	ld	hl,#_prota + 2
   3021 36 27         [10] 8743 	ld	(hl),#0x27
                           8744 ;alien6.c:1199: prota.cy=178;
   3023 21rDDr00      [10] 8745 	ld	hl,#_prota + 3
   3026 36 B2         [10] 8746 	ld	(hl),#0xB2
                           8747 ;alien6.c:1200: prota.ox=39;
   3028 21rDEr00      [10] 8748 	ld	hl,#_prota + 4
   302B 36 27         [10] 8749 	ld	(hl),#0x27
                           8750 ;alien6.c:1201: prota.oy=178;
   302D 21rDFr00      [10] 8751 	ld	hl,#_prota + 5
   3030 36 B2         [10] 8752 	ld	(hl),#0xB2
                           8753 ;alien6.c:1202: prota.moved=0;
   3032 21rE5r00      [10] 8754 	ld	hl,#_prota + 11
   3035 36 00         [10] 8755 	ld	(hl),#0x00
                           8756 ;alien6.c:1203: prota.dead=0;
   3037 21rE8r00      [10] 8757 	ld	hl,#_prota + 14
   303A 36 00         [10] 8758 	ld	(hl),#0x00
                           8759 ;alien6.c:1204: prota.speed=PROTA_SPEED;
   303C 21rE6r00      [10] 8760 	ld	hl,#_prota + 12
   303F 36 0A         [10] 8761 	ld	(hl),#0x0A
                           8762 ;alien6.c:1205: prota.lastmoved=0;
   3041 21 00 00      [10] 8763 	ld	hl,#0x0000
   3044 22rEAr00      [16] 8764 	ld	((_prota + 0x0010)),hl
   3047 22rECr00      [16] 8765 	ld	((_prota + 0x0010) + 2), hl
                           8766 ;alien6.c:1206: prota.lastShot=0;
   304A 21 00 00      [10] 8767 	ld	hl,#0x0000
   304D 22rEEr00      [16] 8768 	ld	((_prota + 0x0014)),hl
   3050 22rF0r00      [16] 8769 	ld	((_prota + 0x0014) + 2), hl
                           8770 ;alien6.c:1207: prota.reloadSpeed=80; //Velocidad de recarga
   3053 21rF2r00      [10] 8771 	ld	hl,#_prota + 24
   3056 36 50         [10] 8772 	ld	(hl),#0x50
   3058 C9            [10] 8773 	ret
   3059                    8774 _inicializarProta_end::
                           8775 ;alien6.c:1210: void borrarProta(){
                           8776 ;	---------------------------------
                           8777 ; Function borrarProta
                           8778 ; ---------------------------------
   3059                    8779 _borrarProta_start::
   3059                    8780 _borrarProta:
                           8781 ;alien6.c:1211: if ((prota.moved) || (prota.dead==1)){
   3059 3ArE5r00      [13] 8782 	ld	a,(#(_prota + 0x000b) + 0)
   305C B7            [ 4] 8783 	or	a, a
   305D 20 05         [12] 8784 	jr	NZ,00103$
   305F 3ArE8r00      [13] 8785 	ld	a, (#(_prota + 0x000e) + 0)
   3062 3D            [ 4] 8786 	dec	a
   3063 C0            [11] 8787 	ret	NZ
   3064                    8788 00103$:
                           8789 ;alien6.c:1212: cpc_PutSpXOR(prota.sp0,16,4,direccionLinea[prota.oy]+prota.ox);
   3064 3ArDFr00      [13] 8790 	ld	a, (#_prota + 5)
   3067 6F            [ 4] 8791 	ld	l,a
   3068 26 00         [ 7] 8792 	ld	h,#0x00
   306A 29            [11] 8793 	add	hl, hl
   306B 11rECr05      [10] 8794 	ld	de,#_direccionLinea
   306E 19            [11] 8795 	add	hl,de
   306F 4E            [ 7] 8796 	ld	c,(hl)
   3070 23            [ 6] 8797 	inc	hl
   3071 46            [ 7] 8798 	ld	b,(hl)
   3072 3ArDEr00      [13] 8799 	ld	a, (#_prota + 4)
   3075 6F            [ 4] 8800 	ld	l,a
   3076 26 00         [ 7] 8801 	ld	h,#0x00
   3078 09            [11] 8802 	add	hl,bc
   3079 4D            [ 4] 8803 	ld	c,l
   307A 44            [ 4] 8804 	ld	b,h
   307B ED 5BrDAr00   [20] 8805 	ld	de, (#_prota + 0)
   307F C5            [11] 8806 	push	bc
   3080 21 10 04      [10] 8807 	ld	hl,#0x0410
   3083 E5            [11] 8808 	push	hl
   3084 D5            [11] 8809 	push	de
   3085 CDr00r00      [17] 8810 	call	_cpc_PutSpXOR
   3088 21 06 00      [10] 8811 	ld	hl,#6
   308B 39            [11] 8812 	add	hl,sp
   308C F9            [ 6] 8813 	ld	sp,hl
                           8814 ;alien6.c:1213: if (prota.dead) { 
   308D 3ArE8r00      [13] 8815 	ld	a, (#(_prota + 0x000e) + 0)
   3090 B7            [ 4] 8816 	or	a, a
   3091 C8            [11] 8817 	ret	Z
                           8818 ;alien6.c:1214: prota.moved=0;
   3092 21rE5r00      [10] 8819 	ld	hl,#(_prota + 0x000b)
   3095 36 00         [10] 8820 	ld	(hl),#0x00
                           8821 ;alien6.c:1215: prota.dead++;
   3097 3ArE8r00      [13] 8822 	ld	a, (#(_prota + 0x000e) + 0)
   309A 3C            [ 4] 8823 	inc	a
   309B 32rE8r00      [13] 8824 	ld	(#(_prota + 0x000e)),a
   309E C9            [10] 8825 	ret
   309F                    8826 _borrarProta_end::
                           8827 ;alien6.c:1221: void moverProta(){
                           8828 ;	---------------------------------
                           8829 ; Function moverProta
                           8830 ; ---------------------------------
   309F                    8831 _moverProta_start::
   309F                    8832 _moverProta:
   309F 21 F8 FF      [10] 8833 	ld	hl,#-8
   30A2 39            [11] 8834 	add	hl,sp
   30A3 F9            [ 6] 8835 	ld	sp,hl
                           8836 ;alien6.c:1222: if (!prota.dead){
   30A4 3ArE8r00      [13] 8837 	ld	a,(#_prota + 14)
   30A7 B7            [ 4] 8838 	or	a, a
   30A8 C2rC6r31      [10] 8839 	jp	NZ,00119$
                           8840 ;alien6.c:1223: if (cpc_TestKey(KEY_RIGHT)==1 && prota.cx<=75)   // DERECHA
   30AB 3E 01         [ 7] 8841 	ld	a,#0x01
   30AD F5            [11] 8842 	push	af
   30AE 33            [ 6] 8843 	inc	sp
   30AF CDr00r00      [17] 8844 	call	_cpc_TestKey
   30B2 33            [ 6] 8845 	inc	sp
   30B3 11rDCr00      [10] 8846 	ld	de,#_prota + 2
                           8847 ;alien6.c:1226: prota.moved=1;
                           8848 ;alien6.c:1223: if (cpc_TestKey(KEY_RIGHT)==1 && prota.cx<=75)   // DERECHA
   30B6 2D            [ 4] 8849 	dec	l
   30B7 20 0F         [12] 8850 	jr	NZ,00102$
   30B9 1A            [ 7] 8851 	ld	a,(de)
   30BA 67            [ 4] 8852 	ld	h,a
   30BB 3E 4B         [ 7] 8853 	ld	a,#0x4B
   30BD 94            [ 4] 8854 	sub	a, h
   30BE 38 08         [12] 8855 	jr	C,00102$
                           8856 ;alien6.c:1225: prota.cx++;
   30C0 7C            [ 4] 8857 	ld	a,h
   30C1 3C            [ 4] 8858 	inc	a
   30C2 12            [ 7] 8859 	ld	(de),a
                           8860 ;alien6.c:1226: prota.moved=1;
   30C3 21rE5r00      [10] 8861 	ld	hl,#(_prota + 0x000b)
   30C6 36 01         [10] 8862 	ld	(hl),#0x01
   30C8                    8863 00102$:
                           8864 ;alien6.c:1228: if (cpc_TestKey(KEY_LEFT)==1 && prota.cx>0)   // IZQUIERDA
   30C8 D5            [11] 8865 	push	de
   30C9 AF            [ 4] 8866 	xor	a, a
   30CA F5            [11] 8867 	push	af
   30CB 33            [ 6] 8868 	inc	sp
   30CC CDr00r00      [17] 8869 	call	_cpc_TestKey
   30CF 33            [ 6] 8870 	inc	sp
   30D0 D1            [10] 8871 	pop	de
   30D1 2D            [ 4] 8872 	dec	l
   30D2 20 0C         [12] 8873 	jr	NZ,00105$
   30D4 1A            [ 7] 8874 	ld	a,(de)
   30D5 B7            [ 4] 8875 	or	a, a
   30D6 28 08         [12] 8876 	jr	Z,00105$
                           8877 ;alien6.c:1230: prota.cx--;
   30D8 C6 FF         [ 7] 8878 	add	a,#0xFF
   30DA 12            [ 7] 8879 	ld	(de),a
                           8880 ;alien6.c:1231: prota.moved=1;
   30DB 21rE5r00      [10] 8881 	ld	hl,#(_prota + 0x000b)
   30DE 36 01         [10] 8882 	ld	(hl),#0x01
   30E0                    8883 00105$:
                           8884 ;alien6.c:1233: if (cpc_TestKey(KEY_UP)==1 && prota.cy>15)   // ARRIBA
   30E0 D5            [11] 8885 	push	de
   30E1 3E 02         [ 7] 8886 	ld	a,#0x02
   30E3 F5            [11] 8887 	push	af
   30E4 33            [ 6] 8888 	inc	sp
   30E5 CDr00r00      [17] 8889 	call	_cpc_TestKey
   30E8 33            [ 6] 8890 	inc	sp
   30E9 D1            [10] 8891 	pop	de
   30EA 2D            [ 4] 8892 	dec	l
   30EB 20 14         [12] 8893 	jr	NZ,00108$
   30ED 21rDDr00      [10] 8894 	ld	hl, #(_prota + 0x0003) + 0
   30F0 46            [ 7] 8895 	ld	b,(hl)
   30F1 3E 0F         [ 7] 8896 	ld	a,#0x0F
   30F3 90            [ 4] 8897 	sub	a, b
   30F4 30 0B         [12] 8898 	jr	NC,00108$
                           8899 ;alien6.c:1235: prota.cy-=2;
   30F6 05            [ 4] 8900 	dec	b
   30F7 05            [ 4] 8901 	dec	b
   30F8 21rDDr00      [10] 8902 	ld	hl,#(_prota + 0x0003)
   30FB 70            [ 7] 8903 	ld	(hl),b
                           8904 ;alien6.c:1236: prota.moved=1;
   30FC 21rE5r00      [10] 8905 	ld	hl,#(_prota + 0x000b)
   30FF 36 01         [10] 8906 	ld	(hl),#0x01
   3101                    8907 00108$:
                           8908 ;alien6.c:1238: if (cpc_TestKey(KEY_DOWN)==1 && prota.cy<178)   // ABAJO
   3101 D5            [11] 8909 	push	de
   3102 3E 03         [ 7] 8910 	ld	a,#0x03
   3104 F5            [11] 8911 	push	af
   3105 33            [ 6] 8912 	inc	sp
   3106 CDr00r00      [17] 8913 	call	_cpc_TestKey
   3109 33            [ 6] 8914 	inc	sp
   310A D1            [10] 8915 	pop	de
   310B 2D            [ 4] 8916 	dec	l
   310C 20 14         [12] 8917 	jr	NZ,00111$
   310E 21rDDr00      [10] 8918 	ld	hl, #(_prota + 0x0003) + 0
   3111 46            [ 7] 8919 	ld	b,(hl)
   3112 78            [ 4] 8920 	ld	a,b
   3113 D6 B2         [ 7] 8921 	sub	a, #0xB2
   3115 30 0B         [12] 8922 	jr	NC,00111$
                           8923 ;alien6.c:1240: prota.cy+=2;
   3117 04            [ 4] 8924 	inc	b
   3118 04            [ 4] 8925 	inc	b
   3119 21rDDr00      [10] 8926 	ld	hl,#(_prota + 0x0003)
   311C 70            [ 7] 8927 	ld	(hl),b
                           8928 ;alien6.c:1241: prota.moved=1;
   311D 21rE5r00      [10] 8929 	ld	hl,#(_prota + 0x000b)
   3120 36 01         [10] 8930 	ld	(hl),#0x01
   3122                    8931 00111$:
                           8932 ;alien6.c:1243: if ((cpc_TestKey(KEY_FIRE)==1) && (disparos_activos<MAX_DISPAROS) && (getTime()-prota.lastShot>prota.reloadSpeed))   // ESPACIO
   3122 D5            [11] 8933 	push	de
   3123 3E 04         [ 7] 8934 	ld	a,#0x04
   3125 F5            [11] 8935 	push	af
   3126 33            [ 6] 8936 	inc	sp
   3127 CDr00r00      [17] 8937 	call	_cpc_TestKey
   312A 33            [ 6] 8938 	inc	sp
   312B D1            [10] 8939 	pop	de
   312C 2D            [ 4] 8940 	dec	l
   312D C2rC6r31      [10] 8941 	jp	NZ,00119$
   3130 3Ar9Br00      [13] 8942 	ld	a,(#_disparos_activos + 0)
   3133 D6 02         [ 7] 8943 	sub	a, #0x02
   3135 D2rC6r31      [10] 8944 	jp	NC,00119$
   3138 D5            [11] 8945 	push	de
   3139 CDr89r07      [17] 8946 	call	_getTime
   313C FD 21 06 00   [14] 8947 	ld	iy,#6
   3140 FD 39         [15] 8948 	add	iy,sp
   3142 FD 72 03      [19] 8949 	ld	3 (iy),d
   3145 FD 73 02      [19] 8950 	ld	2 (iy),e
   3148 FD 74 01      [19] 8951 	ld	1 (iy),h
   314B FD 75 00      [19] 8952 	ld	0 (iy),l
   314E D1            [10] 8953 	pop	de
   314F 2ArEEr00      [16] 8954 	ld	hl, (#_prota + 20)
   3152 ED 4BrF0r00   [20] 8955 	ld	bc, (#_prota + 22)
   3156 FD 21 00 00   [14] 8956 	ld	iy,#0
   315A FD 39         [15] 8957 	add	iy,sp
   315C FD 75 00      [19] 8958 	ld	0 (iy),l
   315F FD 74 01      [19] 8959 	ld	1 (iy),h
   3162 FD 71 02      [19] 8960 	ld	2 (iy),c
   3165 FD 70 03      [19] 8961 	ld	3 (iy),b
   3168 21 00 00      [10] 8962 	ld	hl,#0
   316B 39            [11] 8963 	add	hl,sp
   316C FD 21 04 00   [14] 8964 	ld	iy,#4
   3170 FD 39         [15] 8965 	add	iy,sp
   3172 FD 7E 00      [19] 8966 	ld	a,0 (iy)
   3175 96            [ 7] 8967 	sub	a, (hl)
   3176 77            [ 7] 8968 	ld	(hl),a
   3177 FD 7E 01      [19] 8969 	ld	a,1 (iy)
   317A 23            [ 6] 8970 	inc	hl
   317B 9E            [ 7] 8971 	sbc	a, (hl)
   317C 77            [ 7] 8972 	ld	(hl),a
   317D FD 7E 02      [19] 8973 	ld	a,2 (iy)
   3180 23            [ 6] 8974 	inc	hl
   3181 9E            [ 7] 8975 	sbc	a, (hl)
   3182 77            [ 7] 8976 	ld	(hl),a
   3183 FD 7E 03      [19] 8977 	ld	a,3 (iy)
   3186 23            [ 6] 8978 	inc	hl
   3187 9E            [ 7] 8979 	sbc	a, (hl)
   3188 77            [ 7] 8980 	ld	(hl),a
   3189 3ArF2r00      [13] 8981 	ld	a, (#_prota + 24)
   318C FD 77 00      [19] 8982 	ld	0 (iy),a
   318F 17            [ 4] 8983 	rla
   3190 9F            [ 4] 8984 	sbc	a, a
   3191 FD 77 01      [19] 8985 	ld	1 (iy),a
   3194 FD 77 02      [19] 8986 	ld	2 (iy),a
   3197 FD 77 03      [19] 8987 	ld	3 (iy),a
   319A 21 04 00      [10] 8988 	ld	hl,#4
   319D 39            [11] 8989 	add	hl,sp
   319E 7E            [ 7] 8990 	ld	a,(hl)
   319F FD 21 00 00   [14] 8991 	ld	iy,#0
   31A3 FD 39         [15] 8992 	add	iy,sp
   31A5 FD 96 00      [19] 8993 	sub	a, 0 (iy)
   31A8 23            [ 6] 8994 	inc	hl
   31A9 7E            [ 7] 8995 	ld	a,(hl)
   31AA FD 9E 01      [19] 8996 	sbc	a, 1 (iy)
   31AD 23            [ 6] 8997 	inc	hl
   31AE 7E            [ 7] 8998 	ld	a,(hl)
   31AF FD 9E 02      [19] 8999 	sbc	a, 2 (iy)
   31B2 23            [ 6] 9000 	inc	hl
   31B3 7E            [ 7] 9001 	ld	a,(hl)
   31B4 FD 9E 03      [19] 9002 	sbc	a, 3 (iy)
   31B7 30 0D         [12] 9003 	jr	NC,00119$
                           9004 ;alien6.c:1245: crearDisparo(prota.cx, prota.cy);
   31B9 21rDDr00      [10] 9005 	ld	hl, #(_prota + 0x0003) + 0
   31BC 46            [ 7] 9006 	ld	b,(hl)
   31BD 1A            [ 7] 9007 	ld	a,(de)
   31BE C5            [11] 9008 	push	bc
   31BF 33            [ 6] 9009 	inc	sp
   31C0 F5            [11] 9010 	push	af
   31C1 33            [ 6] 9011 	inc	sp
   31C2 CDrF8r28      [17] 9012 	call	_crearDisparo
   31C5 F1            [10] 9013 	pop	af
   31C6                    9014 00119$:
   31C6 21 08 00      [10] 9015 	ld	hl,#8
   31C9 39            [11] 9016 	add	hl,sp
   31CA F9            [ 6] 9017 	ld	sp,hl
   31CB C9            [10] 9018 	ret
   31CC                    9019 _moverProta_end::
                           9020 ;alien6.c:1250: void pintarProta(){
                           9021 ;	---------------------------------
                           9022 ; Function pintarProta
                           9023 ; ---------------------------------
   31CC                    9024 _pintarProta_start::
   31CC                    9025 _pintarProta:
                           9026 ;alien6.c:1251: if ((prota.moved) && (!prota.dead)){
   31CC 3ArE5r00      [13] 9027 	ld	a, (#(_prota + 0x000b) + 0)
   31CF B7            [ 4] 9028 	or	a, a
   31D0 C8            [11] 9029 	ret	Z
   31D1 3ArE8r00      [13] 9030 	ld	a, (#_prota + 14)
   31D4 B7            [ 4] 9031 	or	a, a
   31D5 C0            [11] 9032 	ret	NZ
                           9033 ;alien6.c:1252: cpc_PutSpXOR(prota.sp0,16,4,direccionLinea[prota.cy]+prota.cx);
   31D6 3ArDDr00      [13] 9034 	ld	a, (#(_prota + 0x0003) + 0)
   31D9 6F            [ 4] 9035 	ld	l,a
   31DA 26 00         [ 7] 9036 	ld	h,#0x00
   31DC 29            [11] 9037 	add	hl, hl
   31DD 11rECr05      [10] 9038 	ld	de,#_direccionLinea
   31E0 19            [11] 9039 	add	hl,de
   31E1 4E            [ 7] 9040 	ld	c,(hl)
   31E2 23            [ 6] 9041 	inc	hl
   31E3 46            [ 7] 9042 	ld	b,(hl)
   31E4 3ArDCr00      [13] 9043 	ld	a, (#(_prota + 0x0002) + 0)
   31E7 6F            [ 4] 9044 	ld	l,a
   31E8 26 00         [ 7] 9045 	ld	h,#0x00
   31EA 09            [11] 9046 	add	hl,bc
   31EB 4D            [ 4] 9047 	ld	c,l
   31EC 44            [ 4] 9048 	ld	b,h
   31ED ED 5BrDAr00   [20] 9049 	ld	de, (#_prota + 0)
   31F1 C5            [11] 9050 	push	bc
   31F2 21 10 04      [10] 9051 	ld	hl,#0x0410
   31F5 E5            [11] 9052 	push	hl
   31F6 D5            [11] 9053 	push	de
   31F7 CDr00r00      [17] 9054 	call	_cpc_PutSpXOR
   31FA 21 06 00      [10] 9055 	ld	hl,#6
   31FD 39            [11] 9056 	add	hl,sp
   31FE F9            [ 6] 9057 	ld	sp,hl
                           9058 ;alien6.c:1253: prota.ox=prota.cx;
   31FF 3ArDCr00      [13] 9059 	ld	a, (#(_prota + 0x0002) + 0)
   3202 32rDEr00      [13] 9060 	ld	(#(_prota + 0x0004)),a
                           9061 ;alien6.c:1254: prota.oy=prota.cy;
   3205 3ArDDr00      [13] 9062 	ld	a, (#(_prota + 0x0003) + 0)
   3208 32rDFr00      [13] 9063 	ld	(#(_prota + 0x0005)),a
                           9064 ;alien6.c:1255: prota.moved=0;
   320B 21rE5r00      [10] 9065 	ld	hl,#(_prota + 0x000b)
   320E 36 00         [10] 9066 	ld	(hl),#0x00
   3210 C9            [10] 9067 	ret
   3211                    9068 _pintarProta_end::
                           9069 ;alien6.c:1260: void inicializarTeclado()
                           9070 ;	---------------------------------
                           9071 ; Function inicializarTeclado
                           9072 ; ---------------------------------
   3211                    9073 _inicializarTeclado_start::
   3211                    9074 _inicializarTeclado:
                           9075 ;alien6.c:1262: cpc_AssignKey (KEY_LEFT, 0x4404);		// O
   3211 21 04 44      [10] 9076 	ld	hl,#0x4404
   3214 E5            [11] 9077 	push	hl
   3215 AF            [ 4] 9078 	xor	a, a
   3216 F5            [11] 9079 	push	af
   3217 33            [ 6] 9080 	inc	sp
   3218 CDr00r00      [17] 9081 	call	_cpc_AssignKey
                           9082 ;alien6.c:1263: cpc_AssignKey (KEY_RIGHT, 0x4308);		// P
   321B 33            [ 6] 9083 	inc	sp
   321C 21 08 43      [10] 9084 	ld	hl,#0x4308
   321F E3            [19] 9085 	ex	(sp),hl
   3220 3E 01         [ 7] 9086 	ld	a,#0x01
   3222 F5            [11] 9087 	push	af
   3223 33            [ 6] 9088 	inc	sp
   3224 CDr00r00      [17] 9089 	call	_cpc_AssignKey
                           9090 ;alien6.c:1264: cpc_AssignKey (KEY_UP, 0x4808);		    // Q
   3227 33            [ 6] 9091 	inc	sp
   3228 21 08 48      [10] 9092 	ld	hl,#0x4808
   322B E3            [19] 9093 	ex	(sp),hl
   322C 3E 02         [ 7] 9094 	ld	a,#0x02
   322E F5            [11] 9095 	push	af
   322F 33            [ 6] 9096 	inc	sp
   3230 CDr00r00      [17] 9097 	call	_cpc_AssignKey
                           9098 ;alien6.c:1265: cpc_AssignKey (KEY_DOWN, 0x4820);		// A
   3233 33            [ 6] 9099 	inc	sp
   3234 21 20 48      [10] 9100 	ld	hl,#0x4820
   3237 E3            [19] 9101 	ex	(sp),hl
   3238 3E 03         [ 7] 9102 	ld	a,#0x03
   323A F5            [11] 9103 	push	af
   323B 33            [ 6] 9104 	inc	sp
   323C CDr00r00      [17] 9105 	call	_cpc_AssignKey
                           9106 ;alien6.c:1266: cpc_AssignKey (KEY_FIRE, 0x4580);		// SPACE
   323F 33            [ 6] 9107 	inc	sp
   3240 21 80 45      [10] 9108 	ld	hl,#0x4580
   3243 E3            [19] 9109 	ex	(sp),hl
   3244 3E 04         [ 7] 9110 	ld	a,#0x04
   3246 F5            [11] 9111 	push	af
   3247 33            [ 6] 9112 	inc	sp
   3248 CDr00r00      [17] 9113 	call	_cpc_AssignKey
                           9114 ;alien6.c:1267: cpc_AssignKey (KEY_ESC, 0x4804);		// ESC
   324B 33            [ 6] 9115 	inc	sp
   324C 21 04 48      [10] 9116 	ld	hl,#0x4804
   324F E3            [19] 9117 	ex	(sp),hl
   3250 3E 05         [ 7] 9118 	ld	a,#0x05
   3252 F5            [11] 9119 	push	af
   3253 33            [ 6] 9120 	inc	sp
   3254 CDr00r00      [17] 9121 	call	_cpc_AssignKey
                           9122 ;alien6.c:1268: cpc_AssignKey (KEY_ME1, 0x4801);		// 1
   3257 33            [ 6] 9123 	inc	sp
   3258 21 01 48      [10] 9124 	ld	hl,#0x4801
   325B E3            [19] 9125 	ex	(sp),hl
   325C 3E 06         [ 7] 9126 	ld	a,#0x06
   325E F5            [11] 9127 	push	af
   325F 33            [ 6] 9128 	inc	sp
   3260 CDr00r00      [17] 9129 	call	_cpc_AssignKey
                           9130 ;alien6.c:1269: cpc_AssignKey (KEY_ME2, 0x4802);		// 2
   3263 33            [ 6] 9131 	inc	sp
   3264 21 02 48      [10] 9132 	ld	hl,#0x4802
   3267 E3            [19] 9133 	ex	(sp),hl
   3268 3E 07         [ 7] 9134 	ld	a,#0x07
   326A F5            [11] 9135 	push	af
   326B 33            [ 6] 9136 	inc	sp
   326C CDr00r00      [17] 9137 	call	_cpc_AssignKey
                           9138 ;alien6.c:1270: cpc_AssignKey (KEY_ME3, 0x4702);		// 3
   326F 33            [ 6] 9139 	inc	sp
   3270 21 02 47      [10] 9140 	ld	hl,#0x4702
   3273 E3            [19] 9141 	ex	(sp),hl
   3274 3E 08         [ 7] 9142 	ld	a,#0x08
   3276 F5            [11] 9143 	push	af
   3277 33            [ 6] 9144 	inc	sp
   3278 CDr00r00      [17] 9145 	call	_cpc_AssignKey
                           9146 ;alien6.c:1271: cpc_AssignKey (KEY_ME4, 0x4701);		// 4
   327B 33            [ 6] 9147 	inc	sp
   327C 21 01 47      [10] 9148 	ld	hl,#0x4701
   327F E3            [19] 9149 	ex	(sp),hl
   3280 3E 09         [ 7] 9150 	ld	a,#0x09
   3282 F5            [11] 9151 	push	af
   3283 33            [ 6] 9152 	inc	sp
   3284 CDr00r00      [17] 9153 	call	_cpc_AssignKey
                           9154 ;alien6.c:1272: cpc_AssignKey (KEY_DEBUG, 0x4720);		// D
   3287 33            [ 6] 9155 	inc	sp
   3288 21 20 47      [10] 9156 	ld	hl,#0x4720
   328B E3            [19] 9157 	ex	(sp),hl
   328C 3E 0A         [ 7] 9158 	ld	a,#0x0A
   328E F5            [11] 9159 	push	af
   328F 33            [ 6] 9160 	inc	sp
   3290 CDr00r00      [17] 9161 	call	_cpc_AssignKey
                           9162 ;alien6.c:1273: cpc_AssignKey (KEY_HOSTILITY, 0x4510);		// H
   3293 33            [ 6] 9163 	inc	sp
   3294 21 10 45      [10] 9164 	ld	hl,#0x4510
   3297 E3            [19] 9165 	ex	(sp),hl
   3298 3E 0B         [ 7] 9166 	ld	a,#0x0B
   329A F5            [11] 9167 	push	af
   329B 33            [ 6] 9168 	inc	sp
   329C CDr00r00      [17] 9169 	call	_cpc_AssignKey
   329F F1            [10] 9170 	pop	af
   32A0 33            [ 6] 9171 	inc	sp
   32A1 C9            [10] 9172 	ret
   32A2                    9173 _inicializarTeclado_end::
                           9174 ;alien6.c:1276: void mostrarVidasProta(){
                           9175 ;	---------------------------------
                           9176 ; Function mostrarVidasProta
                           9177 ; ---------------------------------
   32A2                    9178 _mostrarVidasProta_start::
   32A2                    9179 _mostrarVidasProta:
                           9180 ;alien6.c:1278: for (i=0;i<prota.vidas;i++){
   32A2 11 00 00      [10] 9181 	ld	de,#0x0000
   32A5                    9182 00103$:
   32A5 21rE9r00      [10] 9183 	ld	hl, #(_prota + 0x000f) + 0
   32A8 66            [ 7] 9184 	ld	h,(hl)
   32A9 7A            [ 4] 9185 	ld	a,d
   32AA 94            [ 4] 9186 	sub	a, h
   32AB D0            [11] 9187 	ret	NC
                           9188 ;alien6.c:1280: printSpriteXOR(heart2,77-(i*3),194,0);
   32AC 3E 4D         [ 7] 9189 	ld	a,#0x4D
   32AE 93            [ 4] 9190 	sub	a, e
   32AF 47            [ 4] 9191 	ld	b,a
   32B0 D5            [11] 9192 	push	de
   32B1 21 00 00      [10] 9193 	ld	hl,#0x0000
   32B4 E5            [11] 9194 	push	hl
   32B5 3E C2         [ 7] 9195 	ld	a,#0xC2
   32B7 F5            [11] 9196 	push	af
   32B8 33            [ 6] 9197 	inc	sp
   32B9 C5            [11] 9198 	push	bc
   32BA 33            [ 6] 9199 	inc	sp
   32BB 21r08r02      [10] 9200 	ld	hl,#_heart2
   32BE E5            [11] 9201 	push	hl
   32BF CDr00r00      [17] 9202 	call	_printSpriteXOR
   32C2 21 06 00      [10] 9203 	ld	hl,#6
   32C5 39            [11] 9204 	add	hl,sp
   32C6 F9            [ 6] 9205 	ld	sp,hl
   32C7 D1            [10] 9206 	pop	de
                           9207 ;alien6.c:1278: for (i=0;i<prota.vidas;i++){
   32C8 1C            [ 4] 9208 	inc	e
   32C9 1C            [ 4] 9209 	inc	e
   32CA 1C            [ 4] 9210 	inc	e
   32CB 14            [ 4] 9211 	inc	d
   32CC 18 D7         [12] 9212 	jr	00103$
   32CE C9            [10] 9213 	ret
   32CF                    9214 _mostrarVidasProta_end::
                           9215 ;alien6.c:1284: void pintarBanderasNivel(){
                           9216 ;	---------------------------------
                           9217 ; Function pintarBanderasNivel
                           9218 ; ---------------------------------
   32CF                    9219 _pintarBanderasNivel_start::
   32CF                    9220 _pintarBanderasNivel:
   32CF 21 F8 FF      [10] 9221 	ld	hl,#-8
   32D2 39            [11] 9222 	add	hl,sp
   32D3 F9            [ 6] 9223 	ld	sp,hl
                           9224 ;alien6.c:1292: aux=nivel/5;
   32D4 3E 05         [ 7] 9225 	ld	a,#0x05
   32D6 F5            [11] 9226 	push	af
   32D7 33            [ 6] 9227 	inc	sp
   32D8 3Ar94r02      [13] 9228 	ld	a,(_nivel)
   32DB F5            [11] 9229 	push	af
   32DC 33            [ 6] 9230 	inc	sp
   32DD CDr00r00      [17] 9231 	call	__divuschar_rrx_s
   32E0 F1            [10] 9232 	pop	af
   32E1 FD 21 01 00   [14] 9233 	ld	iy,#1
   32E5 FD 39         [15] 9234 	add	iy,sp
   32E7 FD 75 00      [19] 9235 	ld	0 (iy),l
                           9236 ;alien6.c:1293: for (i=0;i<aux;i++){
   32EA FD 21 02 00   [14] 9237 	ld	iy,#2
   32EE FD 39         [15] 9238 	add	iy,sp
   32F0 FD 36 00 00   [19] 9239 	ld	0 (iy),#0x00
   32F4 FD 21 03 00   [14] 9240 	ld	iy,#3
   32F8 FD 39         [15] 9241 	add	iy,sp
   32FA FD 36 00 00   [19] 9242 	ld	0 (iy),#0x00
   32FE                    9243 00104$:
   32FE 21 01 00      [10] 9244 	ld	hl,#1
   3301 39            [11] 9245 	add	hl,sp
   3302 FD 21 03 00   [14] 9246 	ld	iy,#3
   3306 FD 39         [15] 9247 	add	iy,sp
   3308 FD 7E 00      [19] 9248 	ld	a,0 (iy)
   330B 96            [ 7] 9249 	sub	a, (hl)
   330C 30 64         [12] 9250 	jr	NC,00101$
                           9251 ;alien6.c:1294: cpc_PutSpXOR(greenFlag,6,2,direccionLinea[194]+avance);
   330E 21r70r07      [10] 9252 	ld	hl, #(_direccionLinea + 0x0184) + 0
   3311 7E            [ 7] 9253 	ld	a,(hl)
   3312 FD 21 06 00   [14] 9254 	ld	iy,#6
   3316 FD 39         [15] 9255 	add	iy,sp
   3318 FD 77 00      [19] 9256 	ld	0 (iy),a
   331B 23            [ 6] 9257 	inc	hl
   331C 7E            [ 7] 9258 	ld	a,(hl)
   331D FD 77 01      [19] 9259 	ld	1 (iy),a
   3320 21 02 00      [10] 9260 	ld	hl, #2+0
   3323 39            [11] 9261 	add	hl, sp
   3324 7E            [ 7] 9262 	ld	a, (hl)
   3325 FD 21 04 00   [14] 9263 	ld	iy,#4
   3329 FD 39         [15] 9264 	add	iy,sp
   332B FD 77 00      [19] 9265 	ld	0 (iy),a
   332E FD 36 01 00   [19] 9266 	ld	1 (iy),#0x00
   3332 21 04 00      [10] 9267 	ld	hl,#4
   3335 39            [11] 9268 	add	hl,sp
   3336 FD 21 06 00   [14] 9269 	ld	iy,#6
   333A FD 39         [15] 9270 	add	iy,sp
   333C FD 7E 00      [19] 9271 	ld	a,0 (iy)
   333F 86            [ 7] 9272 	add	a, (hl)
   3340 4F            [ 4] 9273 	ld	c,a
   3341 FD 7E 01      [19] 9274 	ld	a,1 (iy)
   3344 23            [ 6] 9275 	inc	hl
   3345 8E            [ 7] 9276 	adc	a, (hl)
   3346 47            [ 4] 9277 	ld	b,a
   3347 11r28r02      [10] 9278 	ld	de,#_greenFlag
   334A C5            [11] 9279 	push	bc
   334B 21 06 02      [10] 9280 	ld	hl,#0x0206
   334E E5            [11] 9281 	push	hl
   334F D5            [11] 9282 	push	de
   3350 CDr00r00      [17] 9283 	call	_cpc_PutSpXOR
   3353 21 06 00      [10] 9284 	ld	hl,#6
   3356 39            [11] 9285 	add	hl,sp
   3357 F9            [ 6] 9286 	ld	sp,hl
                           9287 ;alien6.c:1295: avance=avance+3;
   3358 FD 21 02 00   [14] 9288 	ld	iy,#2
   335C FD 39         [15] 9289 	add	iy,sp
   335E FD 34 00      [23] 9290 	inc	0 (iy)
   3361 FD 34 00      [23] 9291 	inc	0 (iy)
   3364 FD 34 00      [23] 9292 	inc	0 (iy)
                           9293 ;alien6.c:1293: for (i=0;i<aux;i++){
   3367 FD 21 03 00   [14] 9294 	ld	iy,#3
   336B FD 39         [15] 9295 	add	iy,sp
   336D FD 34 00      [23] 9296 	inc	0 (iy)
   3370 18 8C         [12] 9297 	jr	00104$
   3372                    9298 00101$:
                           9299 ;alien6.c:1298: aux2=nivel-(aux*5);
   3372 21 01 00      [10] 9300 	ld	hl, #1+0
   3375 39            [11] 9301 	add	hl, sp
   3376 7E            [ 7] 9302 	ld	a, (hl)
   3377 4F            [ 4] 9303 	ld	c,a
   3378 87            [ 4] 9304 	add	a, a
   3379 87            [ 4] 9305 	add	a, a
   337A 81            [ 4] 9306 	add	a, c
   337B 57            [ 4] 9307 	ld	d,a
   337C 3Ar94r02      [13] 9308 	ld	a,(#_nivel + 0)
   337F 92            [ 4] 9309 	sub	a, d
   3380 33            [ 6] 9310 	inc	sp
   3381 F5            [11] 9311 	push	af
   3382 33            [ 6] 9312 	inc	sp
                           9313 ;alien6.c:1299: for (i=0;i<aux2;i++){
   3383 21 02 00      [10] 9314 	ld	hl, #2+0
   3386 39            [11] 9315 	add	hl, sp
   3387 56            [ 7] 9316 	ld	d, (hl)
   3388 1E 00         [ 7] 9317 	ld	e,#0x00
   338A                    9318 00107$:
   338A 21 00 00      [10] 9319 	ld	hl,#0
   338D 39            [11] 9320 	add	hl,sp
   338E 7B            [ 4] 9321 	ld	a,e
   338F 96            [ 7] 9322 	sub	a, (hl)
   3390 30 21         [12] 9323 	jr	NC,00109$
                           9324 ;alien6.c:1300: cpc_PutSpXOR(redFlag,6,2,direccionLinea[194]+avance);
   3392 ED 4Br70r07   [20] 9325 	ld	bc, (#(_direccionLinea + 0x0184) + 0)
   3396 6A            [ 4] 9326 	ld	l,d
   3397 26 00         [ 7] 9327 	ld	h,#0x00
   3399 09            [11] 9328 	add	hl,bc
   339A D5            [11] 9329 	push	de
   339B E5            [11] 9330 	push	hl
   339C 21 06 02      [10] 9331 	ld	hl,#0x0206
   339F E5            [11] 9332 	push	hl
   33A0 21r34r02      [10] 9333 	ld	hl,#_redFlag
   33A3 E5            [11] 9334 	push	hl
   33A4 CDr00r00      [17] 9335 	call	_cpc_PutSpXOR
   33A7 21 06 00      [10] 9336 	ld	hl,#6
   33AA 39            [11] 9337 	add	hl,sp
   33AB F9            [ 6] 9338 	ld	sp,hl
   33AC D1            [10] 9339 	pop	de
                           9340 ;alien6.c:1301: avance=avance+3;
   33AD 14            [ 4] 9341 	inc	d
   33AE 14            [ 4] 9342 	inc	d
   33AF 14            [ 4] 9343 	inc	d
                           9344 ;alien6.c:1299: for (i=0;i<aux2;i++){
   33B0 1C            [ 4] 9345 	inc	e
   33B1 18 D7         [12] 9346 	jr	00107$
   33B3                    9347 00109$:
   33B3 21 08 00      [10] 9348 	ld	hl,#8
   33B6 39            [11] 9349 	add	hl,sp
   33B7 F9            [ 6] 9350 	ld	sp,hl
   33B8 C9            [10] 9351 	ret
   33B9                    9352 _pintarBanderasNivel_end::
                           9353 ;alien6.c:1304: void inicializarPartida(){
                           9354 ;	---------------------------------
                           9355 ; Function inicializarPartida
                           9356 ; ---------------------------------
   33B9                    9357 _inicializarPartida_start::
   33B9                    9358 _inicializarPartida:
                           9359 ;alien6.c:1305: prota.vidas=3;
   33B9 21rE9r00      [10] 9360 	ld	hl,#_prota+15
   33BC 36 03         [10] 9361 	ld	(hl),#0x03
                           9362 ;alien6.c:1306: nivel=1;
   33BE 21r94r02      [10] 9363 	ld	hl,#_nivel + 0
   33C1 36 01         [10] 9364 	ld	(hl), #0x01
                           9365 ;alien6.c:1307: score=0;
   33C3 21r6Dr03      [10] 9366 	ld	hl,#_score + 0
   33C6 36 00         [10] 9367 	ld	(hl), #0x00
   33C8 21r6Er03      [10] 9368 	ld	hl,#_score + 1
   33CB 36 00         [10] 9369 	ld	(hl), #0x00
   33CD C9            [10] 9370 	ret
   33CE                    9371 _inicializarPartida_end::
                           9372 ;alien6.c:1310: void debug(){
                           9373 ;	---------------------------------
                           9374 ; Function debug
                           9375 ; ---------------------------------
   33CE                    9376 _debug_start::
   33CE                    9377 _debug:
                           9378 ;alien6.c:1311: cpc_ClrScr();				//fills scr with ink 0
   33CE CDr00r00      [17] 9379 	call	_cpc_ClrScr
                           9380 ;alien6.c:1312: letrasColorAzul();
   33D1 CDr5Ar08      [17] 9381 	call	_letrasColorAzul
                           9382 ;alien6.c:1313: sprintf(aux_txt,"DISPAROS;ACTIVOS;%03u",disparos_activos);
   33D4 21r9Br00      [10] 9383 	ld	hl,#_disparos_activos + 0
   33D7 5E            [ 7] 9384 	ld	e, (hl)
   33D8 16 00         [ 7] 9385 	ld	d,#0x00
   33DA 21r96r02      [10] 9386 	ld	hl,#_aux_txt
   33DD D5            [11] 9387 	push	de
   33DE 01r7Cr34      [10] 9388 	ld	bc,#___str_0
   33E1 C5            [11] 9389 	push	bc
   33E2 E5            [11] 9390 	push	hl
   33E3 CDr00r00      [17] 9391 	call	_sprintf
   33E6 21 06 00      [10] 9392 	ld	hl,#6
   33E9 39            [11] 9393 	add	hl,sp
   33EA F9            [ 6] 9394 	ld	sp,hl
                           9395 ;alien6.c:1314: cpc_PrintGphStrXY(aux_txt,2*2,0*8);
   33EB 11r96r02      [10] 9396 	ld	de,#_aux_txt
   33EE 21 04 00      [10] 9397 	ld	hl,#0x0004
   33F1 E5            [11] 9398 	push	hl
   33F2 D5            [11] 9399 	push	de
   33F3 CDr00r00      [17] 9400 	call	_cpc_PrintGphStrXY
   33F6 F1            [10] 9401 	pop	af
   33F7 F1            [10] 9402 	pop	af
                           9403 ;alien6.c:1315: sprintf(aux_txt,"DISPAROS;MALOS;ACTIVOS;%03u",disparos_malos_activos);
   33F8 21rD8r00      [10] 9404 	ld	hl,#_disparos_malos_activos + 0
   33FB 5E            [ 7] 9405 	ld	e, (hl)
   33FC 16 00         [ 7] 9406 	ld	d,#0x00
   33FE 21r96r02      [10] 9407 	ld	hl,#_aux_txt
   3401 D5            [11] 9408 	push	de
   3402 01r92r34      [10] 9409 	ld	bc,#___str_1
   3405 C5            [11] 9410 	push	bc
   3406 E5            [11] 9411 	push	hl
   3407 CDr00r00      [17] 9412 	call	_sprintf
   340A 21 06 00      [10] 9413 	ld	hl,#6
   340D 39            [11] 9414 	add	hl,sp
   340E F9            [ 6] 9415 	ld	sp,hl
                           9416 ;alien6.c:1316: cpc_PrintGphStrXY(aux_txt,2*2,1*8);
   340F 11r96r02      [10] 9417 	ld	de,#_aux_txt
   3412 21 04 08      [10] 9418 	ld	hl,#0x0804
   3415 E5            [11] 9419 	push	hl
   3416 D5            [11] 9420 	push	de
   3417 CDr00r00      [17] 9421 	call	_cpc_PrintGphStrXY
   341A F1            [10] 9422 	pop	af
   341B F1            [10] 9423 	pop	af
                           9424 ;alien6.c:1317: sprintf(aux_txt,"MALOS;ACTIVOS;%03u",malos_activos);
   341C 21rA1r01      [10] 9425 	ld	hl,#_malos_activos + 0
   341F 5E            [ 7] 9426 	ld	e, (hl)
   3420 16 00         [ 7] 9427 	ld	d,#0x00
   3422 21r96r02      [10] 9428 	ld	hl,#_aux_txt
   3425 D5            [11] 9429 	push	de
   3426 01rAEr34      [10] 9430 	ld	bc,#___str_2
   3429 C5            [11] 9431 	push	bc
   342A E5            [11] 9432 	push	hl
   342B CDr00r00      [17] 9433 	call	_sprintf
   342E 21 06 00      [10] 9434 	ld	hl,#6
   3431 39            [11] 9435 	add	hl,sp
   3432 F9            [ 6] 9436 	ld	sp,hl
                           9437 ;alien6.c:1318: cpc_PrintGphStrXY(aux_txt,2*2,2*8);
   3433 11r96r02      [10] 9438 	ld	de,#_aux_txt
   3436 21 04 10      [10] 9439 	ld	hl,#0x1004
   3439 E5            [11] 9440 	push	hl
   343A D5            [11] 9441 	push	de
   343B CDr00r00      [17] 9442 	call	_cpc_PrintGphStrXY
   343E F1            [10] 9443 	pop	af
   343F F1            [10] 9444 	pop	af
                           9445 ;alien6.c:1319: sprintf(aux_txt,"EXPLOSIONES;ACTIVAS;%03u",explosiones_activas);
   3440 21r62r02      [10] 9446 	ld	hl,#_explosiones_activas + 0
   3443 5E            [ 7] 9447 	ld	e, (hl)
   3444 16 00         [ 7] 9448 	ld	d,#0x00
   3446 21r96r02      [10] 9449 	ld	hl,#_aux_txt
   3449 D5            [11] 9450 	push	de
   344A 01rC1r34      [10] 9451 	ld	bc,#___str_3
   344D C5            [11] 9452 	push	bc
   344E E5            [11] 9453 	push	hl
   344F CDr00r00      [17] 9454 	call	_sprintf
   3452 21 06 00      [10] 9455 	ld	hl,#6
   3455 39            [11] 9456 	add	hl,sp
   3456 F9            [ 6] 9457 	ld	sp,hl
                           9458 ;alien6.c:1320: cpc_PrintGphStrXY(aux_txt,2*2,3*8);
   3457 11r96r02      [10] 9459 	ld	de,#_aux_txt
   345A 21 04 18      [10] 9460 	ld	hl,#0x1804
   345D E5            [11] 9461 	push	hl
   345E D5            [11] 9462 	push	de
   345F CDr00r00      [17] 9463 	call	_cpc_PrintGphStrXY
   3462 F1            [10] 9464 	pop	af
                           9465 ;alien6.c:1321: pause(6);
   3463 26 06         [ 7] 9466 	ld	h,#0x06
   3465 E3            [19] 9467 	ex	(sp),hl
   3466 33            [ 6] 9468 	inc	sp
   3467 CDrA5r07      [17] 9469 	call	_pause
   346A 33            [ 6] 9470 	inc	sp
                           9471 ;alien6.c:1323: while (!cpc_AnyKeyPressed());
   346B                    9472 00101$:
   346B CDr00r00      [17] 9473 	call	_cpc_AnyKeyPressed
   346E 7C            [ 4] 9474 	ld	a,h
   346F B5            [ 4] 9475 	or	a,l
   3470 28 F9         [12] 9476 	jr	Z,00101$
                           9477 ;alien6.c:1324: while (cpc_AnyKeyPressed());
   3472                    9478 00104$:
   3472 CDr00r00      [17] 9479 	call	_cpc_AnyKeyPressed
   3475 7C            [ 4] 9480 	ld	a,h
   3476 B5            [ 4] 9481 	or	a,l
   3477 20 F9         [12] 9482 	jr	NZ,00104$
                           9483 ;alien6.c:1326: cpc_ClrScr();				//fills scr with ink 0
   3479 C3r00r00      [10] 9484 	jp	_cpc_ClrScr
   347C                    9485 _debug_end::
   347C                    9486 ___str_0:
   347C 44 49 53 50 41 52  9487 	.ascii "DISPAROS;ACTIVOS;%03u"
        4F 53 3B 41 43 54
        49 56 4F 53 3B 25
        30 33 75
   3491 00                 9488 	.db 0x00
   3492                    9489 ___str_1:
   3492 44 49 53 50 41 52  9490 	.ascii "DISPAROS;MALOS;ACTIVOS;%03u"
        4F 53 3B 4D 41 4C
        4F 53 3B 41 43 54
        49 56 4F 53 3B 25
        30 33 75
   34AD 00                 9491 	.db 0x00
   34AE                    9492 ___str_2:
   34AE 4D 41 4C 4F 53 3B  9493 	.ascii "MALOS;ACTIVOS;%03u"
        41 43 54 49 56 4F
        53 3B 25 30 33 75
   34C0 00                 9494 	.db 0x00
   34C1                    9495 ___str_3:
   34C1 45 58 50 4C 4F 53  9496 	.ascii "EXPLOSIONES;ACTIVAS;%03u"
        49 4F 4E 45 53 3B
        41 43 54 49 56 41
        53 3B 25 30 33 75
   34D9 00                 9497 	.db 0x00
                           9498 ;alien6.c:1329: char help() {
                           9499 ;	---------------------------------
                           9500 ; Function help
                           9501 ; ---------------------------------
   34DA                    9502 _help_start::
   34DA                    9503 _help:
                           9504 ;alien6.c:1330: cpc_ClrScr();				//fills scr with ink 0
   34DA CDr00r00      [17] 9505 	call	_cpc_ClrScr
                           9506 ;alien6.c:1331: cpc_SetMode(0);				//hardware call to set mode 1
   34DD AF            [ 4] 9507 	xor	a, a
   34DE F5            [11] 9508 	push	af
   34DF 33            [ 6] 9509 	inc	sp
   34E0 CDr00r00      [17] 9510 	call	_cpc_SetMode
   34E3 33            [ 6] 9511 	inc	sp
                           9512 ;alien6.c:1333: letrasColorAzul();
   34E4 CDr5Ar08      [17] 9513 	call	_letrasColorAzul
                           9514 ;alien6.c:1334: cpc_PrintGphStrXY("DEFIENDE;LA;GALAXIA;DE;LA",0*2,0*8);
   34E7 11r3Fr35      [10] 9515 	ld	de,#___str_4
   34EA 21 00 00      [10] 9516 	ld	hl,#0x0000
   34ED E5            [11] 9517 	push	hl
   34EE D5            [11] 9518 	push	de
   34EF CDr00r00      [17] 9519 	call	_cpc_PrintGphStrXY
   34F2 F1            [10] 9520 	pop	af
   34F3 F1            [10] 9521 	pop	af
                           9522 ;alien6.c:1335: cpc_PrintGphStrXY("INVASION;DE;LAS;TROPAS;ALIENIGENAS",0*2,1*8);
   34F4 11r59r35      [10] 9523 	ld	de,#___str_5
   34F7 21 00 08      [10] 9524 	ld	hl,#0x0800
   34FA E5            [11] 9525 	push	hl
   34FB D5            [11] 9526 	push	de
   34FC CDr00r00      [17] 9527 	call	_cpc_PrintGphStrXY
   34FF F1            [10] 9528 	pop	af
   3500 F1            [10] 9529 	pop	af
                           9530 ;alien6.c:1337: cpc_PrintGphStrXY("LA;VICTORIA;TE;REPORTARA;GRANDES",0*2,2*8);
   3501 11r7Cr35      [10] 9531 	ld	de,#___str_6
   3504 21 00 10      [10] 9532 	ld	hl,#0x1000
   3507 E5            [11] 9533 	push	hl
   3508 D5            [11] 9534 	push	de
   3509 CDr00r00      [17] 9535 	call	_cpc_PrintGphStrXY
   350C F1            [10] 9536 	pop	af
   350D F1            [10] 9537 	pop	af
                           9538 ;alien6.c:1338: cpc_PrintGphStrXY("RECOMPENSAS",0*2,3*8);
   350E 11r9Dr35      [10] 9539 	ld	de,#___str_7
   3511 21 00 18      [10] 9540 	ld	hl,#0x1800
   3514 E5            [11] 9541 	push	hl
   3515 D5            [11] 9542 	push	de
   3516 CDr00r00      [17] 9543 	call	_cpc_PrintGphStrXY
   3519 F1            [10] 9544 	pop	af
   351A F1            [10] 9545 	pop	af
                           9546 ;alien6.c:1340: printSpriteXOR(heart2,0,32,0);
   351B 11r08r02      [10] 9547 	ld	de,#_heart2
   351E 21 00 00      [10] 9548 	ld	hl,#0x0000
   3521 E5            [11] 9549 	push	hl
   3522 26 20         [ 7] 9550 	ld	h, #0x20
   3524 E5            [11] 9551 	push	hl
   3525 D5            [11] 9552 	push	de
   3526 CDr00r00      [17] 9553 	call	_printSpriteXOR
   3529 21 06 00      [10] 9554 	ld	hl,#6
   352C 39            [11] 9555 	add	hl,sp
   352D F9            [ 6] 9556 	ld	sp,hl
                           9557 ;alien6.c:1342: while (!cpc_AnyKeyPressed());
   352E                    9558 00101$:
   352E CDr00r00      [17] 9559 	call	_cpc_AnyKeyPressed
   3531 7C            [ 4] 9560 	ld	a,h
   3532 B5            [ 4] 9561 	or	a,l
   3533 28 F9         [12] 9562 	jr	Z,00101$
                           9563 ;alien6.c:1343: while (cpc_AnyKeyPressed());
   3535                    9564 00104$:
   3535 CDr00r00      [17] 9565 	call	_cpc_AnyKeyPressed
   3538 7C            [ 4] 9566 	ld	a,h
   3539 B5            [ 4] 9567 	or	a,l
   353A 20 F9         [12] 9568 	jr	NZ,00104$
                           9569 ;alien6.c:1345: return STATE_MENU; 
   353C 2E 02         [ 7] 9570 	ld	l,#0x02
   353E C9            [10] 9571 	ret
   353F                    9572 _help_end::
   353F                    9573 ___str_4:
   353F 44 45 46 49 45 4E  9574 	.ascii "DEFIENDE;LA;GALAXIA;DE;LA"
        44 45 3B 4C 41 3B
        47 41 4C 41 58 49
        41 3B 44 45 3B 4C
        41
   3558 00                 9575 	.db 0x00
   3559                    9576 ___str_5:
   3559 49 4E 56 41 53 49  9577 	.ascii "INVASION;DE;LAS;TROPAS;ALIENIGENAS"
        4F 4E 3B 44 45 3B
        4C 41 53 3B 54 52
        4F 50 41 53 3B 41
        4C 49 45 4E 49 47
        45 4E 41 53
   357B 00                 9578 	.db 0x00
   357C                    9579 ___str_6:
   357C 4C 41 3B 56 49 43  9580 	.ascii "LA;VICTORIA;TE;REPORTARA;GRANDES"
        54 4F 52 49 41 3B
        54 45 3B 52 45 50
        4F 52 54 41 52 41
        3B 47 52 41 4E 44
        45 53
   359C 00                 9581 	.db 0x00
   359D                    9582 ___str_7:
   359D 52 45 43 4F 4D 50  9583 	.ascii "RECOMPENSAS"
        45 4E 53 41 53
   35A8 00                 9584 	.db 0x00
                           9585 ;alien6.c:1348: char gameOver()
                           9586 ;	---------------------------------
                           9587 ; Function gameOver
                           9588 ; ---------------------------------
   35A9                    9589 _gameOver_start::
   35A9                    9590 _gameOver:
                           9591 ;alien6.c:1350: letrasColorAzul();
   35A9 CDr5Ar08      [17] 9592 	call	_letrasColorAzul
                           9593 ;alien6.c:1351: sprintf(aux_txt,"PUNTUACION;FINAL:;%05d",score);
   35AC 11r96r02      [10] 9594 	ld	de,#_aux_txt
   35AF 2Ar6Dr03      [16] 9595 	ld	hl,(_score)
   35B2 E5            [11] 9596 	push	hl
   35B3 21r2Dr36      [10] 9597 	ld	hl,#___str_8
   35B6 E5            [11] 9598 	push	hl
   35B7 D5            [11] 9599 	push	de
   35B8 CDr00r00      [17] 9600 	call	_sprintf
   35BB 21 06 00      [10] 9601 	ld	hl,#6
   35BE 39            [11] 9602 	add	hl,sp
   35BF F9            [ 6] 9603 	ld	sp,hl
                           9604 ;alien6.c:1352: cpc_PrintGphStrXY2X(";;;;;;;;;;;;;;;;;;;;;;;",8*2,11*8);
   35C0 11r44r36      [10] 9605 	ld	de,#___str_9
   35C3 21 10 58      [10] 9606 	ld	hl,#0x5810
   35C6 E5            [11] 9607 	push	hl
   35C7 D5            [11] 9608 	push	de
   35C8 CDr00r00      [17] 9609 	call	_cpc_PrintGphStrXY2X
   35CB F1            [10] 9610 	pop	af
   35CC F1            [10] 9611 	pop	af
                           9612 ;alien6.c:1353: cpc_PrintGphStrXY2X(aux_txt,8*2,13*8);
   35CD 11r96r02      [10] 9613 	ld	de,#_aux_txt
   35D0 21 10 68      [10] 9614 	ld	hl,#0x6810
   35D3 E5            [11] 9615 	push	hl
   35D4 D5            [11] 9616 	push	de
   35D5 CDr00r00      [17] 9617 	call	_cpc_PrintGphStrXY2X
   35D8 F1            [10] 9618 	pop	af
   35D9 F1            [10] 9619 	pop	af
                           9620 ;alien6.c:1354: cpc_PrintGphStrXY2X(";;;;;;;;;;;;;;;;;;;;;;;",8*2,15*8);
   35DA 11r44r36      [10] 9621 	ld	de,#___str_9
   35DD 21 10 78      [10] 9622 	ld	hl,#0x7810
   35E0 E5            [11] 9623 	push	hl
   35E1 D5            [11] 9624 	push	de
   35E2 CDr00r00      [17] 9625 	call	_cpc_PrintGphStrXY2X
   35E5 F1            [10] 9626 	pop	af
   35E6 F1            [10] 9627 	pop	af
                           9628 ;alien6.c:1355: while (cpc_AnyKeyPressed()==0);
   35E7                    9629 00101$:
   35E7 CDr00r00      [17] 9630 	call	_cpc_AnyKeyPressed
   35EA 7C            [ 4] 9631 	ld	a,h
   35EB B5            [ 4] 9632 	or	a,l
   35EC 28 F9         [12] 9633 	jr	Z,00101$
                           9634 ;alien6.c:1356: cpc_PrintGphStrXY2X(";;;;;;;;;;;;;;;;;;;;;;;",8*2,11*8);
   35EE 11r44r36      [10] 9635 	ld	de,#___str_9
   35F1 21 10 58      [10] 9636 	ld	hl,#0x5810
   35F4 E5            [11] 9637 	push	hl
   35F5 D5            [11] 9638 	push	de
   35F6 CDr00r00      [17] 9639 	call	_cpc_PrintGphStrXY2X
   35F9 F1            [10] 9640 	pop	af
   35FA F1            [10] 9641 	pop	af
                           9642 ;alien6.c:1357: cpc_PrintGphStrXY2X(";;;;;;;GAME;OVER;;;;;;;",8*2,13*8);
   35FB 11r5Cr36      [10] 9643 	ld	de,#___str_10
   35FE 21 10 68      [10] 9644 	ld	hl,#0x6810
   3601 E5            [11] 9645 	push	hl
   3602 D5            [11] 9646 	push	de
   3603 CDr00r00      [17] 9647 	call	_cpc_PrintGphStrXY2X
   3606 F1            [10] 9648 	pop	af
   3607 F1            [10] 9649 	pop	af
                           9650 ;alien6.c:1358: cpc_PrintGphStrXY2X(";;;;;;;;;;;;;;;;;;;;;;;",8*2,15*8);
   3608 11r44r36      [10] 9651 	ld	de,#___str_9
   360B 21 10 78      [10] 9652 	ld	hl,#0x7810
   360E E5            [11] 9653 	push	hl
   360F D5            [11] 9654 	push	de
   3610 CDr00r00      [17] 9655 	call	_cpc_PrintGphStrXY2X
   3613 F1            [10] 9656 	pop	af
                           9657 ;alien6.c:1359: pause(6);
   3614 26 06         [ 7] 9658 	ld	h,#0x06
   3616 E3            [19] 9659 	ex	(sp),hl
   3617 33            [ 6] 9660 	inc	sp
   3618 CDrA5r07      [17] 9661 	call	_pause
   361B 33            [ 6] 9662 	inc	sp
                           9663 ;alien6.c:1361: while (!cpc_AnyKeyPressed());
   361C                    9664 00104$:
   361C CDr00r00      [17] 9665 	call	_cpc_AnyKeyPressed
   361F 7C            [ 4] 9666 	ld	a,h
   3620 B5            [ 4] 9667 	or	a,l
   3621 28 F9         [12] 9668 	jr	Z,00104$
                           9669 ;alien6.c:1362: while (cpc_AnyKeyPressed());
   3623                    9670 00107$:
   3623 CDr00r00      [17] 9671 	call	_cpc_AnyKeyPressed
   3626 7C            [ 4] 9672 	ld	a,h
   3627 B5            [ 4] 9673 	or	a,l
   3628 20 F9         [12] 9674 	jr	NZ,00107$
                           9675 ;alien6.c:1364: return STATE_MENU; 
   362A 2E 02         [ 7] 9676 	ld	l,#0x02
   362C C9            [10] 9677 	ret
   362D                    9678 _gameOver_end::
   362D                    9679 ___str_8:
   362D 50 55 4E 54 55 41  9680 	.ascii "PUNTUACION;FINAL:;%05d"
        43 49 4F 4E 3B 46
        49 4E 41 4C 3A 3B
        25 30 35 64
   3643 00                 9681 	.db 0x00
   3644                    9682 ___str_9:
   3644 3B 3B 3B 3B 3B 3B  9683 	.ascii ";;;;;;;;;;;;;;;;;;;;;;;"
        3B 3B 3B 3B 3B 3B
        3B 3B 3B 3B 3B 3B
        3B 3B 3B 3B 3B
   365B 00                 9684 	.db 0x00
   365C                    9685 ___str_10:
   365C 3B 3B 3B 3B 3B 3B  9686 	.ascii ";;;;;;;GAME;OVER;;;;;;;"
        3B 47 41 4D 45 3B
        4F 56 45 52 3B 3B
        3B 3B 3B 3B 3B
   3673 00                 9687 	.db 0x00
                           9688 ;alien6.c:1367: char levelUp()
                           9689 ;	---------------------------------
                           9690 ; Function levelUp
                           9691 ; ---------------------------------
   3674                    9692 _levelUp_start::
   3674                    9693 _levelUp:
                           9694 ;alien6.c:1369: letrasColorAzul();
   3674 CDr5Ar08      [17] 9695 	call	_letrasColorAzul
                           9696 ;alien6.c:1370: sprintf(aux_txt,";;;PUNTUACION:;%05d;;;",score);
   3677 11r96r02      [10] 9697 	ld	de,#_aux_txt
   367A 2Ar6Dr03      [16] 9698 	ld	hl,(_score)
   367D E5            [11] 9699 	push	hl
   367E 21r61r37      [10] 9700 	ld	hl,#___str_11
   3681 E5            [11] 9701 	push	hl
   3682 D5            [11] 9702 	push	de
   3683 CDr00r00      [17] 9703 	call	_sprintf
   3686 21 06 00      [10] 9704 	ld	hl,#6
   3689 39            [11] 9705 	add	hl,sp
   368A F9            [ 6] 9706 	ld	sp,hl
                           9707 ;alien6.c:1371: cpc_PrintGphStrXY2X(";;;;;;;;;;;;;;;;;;;;;;;",8*2,11*8);
   368B 11r78r37      [10] 9708 	ld	de,#___str_12
   368E 21 10 58      [10] 9709 	ld	hl,#0x5810
   3691 E5            [11] 9710 	push	hl
   3692 D5            [11] 9711 	push	de
   3693 CDr00r00      [17] 9712 	call	_cpc_PrintGphStrXY2X
   3696 F1            [10] 9713 	pop	af
   3697 F1            [10] 9714 	pop	af
                           9715 ;alien6.c:1372: cpc_PrintGphStrXY2X(aux_txt,8*2,13*8);
   3698 11r96r02      [10] 9716 	ld	de,#_aux_txt
   369B 21 10 68      [10] 9717 	ld	hl,#0x6810
   369E E5            [11] 9718 	push	hl
   369F D5            [11] 9719 	push	de
   36A0 CDr00r00      [17] 9720 	call	_cpc_PrintGphStrXY2X
   36A3 F1            [10] 9721 	pop	af
   36A4 F1            [10] 9722 	pop	af
                           9723 ;alien6.c:1373: cpc_PrintGphStrXY2X(";;;;;;;;;;;;;;;;;;;;;;;",8*2,15*8);
   36A5 11r78r37      [10] 9724 	ld	de,#___str_12
   36A8 21 10 78      [10] 9725 	ld	hl,#0x7810
   36AB E5            [11] 9726 	push	hl
   36AC D5            [11] 9727 	push	de
   36AD CDr00r00      [17] 9728 	call	_cpc_PrintGphStrXY2X
   36B0 F1            [10] 9729 	pop	af
   36B1 F1            [10] 9730 	pop	af
                           9731 ;alien6.c:1374: while (!cpc_AnyKeyPressed());
   36B2                    9732 00101$:
   36B2 CDr00r00      [17] 9733 	call	_cpc_AnyKeyPressed
   36B5 7C            [ 4] 9734 	ld	a,h
   36B6 B5            [ 4] 9735 	or	a,l
   36B7 28 F9         [12] 9736 	jr	Z,00101$
                           9737 ;alien6.c:1375: while (cpc_AnyKeyPressed());
   36B9                    9738 00104$:
   36B9 CDr00r00      [17] 9739 	call	_cpc_AnyKeyPressed
   36BC 7C            [ 4] 9740 	ld	a,h
   36BD B5            [ 4] 9741 	or	a,l
   36BE 20 F9         [12] 9742 	jr	NZ,00104$
                           9743 ;alien6.c:1376: nivel++;
   36C0 21r94r02      [10] 9744 	ld	hl, #_nivel+0
   36C3 34            [11] 9745 	inc	(hl)
                           9746 ;alien6.c:1377: sprintf(aux_txt,";;SIGUIENTE;NIVEL;:;%02d;",nivel);
   36C4 21r94r02      [10] 9747 	ld	hl,#_nivel + 0
   36C7 5E            [ 7] 9748 	ld	e, (hl)
   36C8 3Ar94r02      [13] 9749 	ld	a,(#_nivel + 0)
   36CB 17            [ 4] 9750 	rla
   36CC 9F            [ 4] 9751 	sbc	a, a
   36CD 57            [ 4] 9752 	ld	d,a
   36CE 21r96r02      [10] 9753 	ld	hl,#_aux_txt
   36D1 D5            [11] 9754 	push	de
   36D2 01r90r37      [10] 9755 	ld	bc,#___str_13
   36D5 C5            [11] 9756 	push	bc
   36D6 E5            [11] 9757 	push	hl
   36D7 CDr00r00      [17] 9758 	call	_sprintf
   36DA 21 06 00      [10] 9759 	ld	hl,#6
   36DD 39            [11] 9760 	add	hl,sp
   36DE F9            [ 6] 9761 	ld	sp,hl
                           9762 ;alien6.c:1378: cpc_PrintGphStrXY2X(";;;;;;;;;;;;;;;;;;;;;;;",8*2,11*8);
   36DF 11r78r37      [10] 9763 	ld	de,#___str_12
   36E2 21 10 58      [10] 9764 	ld	hl,#0x5810
   36E5 E5            [11] 9765 	push	hl
   36E6 D5            [11] 9766 	push	de
   36E7 CDr00r00      [17] 9767 	call	_cpc_PrintGphStrXY2X
   36EA F1            [10] 9768 	pop	af
   36EB F1            [10] 9769 	pop	af
                           9770 ;alien6.c:1379: cpc_PrintGphStrXY2X(aux_txt,8*2,13*8);
   36EC 11r96r02      [10] 9771 	ld	de,#_aux_txt
   36EF 21 10 68      [10] 9772 	ld	hl,#0x6810
   36F2 E5            [11] 9773 	push	hl
   36F3 D5            [11] 9774 	push	de
   36F4 CDr00r00      [17] 9775 	call	_cpc_PrintGphStrXY2X
   36F7 F1            [10] 9776 	pop	af
   36F8 F1            [10] 9777 	pop	af
                           9778 ;alien6.c:1380: cpc_PrintGphStrXY2X(";;;;;;;;;;;;;;;;;;;;;;;",8*2,15*8);
   36F9 11r78r37      [10] 9779 	ld	de,#___str_12
   36FC 21 10 78      [10] 9780 	ld	hl,#0x7810
   36FF E5            [11] 9781 	push	hl
   3700 D5            [11] 9782 	push	de
   3701 CDr00r00      [17] 9783 	call	_cpc_PrintGphStrXY2X
   3704 F1            [10] 9784 	pop	af
   3705 F1            [10] 9785 	pop	af
                           9786 ;alien6.c:1381: while (!cpc_AnyKeyPressed());
   3706                    9787 00107$:
   3706 CDr00r00      [17] 9788 	call	_cpc_AnyKeyPressed
   3709 7C            [ 4] 9789 	ld	a,h
   370A B5            [ 4] 9790 	or	a,l
   370B 28 F9         [12] 9791 	jr	Z,00107$
                           9792 ;alien6.c:1382: while (cpc_AnyKeyPressed());
   370D                    9793 00110$:
   370D CDr00r00      [17] 9794 	call	_cpc_AnyKeyPressed
   3710 7C            [ 4] 9795 	ld	a,h
   3711 B5            [ 4] 9796 	or	a,l
   3712 20 F9         [12] 9797 	jr	NZ,00110$
                           9798 ;alien6.c:1383: cpc_PrintGphStrXY2X(";;;;;;;;;;;;;;;;;;;;;;;",8*2,11*8);
   3714 11r78r37      [10] 9799 	ld	de,#___str_12
   3717 21 10 58      [10] 9800 	ld	hl,#0x5810
   371A E5            [11] 9801 	push	hl
   371B D5            [11] 9802 	push	de
   371C CDr00r00      [17] 9803 	call	_cpc_PrintGphStrXY2X
   371F F1            [10] 9804 	pop	af
   3720 F1            [10] 9805 	pop	af
                           9806 ;alien6.c:1384: cpc_PrintGphStrXY2X(";;;;;;;PREPARADO;;;;;;;",8*2,13*8);
   3721 11rAAr37      [10] 9807 	ld	de,#___str_14
   3724 21 10 68      [10] 9808 	ld	hl,#0x6810
   3727 E5            [11] 9809 	push	hl
   3728 D5            [11] 9810 	push	de
   3729 CDr00r00      [17] 9811 	call	_cpc_PrintGphStrXY2X
   372C F1            [10] 9812 	pop	af
   372D F1            [10] 9813 	pop	af
                           9814 ;alien6.c:1385: cpc_PrintGphStrXY2X(";;;;;;;;;;;;;;;;;;;;;;;",8*2,15*8);
   372E 11r78r37      [10] 9815 	ld	de,#___str_12
   3731 21 10 78      [10] 9816 	ld	hl,#0x7810
   3734 E5            [11] 9817 	push	hl
   3735 D5            [11] 9818 	push	de
   3736 CDr00r00      [17] 9819 	call	_cpc_PrintGphStrXY2X
   3739 F1            [10] 9820 	pop	af
                           9821 ;alien6.c:1386: pause(6);
   373A 26 06         [ 7] 9822 	ld	h,#0x06
   373C E3            [19] 9823 	ex	(sp),hl
   373D 33            [ 6] 9824 	inc	sp
   373E CDrA5r07      [17] 9825 	call	_pause
   3741 33            [ 6] 9826 	inc	sp
                           9827 ;alien6.c:1387: while (!cpc_AnyKeyPressed());
   3742                    9828 00113$:
   3742 CDr00r00      [17] 9829 	call	_cpc_AnyKeyPressed
   3745 7C            [ 4] 9830 	ld	a,h
   3746 B5            [ 4] 9831 	or	a,l
   3747 28 F9         [12] 9832 	jr	Z,00113$
                           9833 ;alien6.c:1388: while (cpc_AnyKeyPressed());
   3749                    9834 00116$:
   3749 CDr00r00      [17] 9835 	call	_cpc_AnyKeyPressed
   374C 7C            [ 4] 9836 	ld	a,h
   374D B5            [ 4] 9837 	or	a,l
   374E 20 F9         [12] 9838 	jr	NZ,00116$
                           9839 ;alien6.c:1389: while (!cpc_AnyKeyPressed());
   3750                    9840 00119$:
   3750 CDr00r00      [17] 9841 	call	_cpc_AnyKeyPressed
   3753 7C            [ 4] 9842 	ld	a,h
   3754 B5            [ 4] 9843 	or	a,l
   3755 28 F9         [12] 9844 	jr	Z,00119$
                           9845 ;alien6.c:1390: while (cpc_AnyKeyPressed());
   3757                    9846 00122$:
   3757 CDr00r00      [17] 9847 	call	_cpc_AnyKeyPressed
   375A 7C            [ 4] 9848 	ld	a,h
   375B B5            [ 4] 9849 	or	a,l
   375C 20 F9         [12] 9850 	jr	NZ,00122$
                           9851 ;alien6.c:1392: return STATE_GAME; 
   375E 2E 04         [ 7] 9852 	ld	l,#0x04
   3760 C9            [10] 9853 	ret
   3761                    9854 _levelUp_end::
   3761                    9855 ___str_11:
   3761 3B 3B 3B 50 55 4E  9856 	.ascii ";;;PUNTUACION:;%05d;;;"
        54 55 41 43 49 4F
        4E 3A 3B 25 30 35
        64 3B 3B 3B
   3777 00                 9857 	.db 0x00
   3778                    9858 ___str_12:
   3778 3B 3B 3B 3B 3B 3B  9859 	.ascii ";;;;;;;;;;;;;;;;;;;;;;;"
        3B 3B 3B 3B 3B 3B
        3B 3B 3B 3B 3B 3B
        3B 3B 3B 3B 3B
   378F 00                 9860 	.db 0x00
   3790                    9861 ___str_13:
   3790 3B 3B 53 49 47 55  9862 	.ascii ";;SIGUIENTE;NIVEL;:;%02d;"
        49 45 4E 54 45 3B
        4E 49 56 45 4C 3B
        3A 3B 25 30 32 64
        3B
   37A9 00                 9863 	.db 0x00
   37AA                    9864 ___str_14:
   37AA 3B 3B 3B 3B 3B 3B  9865 	.ascii ";;;;;;;PREPARADO;;;;;;;"
        3B 50 52 45 50 41
        52 41 44 4F 3B 3B
        3B 3B 3B 3B 3B
   37C1 00                 9866 	.db 0x00
                           9867 ;alien6.c:1395: char protaDead()
                           9868 ;	---------------------------------
                           9869 ; Function protaDead
                           9870 ; ---------------------------------
   37C2                    9871 _protaDead_start::
   37C2                    9872 _protaDead:
   37C2 F5            [11] 9873 	push	af
                           9874 ;alien6.c:1397: letrasColorAzul();
   37C3 CDr5Ar08      [17] 9875 	call	_letrasColorAzul
                           9876 ;alien6.c:1398: sprintf(aux_txt,";;;PUNTUACION:;%05d;;;",score);
   37C6 11r96r02      [10] 9877 	ld	de,#_aux_txt
   37C9 2Ar6Dr03      [16] 9878 	ld	hl,(_score)
   37CC E5            [11] 9879 	push	hl
   37CD 21r07r39      [10] 9880 	ld	hl,#___str_15
   37D0 E5            [11] 9881 	push	hl
   37D1 D5            [11] 9882 	push	de
   37D2 CDr00r00      [17] 9883 	call	_sprintf
   37D5 21 06 00      [10] 9884 	ld	hl,#6
   37D8 39            [11] 9885 	add	hl,sp
   37D9 F9            [ 6] 9886 	ld	sp,hl
                           9887 ;alien6.c:1399: cpc_PrintGphStrXY2X(";;;;;;;;;;;;;;;;;;;;;;;",8*2,11*8);
   37DA 11r1Er39      [10] 9888 	ld	de,#___str_16
   37DD 21 10 58      [10] 9889 	ld	hl,#0x5810
   37E0 E5            [11] 9890 	push	hl
   37E1 D5            [11] 9891 	push	de
   37E2 CDr00r00      [17] 9892 	call	_cpc_PrintGphStrXY2X
   37E5 F1            [10] 9893 	pop	af
   37E6 F1            [10] 9894 	pop	af
                           9895 ;alien6.c:1400: cpc_PrintGphStrXY2X(aux_txt,8*2,13*8);
   37E7 11r96r02      [10] 9896 	ld	de,#_aux_txt
   37EA 21 10 68      [10] 9897 	ld	hl,#0x6810
   37ED E5            [11] 9898 	push	hl
   37EE D5            [11] 9899 	push	de
   37EF CDr00r00      [17] 9900 	call	_cpc_PrintGphStrXY2X
   37F2 F1            [10] 9901 	pop	af
   37F3 F1            [10] 9902 	pop	af
                           9903 ;alien6.c:1401: cpc_PrintGphStrXY2X(";;;;;;;;;;;;;;;;;;;;;;;",8*2,15*8);
   37F4 11r1Er39      [10] 9904 	ld	de,#___str_16
   37F7 21 10 78      [10] 9905 	ld	hl,#0x7810
   37FA E5            [11] 9906 	push	hl
   37FB D5            [11] 9907 	push	de
   37FC CDr00r00      [17] 9908 	call	_cpc_PrintGphStrXY2X
   37FF F1            [10] 9909 	pop	af
   3800 F1            [10] 9910 	pop	af
                           9911 ;alien6.c:1402: while (!cpc_AnyKeyPressed());
   3801                    9912 00101$:
   3801 CDr00r00      [17] 9913 	call	_cpc_AnyKeyPressed
   3804 7C            [ 4] 9914 	ld	a,h
   3805 B5            [ 4] 9915 	or	a,l
   3806 28 F9         [12] 9916 	jr	Z,00101$
                           9917 ;alien6.c:1403: while (cpc_AnyKeyPressed());
   3808                    9918 00104$:
   3808 CDr00r00      [17] 9919 	call	_cpc_AnyKeyPressed
   380B 7C            [ 4] 9920 	ld	a,h
   380C B5            [ 4] 9921 	or	a,l
   380D 20 F9         [12] 9922 	jr	NZ,00104$
                           9923 ;alien6.c:1404: sprintf(aux_txt,";;;;;;;;;VIDAS;:;%02d;",prota.vidas);
   380F 3ArE9r00      [13] 9924 	ld	a, (#(_prota + 0x000f) + 0)
   3812 5F            [ 4] 9925 	ld	e,a
   3813 16 00         [ 7] 9926 	ld	d,#0x00
   3815 21r96r02      [10] 9927 	ld	hl,#_aux_txt
   3818 D5            [11] 9928 	push	de
   3819 01r36r39      [10] 9929 	ld	bc,#___str_17
   381C C5            [11] 9930 	push	bc
   381D E5            [11] 9931 	push	hl
   381E CDr00r00      [17] 9932 	call	_sprintf
   3821 21 06 00      [10] 9933 	ld	hl,#6
   3824 39            [11] 9934 	add	hl,sp
   3825 F9            [ 6] 9935 	ld	sp,hl
                           9936 ;alien6.c:1405: cpc_PrintGphStrXY2X(";;;;;;;;;;;;;;;;;;;;;;;",8*2,11*8);
   3826 11r1Er39      [10] 9937 	ld	de,#___str_16
   3829 21 10 58      [10] 9938 	ld	hl,#0x5810
   382C E5            [11] 9939 	push	hl
   382D D5            [11] 9940 	push	de
   382E CDr00r00      [17] 9941 	call	_cpc_PrintGphStrXY2X
   3831 F1            [10] 9942 	pop	af
   3832 F1            [10] 9943 	pop	af
                           9944 ;alien6.c:1406: cpc_PrintGphStrXY2X(aux_txt,8*2,13*8);
   3833 11r96r02      [10] 9945 	ld	de,#_aux_txt
   3836 21 10 68      [10] 9946 	ld	hl,#0x6810
   3839 E5            [11] 9947 	push	hl
   383A D5            [11] 9948 	push	de
   383B CDr00r00      [17] 9949 	call	_cpc_PrintGphStrXY2X
   383E F1            [10] 9950 	pop	af
   383F F1            [10] 9951 	pop	af
                           9952 ;alien6.c:1407: cpc_PrintGphStrXY2X(";;;;;;;;;;;;;;;;;;;;;;;",8*2,15*8);
   3840 11r1Er39      [10] 9953 	ld	de,#___str_16
   3843 21 10 78      [10] 9954 	ld	hl,#0x7810
   3846 E5            [11] 9955 	push	hl
   3847 D5            [11] 9956 	push	de
   3848 CDr00r00      [17] 9957 	call	_cpc_PrintGphStrXY2X
   384B F1            [10] 9958 	pop	af
   384C F1            [10] 9959 	pop	af
                           9960 ;alien6.c:1408: while (!cpc_AnyKeyPressed());
   384D                    9961 00107$:
   384D CDr00r00      [17] 9962 	call	_cpc_AnyKeyPressed
   3850 7C            [ 4] 9963 	ld	a,h
   3851 B5            [ 4] 9964 	or	a,l
   3852 28 F9         [12] 9965 	jr	Z,00107$
                           9966 ;alien6.c:1409: while (cpc_AnyKeyPressed());
   3854                    9967 00110$:
   3854 CDr00r00      [17] 9968 	call	_cpc_AnyKeyPressed
   3857 7C            [ 4] 9969 	ld	a,h
   3858 B5            [ 4] 9970 	or	a,l
   3859 20 F9         [12] 9971 	jr	NZ,00110$
                           9972 ;alien6.c:1410: if (prota.vidas){
   385B 3ArE9r00      [13] 9973 	ld	a,(#(_prota + 0x000f) + 0)
   385E B7            [ 4] 9974 	or	a, a
   385F CAr03r39      [10] 9975 	jp	Z,00126$
                           9976 ;alien6.c:1411: sprintf(aux_txt,";;;NIVEL;ACTUAL;:;%02d;",nivel);
   3862 21r94r02      [10] 9977 	ld	hl,#_nivel + 0
   3865 5E            [ 7] 9978 	ld	e, (hl)
   3866 3Ar94r02      [13] 9979 	ld	a,(#_nivel + 0)
   3869 17            [ 4] 9980 	rla
   386A 9F            [ 4] 9981 	sbc	a, a
   386B 57            [ 4] 9982 	ld	d,a
   386C 21r96r02      [10] 9983 	ld	hl,#_aux_txt
   386F D5            [11] 9984 	push	de
   3870 01r4Dr39      [10] 9985 	ld	bc,#___str_18
   3873 C5            [11] 9986 	push	bc
   3874 E5            [11] 9987 	push	hl
   3875 CDr00r00      [17] 9988 	call	_sprintf
   3878 21 06 00      [10] 9989 	ld	hl,#6
   387B 39            [11] 9990 	add	hl,sp
   387C F9            [ 6] 9991 	ld	sp,hl
                           9992 ;alien6.c:1412: cpc_PrintGphStrXY2X(";;;;;;;;;;;;;;;;;;;;;;;",8*2,11*8);
   387D 11r1Er39      [10] 9993 	ld	de,#___str_16
   3880 21 10 58      [10] 9994 	ld	hl,#0x5810
   3883 E5            [11] 9995 	push	hl
   3884 D5            [11] 9996 	push	de
   3885 CDr00r00      [17] 9997 	call	_cpc_PrintGphStrXY2X
   3888 F1            [10] 9998 	pop	af
   3889 F1            [10] 9999 	pop	af
                          10000 ;alien6.c:1413: cpc_PrintGphStrXY2X(aux_txt,8*2,13*8);
   388A 11r96r02      [10]10001 	ld	de,#_aux_txt
   388D 21 10 68      [10]10002 	ld	hl,#0x6810
   3890 E5            [11]10003 	push	hl
   3891 D5            [11]10004 	push	de
   3892 CDr00r00      [17]10005 	call	_cpc_PrintGphStrXY2X
   3895 F1            [10]10006 	pop	af
   3896 F1            [10]10007 	pop	af
                          10008 ;alien6.c:1414: cpc_PrintGphStrXY2X(";;;;;;;;;;;;;;;;;;;;;;;",8*2,15*8);
   3897 11r1Er39      [10]10009 	ld	de,#___str_16
   389A 21 10 78      [10]10010 	ld	hl,#0x7810
   389D E5            [11]10011 	push	hl
   389E D5            [11]10012 	push	de
   389F CDr00r00      [17]10013 	call	_cpc_PrintGphStrXY2X
   38A2 F1            [10]10014 	pop	af
   38A3 F1            [10]10015 	pop	af
                          10016 ;alien6.c:1415: while (!cpc_AnyKeyPressed());
   38A4                   10017 00113$:
   38A4 CDr00r00      [17]10018 	call	_cpc_AnyKeyPressed
   38A7 7C            [ 4]10019 	ld	a,h
   38A8 B5            [ 4]10020 	or	a,l
   38A9 28 F9         [12]10021 	jr	Z,00113$
                          10022 ;alien6.c:1416: while (cpc_AnyKeyPressed());
   38AB                   10023 00116$:
   38AB CDr00r00      [17]10024 	call	_cpc_AnyKeyPressed
   38AE 7C            [ 4]10025 	ld	a,h
   38AF B5            [ 4]10026 	or	a,l
   38B0 20 F9         [12]10027 	jr	NZ,00116$
                          10028 ;alien6.c:1417: cpc_PrintGphStrXY2X(";;;;;;;;;;;;;;;;;;;;;;;",8*2,11*8);
   38B2 11r1Er39      [10]10029 	ld	de,#___str_16
   38B5 21 10 58      [10]10030 	ld	hl,#0x5810
   38B8 E5            [11]10031 	push	hl
   38B9 D5            [11]10032 	push	de
   38BA CDr00r00      [17]10033 	call	_cpc_PrintGphStrXY2X
   38BD F1            [10]10034 	pop	af
   38BE F1            [10]10035 	pop	af
                          10036 ;alien6.c:1418: cpc_PrintGphStrXY2X(";;;;;;;PREPARADO;;;;;;;",8*2,13*8);
   38BF 11r65r39      [10]10037 	ld	de,#___str_19
   38C2 21 10 68      [10]10038 	ld	hl,#0x6810
   38C5 E5            [11]10039 	push	hl
   38C6 D5            [11]10040 	push	de
   38C7 CDr00r00      [17]10041 	call	_cpc_PrintGphStrXY2X
   38CA F1            [10]10042 	pop	af
   38CB F1            [10]10043 	pop	af
                          10044 ;alien6.c:1419: cpc_PrintGphStrXY2X(";;;;;;;;;;;;;;;;;;;;;;;",8*2,15*8);
   38CC 11r1Er39      [10]10045 	ld	de,#___str_16
   38CF 21 10 78      [10]10046 	ld	hl,#0x7810
   38D2 E5            [11]10047 	push	hl
   38D3 D5            [11]10048 	push	de
   38D4 CDr00r00      [17]10049 	call	_cpc_PrintGphStrXY2X
   38D7 F1            [10]10050 	pop	af
                          10051 ;alien6.c:1420: pause(6);
   38D8 26 06         [ 7]10052 	ld	h,#0x06
   38DA E3            [19]10053 	ex	(sp),hl
   38DB 33            [ 6]10054 	inc	sp
   38DC CDrA5r07      [17]10055 	call	_pause
   38DF 33            [ 6]10056 	inc	sp
                          10057 ;alien6.c:1421: while (!cpc_AnyKeyPressed());
   38E0                   10058 00119$:
   38E0 CDr00r00      [17]10059 	call	_cpc_AnyKeyPressed
   38E3 7C            [ 4]10060 	ld	a,h
   38E4 B5            [ 4]10061 	or	a,l
   38E5 28 F9         [12]10062 	jr	Z,00119$
                          10063 ;alien6.c:1422: while (cpc_AnyKeyPressed());
   38E7                   10064 00122$:
   38E7 CDr00r00      [17]10065 	call	_cpc_AnyKeyPressed
   38EA FD 21 00 00   [14]10066 	ld	iy,#0
   38EE FD 39         [15]10067 	add	iy,sp
   38F0 FD 74 01      [19]10068 	ld	1 (iy),h
   38F3 FD 75 00      [19]10069 	ld	0 (iy),l
   38F6 21 01 00      [10]10070 	ld	hl, #0+1
   38F9 39            [11]10071 	add	hl, sp
   38FA 7E            [ 7]10072 	ld	a, (hl)
   38FB 2B            [ 6]10073 	dec	hl
   38FC B6            [ 7]10074 	or	a,(hl)
   38FD 20 E8         [12]10075 	jr	NZ,00122$
                          10076 ;alien6.c:1423: return STATE_GAME;
   38FF 2E 04         [ 7]10077 	ld	l,#0x04
   3901 18 02         [12]10078 	jr	00128$
   3903                   10079 00126$:
                          10080 ;alien6.c:1425: return STATE_LOSE; 
   3903 2E 07         [ 7]10081 	ld	l,#0x07
   3905                   10082 00128$:
   3905 F1            [10]10083 	pop	af
   3906 C9            [10]10084 	ret
   3907                   10085 _protaDead_end::
   3907                   10086 ___str_15:
   3907 3B 3B 3B 50 55 4E 10087 	.ascii ";;;PUNTUACION:;%05d;;;"
        54 55 41 43 49 4F
        4E 3A 3B 25 30 35
        64 3B 3B 3B
   391D 00                10088 	.db 0x00
   391E                   10089 ___str_16:
   391E 3B 3B 3B 3B 3B 3B 10090 	.ascii ";;;;;;;;;;;;;;;;;;;;;;;"
        3B 3B 3B 3B 3B 3B
        3B 3B 3B 3B 3B 3B
        3B 3B 3B 3B 3B
   3935 00                10091 	.db 0x00
   3936                   10092 ___str_17:
   3936 3B 3B 3B 3B 3B 3B 10093 	.ascii ";;;;;;;;;VIDAS;:;%02d;"
        3B 3B 3B 56 49 44
        41 53 3B 3A 3B 25
        30 32 64 3B
   394C 00                10094 	.db 0x00
   394D                   10095 ___str_18:
   394D 3B 3B 3B 4E 49 56 10096 	.ascii ";;;NIVEL;ACTUAL;:;%02d;"
        45 4C 3B 41 43 54
        55 41 4C 3B 3A 3B
        25 30 32 64 3B
   3964 00                10097 	.db 0x00
   3965                   10098 ___str_19:
   3965 3B 3B 3B 3B 3B 3B 10099 	.ascii ";;;;;;;PREPARADO;;;;;;;"
        3B 50 52 45 50 41
        52 41 44 4F 3B 3B
        3B 3B 3B 3B 3B
   397C 00                10100 	.db 0x00
                          10101 ;alien6.c:1428: char win()
                          10102 ;	---------------------------------
                          10103 ; Function win
                          10104 ; ---------------------------------
   397D                   10105 _win_start::
   397D                   10106 _win:
                          10107 ;alien6.c:1430: letrasColorAzul();
   397D CDr5Ar08      [17]10108 	call	_letrasColorAzul
                          10109 ;alien6.c:1431: sprintf(aux_txt,"PUNTUACION;FINAL:;%05d",score);
   3980 11r96r02      [10]10110 	ld	de,#_aux_txt
   3983 2Ar6Dr03      [16]10111 	ld	hl,(_score)
   3986 E5            [11]10112 	push	hl
   3987 21r08r3A      [10]10113 	ld	hl,#___str_20
   398A E5            [11]10114 	push	hl
   398B D5            [11]10115 	push	de
   398C CDr00r00      [17]10116 	call	_sprintf
   398F 21 06 00      [10]10117 	ld	hl,#6
   3992 39            [11]10118 	add	hl,sp
   3993 F9            [ 6]10119 	ld	sp,hl
                          10120 ;alien6.c:1432: cpc_PrintGphStrXY2X(";;;;;;;;;;;;;;;;;;;;;;;",8*2,13*8);
   3994 11r1Fr3A      [10]10121 	ld	de,#___str_21
   3997 21 10 68      [10]10122 	ld	hl,#0x6810
   399A E5            [11]10123 	push	hl
   399B D5            [11]10124 	push	de
   399C CDr00r00      [17]10125 	call	_cpc_PrintGphStrXY2X
   399F F1            [10]10126 	pop	af
   39A0 F1            [10]10127 	pop	af
                          10128 ;alien6.c:1433: cpc_PrintGphStrXY2X(aux_txt,8*2,14*8);
   39A1 11r96r02      [10]10129 	ld	de,#_aux_txt
   39A4 21 10 70      [10]10130 	ld	hl,#0x7010
   39A7 E5            [11]10131 	push	hl
   39A8 D5            [11]10132 	push	de
   39A9 CDr00r00      [17]10133 	call	_cpc_PrintGphStrXY2X
   39AC F1            [10]10134 	pop	af
   39AD F1            [10]10135 	pop	af
                          10136 ;alien6.c:1434: cpc_PrintGphStrXY2X(";;;;;;;;;;;;;;;;;;;;;;;",8*2,15*8);
   39AE 11r1Fr3A      [10]10137 	ld	de,#___str_21
   39B1 21 10 78      [10]10138 	ld	hl,#0x7810
   39B4 E5            [11]10139 	push	hl
   39B5 D5            [11]10140 	push	de
   39B6 CDr00r00      [17]10141 	call	_cpc_PrintGphStrXY2X
   39B9 F1            [10]10142 	pop	af
   39BA F1            [10]10143 	pop	af
                          10144 ;alien6.c:1435: while (!cpc_AnyKeyPressed());
   39BB                   10145 00101$:
   39BB CDr00r00      [17]10146 	call	_cpc_AnyKeyPressed
   39BE 7C            [ 4]10147 	ld	a,h
   39BF B5            [ 4]10148 	or	a,l
   39C0 28 F9         [12]10149 	jr	Z,00101$
                          10150 ;alien6.c:1436: while (cpc_AnyKeyPressed());
   39C2                   10151 00104$:
   39C2 CDr00r00      [17]10152 	call	_cpc_AnyKeyPressed
   39C5 7C            [ 4]10153 	ld	a,h
   39C6 B5            [ 4]10154 	or	a,l
   39C7 20 F9         [12]10155 	jr	NZ,00104$
                          10156 ;alien6.c:1437: cpc_PrintGphStrXY2X(";;;;;;;;;;;;;;;;;;;;;;;",8*2,13*8);
   39C9 11r1Fr3A      [10]10157 	ld	de,#___str_21
   39CC 21 10 68      [10]10158 	ld	hl,#0x6810
   39CF E5            [11]10159 	push	hl
   39D0 D5            [11]10160 	push	de
   39D1 CDr00r00      [17]10161 	call	_cpc_PrintGphStrXY2X
   39D4 F1            [10]10162 	pop	af
   39D5 F1            [10]10163 	pop	af
                          10164 ;alien6.c:1438: cpc_PrintGphStrXY2X(";;;;;;;GAME;OVER;;;;;;;",8*2,14*8);
   39D6 11r37r3A      [10]10165 	ld	de,#___str_22
   39D9 21 10 70      [10]10166 	ld	hl,#0x7010
   39DC E5            [11]10167 	push	hl
   39DD D5            [11]10168 	push	de
   39DE CDr00r00      [17]10169 	call	_cpc_PrintGphStrXY2X
   39E1 F1            [10]10170 	pop	af
   39E2 F1            [10]10171 	pop	af
                          10172 ;alien6.c:1439: cpc_PrintGphStrXY2X(";;;;;;;;;;;;;;;;;;;;;;;",8*2,13*8);
   39E3 11r1Fr3A      [10]10173 	ld	de,#___str_21
   39E6 21 10 68      [10]10174 	ld	hl,#0x6810
   39E9 E5            [11]10175 	push	hl
   39EA D5            [11]10176 	push	de
   39EB CDr00r00      [17]10177 	call	_cpc_PrintGphStrXY2X
   39EE F1            [10]10178 	pop	af
                          10179 ;alien6.c:1440: pause(6);
   39EF 26 06         [ 7]10180 	ld	h,#0x06
   39F1 E3            [19]10181 	ex	(sp),hl
   39F2 33            [ 6]10182 	inc	sp
   39F3 CDrA5r07      [17]10183 	call	_pause
   39F6 33            [ 6]10184 	inc	sp
                          10185 ;alien6.c:1442: while (!cpc_AnyKeyPressed());
   39F7                   10186 00107$:
   39F7 CDr00r00      [17]10187 	call	_cpc_AnyKeyPressed
   39FA 7C            [ 4]10188 	ld	a,h
   39FB B5            [ 4]10189 	or	a,l
   39FC 28 F9         [12]10190 	jr	Z,00107$
                          10191 ;alien6.c:1443: while (cpc_AnyKeyPressed());
   39FE                   10192 00110$:
   39FE CDr00r00      [17]10193 	call	_cpc_AnyKeyPressed
   3A01 7C            [ 4]10194 	ld	a,h
   3A02 B5            [ 4]10195 	or	a,l
   3A03 20 F9         [12]10196 	jr	NZ,00110$
                          10197 ;alien6.c:1445: return STATE_MENU; 
   3A05 2E 02         [ 7]10198 	ld	l,#0x02
   3A07 C9            [10]10199 	ret
   3A08                   10200 _win_end::
   3A08                   10201 ___str_20:
   3A08 50 55 4E 54 55 41 10202 	.ascii "PUNTUACION;FINAL:;%05d"
        43 49 4F 4E 3B 46
        49 4E 41 4C 3A 3B
        25 30 35 64
   3A1E 00                10203 	.db 0x00
   3A1F                   10204 ___str_21:
   3A1F 3B 3B 3B 3B 3B 3B 10205 	.ascii ";;;;;;;;;;;;;;;;;;;;;;;"
        3B 3B 3B 3B 3B 3B
        3B 3B 3B 3B 3B 3B
        3B 3B 3B 3B 3B
   3A36 00                10206 	.db 0x00
   3A37                   10207 ___str_22:
   3A37 3B 3B 3B 3B 3B 3B 10208 	.ascii ";;;;;;;GAME;OVER;;;;;;;"
        3B 47 41 4D 45 3B
        4F 56 45 52 3B 3B
        3B 3B 3B 3B 3B
   3A4E 00                10209 	.db 0x00
                          10210 ;alien6.c:1448: unsigned char redefineKeys()
                          10211 ;	---------------------------------
                          10212 ; Function redefineKeys
                          10213 ; ---------------------------------
   3A4F                   10214 _redefineKeys_start::
   3A4F                   10215 _redefineKeys:
                          10216 ;alien6.c:1451: cpc_SetMode(0);				//hardware call to set mode 1
   3A4F AF            [ 4]10217 	xor	a, a
   3A50 F5            [11]10218 	push	af
   3A51 33            [ 6]10219 	inc	sp
   3A52 CDr00r00      [17]10220 	call	_cpc_SetMode
   3A55 33            [ 6]10221 	inc	sp
                          10222 ;alien6.c:1452: cpc_ClrScr();				//fills scr with ink 0
   3A56 CDr00r00      [17]10223 	call	_cpc_ClrScr
                          10224 ;alien6.c:1454: letrasColorAzul();
   3A59 CDr5Ar08      [17]10225 	call	_letrasColorAzul
                          10226 ;alien6.c:1456: cpc_PrintGphStrXY("PULSA;PARA",12*2,15*8);
   3A5C 11r1Er3B      [10]10227 	ld	de,#___str_23
   3A5F 21 18 78      [10]10228 	ld	hl,#0x7818
   3A62 E5            [11]10229 	push	hl
   3A63 D5            [11]10230 	push	de
   3A64 CDr00r00      [17]10231 	call	_cpc_PrintGphStrXY
   3A67 F1            [10]10232 	pop	af
   3A68 F1            [10]10233 	pop	af
                          10234 ;alien6.c:1457: letrasColorRojo();
   3A69 CDr7Fr08      [17]10235 	call	_letrasColorRojo
                          10236 ;alien6.c:1459: cpc_PrintGphStrXY("IZQUIERDA",12*2,17*8);
   3A6C 11r29r3B      [10]10237 	ld	de,#___str_24
   3A6F 21 18 88      [10]10238 	ld	hl,#0x8818
   3A72 E5            [11]10239 	push	hl
   3A73 D5            [11]10240 	push	de
   3A74 CDr00r00      [17]10241 	call	_cpc_PrintGphStrXY
   3A77 F1            [10]10242 	pop	af
   3A78 F1            [10]10243 	pop	af
                          10244 ;alien6.c:1460: cpc_RedefineKey(KEY_LEFT);
   3A79 AF            [ 4]10245 	xor	a, a
   3A7A F5            [11]10246 	push	af
   3A7B 33            [ 6]10247 	inc	sp
   3A7C CDr00r00      [17]10248 	call	_cpc_RedefineKey
   3A7F 33            [ 6]10249 	inc	sp
                          10250 ;alien6.c:1461: cpc_WyzStartEffect(2,1);	//(Channel, SFX #)
   3A80 21 02 01      [10]10251 	ld	hl,#0x0102
   3A83 E5            [11]10252 	push	hl
   3A84 CDr00r00      [17]10253 	call	_cpc_WyzStartEffect
                          10254 ;alien6.c:1462: pause(6);
   3A87 26 06         [ 7]10255 	ld	h,#0x06
   3A89 E3            [19]10256 	ex	(sp),hl
   3A8A 33            [ 6]10257 	inc	sp
   3A8B CDrA5r07      [17]10258 	call	_pause
   3A8E 33            [ 6]10259 	inc	sp
                          10260 ;alien6.c:1463: cpc_PrintGphStrXY("DERECHA;;",12*2,17*8);
   3A8F 11r33r3B      [10]10261 	ld	de,#___str_25
   3A92 21 18 88      [10]10262 	ld	hl,#0x8818
   3A95 E5            [11]10263 	push	hl
   3A96 D5            [11]10264 	push	de
   3A97 CDr00r00      [17]10265 	call	_cpc_PrintGphStrXY
   3A9A F1            [10]10266 	pop	af
                          10267 ;alien6.c:1464: cpc_RedefineKey(KEY_RIGHT);
   3A9B 26 01         [ 7]10268 	ld	h,#0x01
   3A9D E3            [19]10269 	ex	(sp),hl
   3A9E 33            [ 6]10270 	inc	sp
   3A9F CDr00r00      [17]10271 	call	_cpc_RedefineKey
   3AA2 33            [ 6]10272 	inc	sp
                          10273 ;alien6.c:1465: cpc_WyzStartEffect(2,1);	//(Channel, SFX #)
   3AA3 21 02 01      [10]10274 	ld	hl,#0x0102
   3AA6 E5            [11]10275 	push	hl
   3AA7 CDr00r00      [17]10276 	call	_cpc_WyzStartEffect
                          10277 ;alien6.c:1466: pause(6);
   3AAA 26 06         [ 7]10278 	ld	h,#0x06
   3AAC E3            [19]10279 	ex	(sp),hl
   3AAD 33            [ 6]10280 	inc	sp
   3AAE CDrA5r07      [17]10281 	call	_pause
   3AB1 33            [ 6]10282 	inc	sp
                          10283 ;alien6.c:1467: cpc_PrintGphStrXY("ARRIBA;;;",12*2,17*8);
   3AB2 11r3Dr3B      [10]10284 	ld	de,#___str_26
   3AB5 21 18 88      [10]10285 	ld	hl,#0x8818
   3AB8 E5            [11]10286 	push	hl
   3AB9 D5            [11]10287 	push	de
   3ABA CDr00r00      [17]10288 	call	_cpc_PrintGphStrXY
   3ABD F1            [10]10289 	pop	af
                          10290 ;alien6.c:1468: cpc_RedefineKey(KEY_UP);
   3ABE 26 02         [ 7]10291 	ld	h,#0x02
   3AC0 E3            [19]10292 	ex	(sp),hl
   3AC1 33            [ 6]10293 	inc	sp
   3AC2 CDr00r00      [17]10294 	call	_cpc_RedefineKey
   3AC5 33            [ 6]10295 	inc	sp
                          10296 ;alien6.c:1469: cpc_WyzStartEffect(2,1);	//(Channel, SFX #)
   3AC6 21 02 01      [10]10297 	ld	hl,#0x0102
   3AC9 E5            [11]10298 	push	hl
   3ACA CDr00r00      [17]10299 	call	_cpc_WyzStartEffect
                          10300 ;alien6.c:1470: pause(6);
   3ACD 26 06         [ 7]10301 	ld	h,#0x06
   3ACF E3            [19]10302 	ex	(sp),hl
   3AD0 33            [ 6]10303 	inc	sp
   3AD1 CDrA5r07      [17]10304 	call	_pause
   3AD4 33            [ 6]10305 	inc	sp
                          10306 ;alien6.c:1471: cpc_PrintGphStrXY("ABAJO;;;;",12*2,17*8);
   3AD5 11r47r3B      [10]10307 	ld	de,#___str_27
   3AD8 21 18 88      [10]10308 	ld	hl,#0x8818
   3ADB E5            [11]10309 	push	hl
   3ADC D5            [11]10310 	push	de
   3ADD CDr00r00      [17]10311 	call	_cpc_PrintGphStrXY
   3AE0 F1            [10]10312 	pop	af
                          10313 ;alien6.c:1472: cpc_RedefineKey(KEY_DOWN);
   3AE1 26 03         [ 7]10314 	ld	h,#0x03
   3AE3 E3            [19]10315 	ex	(sp),hl
   3AE4 33            [ 6]10316 	inc	sp
   3AE5 CDr00r00      [17]10317 	call	_cpc_RedefineKey
   3AE8 33            [ 6]10318 	inc	sp
                          10319 ;alien6.c:1473: cpc_WyzStartEffect(2,1);	//(Channel, SFX #)
   3AE9 21 02 01      [10]10320 	ld	hl,#0x0102
   3AEC E5            [11]10321 	push	hl
   3AED CDr00r00      [17]10322 	call	_cpc_WyzStartEffect
                          10323 ;alien6.c:1474: pause(6);
   3AF0 26 06         [ 7]10324 	ld	h,#0x06
   3AF2 E3            [19]10325 	ex	(sp),hl
   3AF3 33            [ 6]10326 	inc	sp
   3AF4 CDrA5r07      [17]10327 	call	_pause
   3AF7 33            [ 6]10328 	inc	sp
                          10329 ;alien6.c:1475: cpc_PrintGphStrXY("DISPARO;;;",12*2,17*8);
   3AF8 11r51r3B      [10]10330 	ld	de,#___str_28
   3AFB 21 18 88      [10]10331 	ld	hl,#0x8818
   3AFE E5            [11]10332 	push	hl
   3AFF D5            [11]10333 	push	de
   3B00 CDr00r00      [17]10334 	call	_cpc_PrintGphStrXY
   3B03 F1            [10]10335 	pop	af
                          10336 ;alien6.c:1476: cpc_RedefineKey(KEY_FIRE);
   3B04 26 04         [ 7]10337 	ld	h,#0x04
   3B06 E3            [19]10338 	ex	(sp),hl
   3B07 33            [ 6]10339 	inc	sp
   3B08 CDr00r00      [17]10340 	call	_cpc_RedefineKey
   3B0B 33            [ 6]10341 	inc	sp
                          10342 ;alien6.c:1477: cpc_WyzStartEffect(2,1);	//(Channel, SFX #)
   3B0C 21 02 01      [10]10343 	ld	hl,#0x0102
   3B0F E5            [11]10344 	push	hl
   3B10 CDr00r00      [17]10345 	call	_cpc_WyzStartEffect
                          10346 ;alien6.c:1478: pause(6);
   3B13 26 06         [ 7]10347 	ld	h,#0x06
   3B15 E3            [19]10348 	ex	(sp),hl
   3B16 33            [ 6]10349 	inc	sp
   3B17 CDrA5r07      [17]10350 	call	_pause
   3B1A 33            [ 6]10351 	inc	sp
                          10352 ;alien6.c:1480: return STATE_MENU;
   3B1B 2E 02         [ 7]10353 	ld	l,#0x02
   3B1D C9            [10]10354 	ret
   3B1E                   10355 _redefineKeys_end::
   3B1E                   10356 ___str_23:
   3B1E 50 55 4C 53 41 3B 10357 	.ascii "PULSA;PARA"
        50 41 52 41
   3B28 00                10358 	.db 0x00
   3B29                   10359 ___str_24:
   3B29 49 5A 51 55 49 45 10360 	.ascii "IZQUIERDA"
        52 44 41
   3B32 00                10361 	.db 0x00
   3B33                   10362 ___str_25:
   3B33 44 45 52 45 43 48 10363 	.ascii "DERECHA;;"
        41 3B 3B
   3B3C 00                10364 	.db 0x00
   3B3D                   10365 ___str_26:
   3B3D 41 52 52 49 42 41 10366 	.ascii "ARRIBA;;;"
        3B 3B 3B
   3B46 00                10367 	.db 0x00
   3B47                   10368 ___str_27:
   3B47 41 42 41 4A 4F 3B 10369 	.ascii "ABAJO;;;;"
        3B 3B 3B
   3B50 00                10370 	.db 0x00
   3B51                   10371 ___str_28:
   3B51 44 49 53 50 41 52 10372 	.ascii "DISPARO;;;"
        4F 3B 3B 3B
   3B5B 00                10373 	.db 0x00
                          10374 ;alien6.c:1483: void pintarMenu(){
                          10375 ;	---------------------------------
                          10376 ; Function pintarMenu
                          10377 ; ---------------------------------
   3B5C                   10378 _pintarMenu_start::
   3B5C                   10379 _pintarMenu:
                          10380 ;alien6.c:1484: cpc_ClrScr();				//fills scr with ink 0
   3B5C CDr00r00      [17]10381 	call	_cpc_ClrScr
                          10382 ;alien6.c:1485: cpc_SetMode(0);				//hardware call to set mode 1
   3B5F AF            [ 4]10383 	xor	a, a
   3B60 F5            [11]10384 	push	af
   3B61 33            [ 6]10385 	inc	sp
   3B62 CDr00r00      [17]10386 	call	_cpc_SetMode
   3B65 33            [ 6]10387 	inc	sp
                          10388 ;alien6.c:1487: letrasColorRojo();
   3B66 CDr7Fr08      [17]10389 	call	_letrasColorRojo
                          10390 ;alien6.c:1488: cpc_PrintGphStrXY("SPACE;RETRO;INVADERS",20, 1*16);
   3B69 11rCBr3B      [10]10391 	ld	de,#___str_29
   3B6C 21 14 10      [10]10392 	ld	hl,#0x1014
   3B6F E5            [11]10393 	push	hl
   3B70 D5            [11]10394 	push	de
   3B71 CDr00r00      [17]10395 	call	_cpc_PrintGphStrXY
   3B74 F1            [10]10396 	pop	af
   3B75 F1            [10]10397 	pop	af
                          10398 ;alien6.c:1489: letrasColorAzul();
   3B76 CDr5Ar08      [17]10399 	call	_letrasColorAzul
                          10400 ;alien6.c:1490: cpc_PrintGphStrXY("1;JUGAR",    30, 4*16);
   3B79 11rE0r3B      [10]10401 	ld	de,#___str_30
   3B7C 21 1E 40      [10]10402 	ld	hl,#0x401E
   3B7F E5            [11]10403 	push	hl
   3B80 D5            [11]10404 	push	de
   3B81 CDr00r00      [17]10405 	call	_cpc_PrintGphStrXY
   3B84 F1            [10]10406 	pop	af
   3B85 F1            [10]10407 	pop	af
                          10408 ;alien6.c:1491: cpc_PrintGphStrXY("2;AYUDA",    30, 5*16);
   3B86 11rE8r3B      [10]10409 	ld	de,#___str_31
   3B89 21 1E 50      [10]10410 	ld	hl,#0x501E
   3B8C E5            [11]10411 	push	hl
   3B8D D5            [11]10412 	push	de
   3B8E CDr00r00      [17]10413 	call	_cpc_PrintGphStrXY
   3B91 F1            [10]10414 	pop	af
   3B92 F1            [10]10415 	pop	af
                          10416 ;alien6.c:1492: cpc_PrintGphStrXY("3;REDEFINIR;TECLAS",    30, 6*16);
   3B93 11rF0r3B      [10]10417 	ld	de,#___str_32
   3B96 21 1E 60      [10]10418 	ld	hl,#0x601E
   3B99 E5            [11]10419 	push	hl
   3B9A D5            [11]10420 	push	de
   3B9B CDr00r00      [17]10421 	call	_cpc_PrintGphStrXY
   3B9E F1            [10]10422 	pop	af
   3B9F F1            [10]10423 	pop	af
                          10424 ;alien6.c:1493: cpc_PrintGphStrXY("ESC;SALIR",  30, 7*16);
   3BA0 11r03r3C      [10]10425 	ld	de,#___str_33
   3BA3 21 1E 70      [10]10426 	ld	hl,#0x701E
   3BA6 E5            [11]10427 	push	hl
   3BA7 D5            [11]10428 	push	de
   3BA8 CDr00r00      [17]10429 	call	_cpc_PrintGphStrXY
   3BAB F1            [10]10430 	pop	af
   3BAC F1            [10]10431 	pop	af
                          10432 ;alien6.c:1495: cpc_PrintGphStrXY("C;2014;GLASNOST;CORP", 20, 10*16);
   3BAD 11r0Dr3C      [10]10433 	ld	de,#___str_34
   3BB0 21 14 A0      [10]10434 	ld	hl,#0xA014
   3BB3 E5            [11]10435 	push	hl
   3BB4 D5            [11]10436 	push	de
   3BB5 CDr00r00      [17]10437 	call	_cpc_PrintGphStrXY
   3BB8 F1            [10]10438 	pop	af
   3BB9 F1            [10]10439 	pop	af
                          10440 ;alien6.c:1496: letrasColorRojo();
   3BBA CDr7Fr08      [17]10441 	call	_letrasColorRojo
                          10442 ;alien6.c:1497: cpc_PrintGphStrXY("JOHN;LOBO", 31, 11*16);
   3BBD 11r22r3C      [10]10443 	ld	de,#___str_35
   3BC0 21 1F B0      [10]10444 	ld	hl,#0xB01F
   3BC3 E5            [11]10445 	push	hl
   3BC4 D5            [11]10446 	push	de
   3BC5 CDr00r00      [17]10447 	call	_cpc_PrintGphStrXY
   3BC8 F1            [10]10448 	pop	af
   3BC9 F1            [10]10449 	pop	af
   3BCA C9            [10]10450 	ret
   3BCB                   10451 _pintarMenu_end::
   3BCB                   10452 ___str_29:
   3BCB 53 50 41 43 45 3B 10453 	.ascii "SPACE;RETRO;INVADERS"
        52 45 54 52 4F 3B
        49 4E 56 41 44 45
        52 53
   3BDF 00                10454 	.db 0x00
   3BE0                   10455 ___str_30:
   3BE0 31 3B 4A 55 47 41 10456 	.ascii "1;JUGAR"
        52
   3BE7 00                10457 	.db 0x00
   3BE8                   10458 ___str_31:
   3BE8 32 3B 41 59 55 44 10459 	.ascii "2;AYUDA"
        41
   3BEF 00                10460 	.db 0x00
   3BF0                   10461 ___str_32:
   3BF0 33 3B 52 45 44 45 10462 	.ascii "3;REDEFINIR;TECLAS"
        46 49 4E 49 52 3B
        54 45 43 4C 41 53
   3C02 00                10463 	.db 0x00
   3C03                   10464 ___str_33:
   3C03 45 53 43 3B 53 41 10465 	.ascii "ESC;SALIR"
        4C 49 52
   3C0C 00                10466 	.db 0x00
   3C0D                   10467 ___str_34:
   3C0D 43 3B 32 30 31 34 10468 	.ascii "C;2014;GLASNOST;CORP"
        3B 47 4C 41 53 4E
        4F 53 54 3B 43 4F
        52 50
   3C21 00                10469 	.db 0x00
   3C22                   10470 ___str_35:
   3C22 4A 4F 48 4E 3B 4C 10471 	.ascii "JOHN;LOBO"
        4F 42 4F
   3C2B 00                10472 	.db 0x00
                          10473 ;alien6.c:1500: char menu() {
                          10474 ;	---------------------------------
                          10475 ; Function menu
                          10476 ; ---------------------------------
   3C2C                   10477 _menu_start::
   3C2C                   10478 _menu:
   3C2C 3B            [ 6]10479 	dec	sp
                          10480 ;alien6.c:1501: char choice=-1;
   3C2D FD 21 00 00   [14]10481 	ld	iy,#0
   3C31 FD 39         [15]10482 	add	iy,sp
   3C33 FD 36 00 FF   [19]10483 	ld	0 (iy),#0xFF
                          10484 ;alien6.c:1504: pintarMenu();
   3C37 CDr5Cr3B      [17]10485 	call	_pintarMenu
                          10486 ;alien6.c:1506: while (choice==-1) {
   3C3A                   10487 00112$:
   3C3A 21 00 00      [10]10488 	ld	hl, #0+0
   3C3D 39            [11]10489 	add	hl, sp
   3C3E 7E            [ 7]10490 	ld	a, (hl)
   3C3F 3C            [ 4]10491 	inc	a
   3C40 20 6D         [12]10492 	jr	NZ,00115$
                          10493 ;alien6.c:1507: cpc_ScanKeyboard();
   3C42 CDr00r00      [17]10494 	call	_cpc_ScanKeyboard
                          10495 ;alien6.c:1509: if (cpc_TestKey(KEY_ME1)==1){
   3C45 3E 06         [ 7]10496 	ld	a,#0x06
   3C47 F5            [11]10497 	push	af
   3C48 33            [ 6]10498 	inc	sp
   3C49 CDr00r00      [17]10499 	call	_cpc_TestKey
   3C4C 33            [ 6]10500 	inc	sp
   3C4D 2D            [ 4]10501 	dec	l
   3C4E 20 0D         [12]10502 	jr	NZ,00102$
                          10503 ;alien6.c:1510: inicializarPartida();
   3C50 CDrB9r33      [17]10504 	call	_inicializarPartida
                          10505 ;alien6.c:1511: choice=STATE_GAME;
   3C53 FD 21 00 00   [14]10506 	ld	iy,#0
   3C57 FD 39         [15]10507 	add	iy,sp
   3C59 FD 36 00 04   [19]10508 	ld	0 (iy),#0x04
   3C5D                   10509 00102$:
                          10510 ;alien6.c:1513: if (cpc_TestKey(KEY_ME2)==1)   
   3C5D 3E 07         [ 7]10511 	ld	a,#0x07
   3C5F F5            [11]10512 	push	af
   3C60 33            [ 6]10513 	inc	sp
   3C61 CDr00r00      [17]10514 	call	_cpc_TestKey
   3C64 33            [ 6]10515 	inc	sp
   3C65 2D            [ 4]10516 	dec	l
   3C66 20 0A         [12]10517 	jr	NZ,00104$
                          10518 ;alien6.c:1514: choice=STATE_HELP;
   3C68 FD 21 00 00   [14]10519 	ld	iy,#0
   3C6C FD 39         [15]10520 	add	iy,sp
   3C6E FD 36 00 03   [19]10521 	ld	0 (iy),#0x03
   3C72                   10522 00104$:
                          10523 ;alien6.c:1515: if (cpc_TestKey(KEY_ME3)==1)   
   3C72 3E 08         [ 7]10524 	ld	a,#0x08
   3C74 F5            [11]10525 	push	af
   3C75 33            [ 6]10526 	inc	sp
   3C76 CDr00r00      [17]10527 	call	_cpc_TestKey
   3C79 33            [ 6]10528 	inc	sp
   3C7A 2D            [ 4]10529 	dec	l
   3C7B 20 0A         [12]10530 	jr	NZ,00106$
                          10531 ;alien6.c:1516: choice=STATE_REDEFINE;
   3C7D FD 21 00 00   [14]10532 	ld	iy,#0
   3C81 FD 39         [15]10533 	add	iy,sp
   3C83 FD 36 00 09   [19]10534 	ld	0 (iy),#0x09
   3C87                   10535 00106$:
                          10536 ;alien6.c:1517: if (cpc_TestKey(KEY_ESC)==1)   
   3C87 3E 05         [ 7]10537 	ld	a,#0x05
   3C89 F5            [11]10538 	push	af
   3C8A 33            [ 6]10539 	inc	sp
   3C8B CDr00r00      [17]10540 	call	_cpc_TestKey
   3C8E 33            [ 6]10541 	inc	sp
   3C8F 2D            [ 4]10542 	dec	l
   3C90 20 0A         [12]10543 	jr	NZ,00111$
                          10544 ;alien6.c:1518: choice=STATE_EXIT;
   3C92 FD 21 00 00   [14]10545 	ld	iy,#0
   3C96 FD 39         [15]10546 	add	iy,sp
   3C98 FD 36 00 05   [19]10547 	ld	0 (iy),#0x05
                          10548 ;alien6.c:1519: if ((DEBUG) && (cpc_TestKey(KEY_DEBUG)==1)){
   3C9C                   10549 00111$:
   3C9C 3E 0A         [ 7]10550 	ld	a,#0x0A
   3C9E F5            [11]10551 	push	af
   3C9F 33            [ 6]10552 	inc	sp
   3CA0 CDr00r00      [17]10553 	call	_cpc_TestKey
   3CA3 33            [ 6]10554 	inc	sp
   3CA4 2D            [ 4]10555 	dec	l
   3CA5 20 93         [12]10556 	jr	NZ,00112$
                          10557 ;alien6.c:1520: debug();
   3CA7 CDrCEr33      [17]10558 	call	_debug
                          10559 ;alien6.c:1521: pintarMenu();
   3CAA CDr5Cr3B      [17]10560 	call	_pintarMenu
   3CAD 18 8B         [12]10561 	jr	00112$
                          10562 ;alien6.c:1525: while (cpc_AnyKeyPressed());
   3CAF                   10563 00115$:
   3CAF CDr00r00      [17]10564 	call	_cpc_AnyKeyPressed
   3CB2 7C            [ 4]10565 	ld	a,h
   3CB3 B5            [ 4]10566 	or	a,l
   3CB4 20 F9         [12]10567 	jr	NZ,00115$
                          10568 ;alien6.c:1528: return choice; 
   3CB6 FD 21 00 00   [14]10569 	ld	iy,#0
   3CBA FD 39         [15]10570 	add	iy,sp
   3CBC FD 6E 00      [19]10571 	ld	l,0 (iy)
   3CBF 33            [ 6]10572 	inc	sp
   3CC0 C9            [10]10573 	ret
   3CC1                   10574 _menu_end::
                          10575 ;alien6.c:1534: void inicializarNivel(){
                          10576 ;	---------------------------------
                          10577 ; Function inicializarNivel
                          10578 ; ---------------------------------
   3CC1                   10579 _inicializarNivel_start::
   3CC1                   10580 _inicializarNivel:
                          10581 ;alien6.c:1536: letrasColorAzul();
   3CC1 CDr5Ar08      [17]10582 	call	_letrasColorAzul
                          10583 ;alien6.c:1537: cpc_PrintGphStr("1UP",0xc000);
   3CC4 21r9Br3D      [10]10584 	ld	hl,#___str_36+0
   3CC7 01 00 C0      [10]10585 	ld	bc,#0xC000
   3CCA C5            [11]10586 	push	bc
   3CCB E5            [11]10587 	push	hl
   3CCC CDr00r00      [17]10588 	call	_cpc_PrintGphStr
   3CCF F1            [10]10589 	pop	af
   3CD0 F1            [10]10590 	pop	af
                          10591 ;alien6.c:1538: cpc_PrintGphStr("HIGH;SCORE",0xc01E);	
   3CD1 21r9Fr3D      [10]10592 	ld	hl,#___str_37+0
   3CD4 01 1E C0      [10]10593 	ld	bc,#0xC01E
   3CD7 C5            [11]10594 	push	bc
   3CD8 E5            [11]10595 	push	hl
   3CD9 CDr00r00      [17]10596 	call	_cpc_PrintGphStr
   3CDC F1            [10]10597 	pop	af
   3CDD F1            [10]10598 	pop	af
                          10599 ;alien6.c:1539: cpc_PrintGphStr("2UP",0xc04A);
   3CDE 21rAAr3D      [10]10600 	ld	hl,#___str_38+0
   3CE1 01 4A C0      [10]10601 	ld	bc,#0xC04A
   3CE4 C5            [11]10602 	push	bc
   3CE5 E5            [11]10603 	push	hl
   3CE6 CDr00r00      [17]10604 	call	_cpc_PrintGphStr
   3CE9 F1            [10]10605 	pop	af
   3CEA F1            [10]10606 	pop	af
                          10607 ;alien6.c:1540: letrasColorRojo();
   3CEB CDr7Fr08      [17]10608 	call	_letrasColorRojo
                          10609 ;alien6.c:1541: sprintf(aux_txt,"%05d",score);
   3CEE 11rAEr3D      [10]10610 	ld	de,#___str_39+0
   3CF1 01r96r02      [10]10611 	ld	bc,#_aux_txt
   3CF4 2Ar6Dr03      [16]10612 	ld	hl,(_score)
   3CF7 E5            [11]10613 	push	hl
   3CF8 D5            [11]10614 	push	de
   3CF9 C5            [11]10615 	push	bc
   3CFA CDr00r00      [17]10616 	call	_sprintf
   3CFD 21 06 00      [10]10617 	ld	hl,#6
   3D00 39            [11]10618 	add	hl,sp
   3D01 F9            [ 6]10619 	ld	sp,hl
                          10620 ;alien6.c:1542: cpc_PrintGphStr(aux_txt,0xc050);
   3D02 21r96r02      [10]10621 	ld	hl,#_aux_txt
   3D05 01 50 C0      [10]10622 	ld	bc,#0xC050
   3D08 C5            [11]10623 	push	bc
   3D09 E5            [11]10624 	push	hl
   3D0A CDr00r00      [17]10625 	call	_cpc_PrintGphStr
   3D0D F1            [10]10626 	pop	af
   3D0E F1            [10]10627 	pop	af
                          10628 ;alien6.c:1543: cpc_PrintGphStr("00000",0xc073);	
   3D0F 21rB3r3D      [10]10629 	ld	hl,#___str_40
   3D12 01 73 C0      [10]10630 	ld	bc,#0xC073
   3D15 C5            [11]10631 	push	bc
   3D16 E5            [11]10632 	push	hl
   3D17 CDr00r00      [17]10633 	call	_cpc_PrintGphStr
   3D1A F1            [10]10634 	pop	af
   3D1B F1            [10]10635 	pop	af
                          10636 ;alien6.c:1544: cpc_PrintGphStr("00000",0xc096);
   3D1C 21rB3r3D      [10]10637 	ld	hl,#___str_40
   3D1F 01 96 C0      [10]10638 	ld	bc,#0xC096
   3D22 C5            [11]10639 	push	bc
   3D23 E5            [11]10640 	push	hl
   3D24 CDr00r00      [17]10641 	call	_cpc_PrintGphStr
   3D27 F1            [10]10642 	pop	af
   3D28 F1            [10]10643 	pop	af
                          10644 ;alien6.c:1548: inicializarEstrellas();
   3D29 CDr13r09      [17]10645 	call	_inicializarEstrellas
                          10646 ;alien6.c:1549: pintarEstrellas();
   3D2C CDr95r0A      [17]10647 	call	_pintarEstrellas
                          10648 ;alien6.c:1552: inicializarMalos();
   3D2F CDrA4r1C      [17]10649 	call	_inicializarMalos
                          10650 ;alien6.c:1553: inicializarProta();
   3D32 CDr13r30      [17]10651 	call	_inicializarProta
                          10652 ;alien6.c:1554: prota.moved=1;
   3D35 21rE5r00      [10]10653 	ld	hl,#_prota+11
   3D38 36 01         [10]10654 	ld	(hl),#0x01
                          10655 ;alien6.c:1555: inicializarDisparos();
   3D3A CDr89r28      [17]10656 	call	_inicializarDisparos
                          10657 ;alien6.c:1557: switch (nivel){
   3D3D 3Ar94r02      [13]10658 	ld	a,(#_nivel + 0)
   3D40 3D            [ 4]10659 	dec	a
   3D41 20 07         [12]10660 	jr	NZ,00104$
                          10661 ;alien6.c:1559: MAX_DISPAROS_MALOS=1;
   3D43 21rD9r00      [10]10662 	ld	hl,#_MAX_DISPAROS_MALOS + 0
   3D46 36 01         [10]10663 	ld	(hl), #0x01
                          10664 ;alien6.c:1560: break;
   3D48 18 05         [12]10665 	jr	00105$
                          10666 ;alien6.c:1561: default:
   3D4A                   10667 00104$:
                          10668 ;alien6.c:1562: MAX_DISPAROS_MALOS=2;
   3D4A 21rD9r00      [10]10669 	ld	hl,#_MAX_DISPAROS_MALOS + 0
   3D4D 36 02         [10]10670 	ld	(hl), #0x02
                          10671 ;alien6.c:1564: }
   3D4F                   10672 00105$:
                          10673 ;alien6.c:1565: inicializarDisparosMalos();
   3D4F CDrE0r10      [17]10674 	call	_inicializarDisparosMalos
                          10675 ;alien6.c:1567: inicializarExplosiones();
   3D52 CDrD3r0D      [17]10676 	call	_inicializarExplosiones
                          10677 ;alien6.c:1568: explosiones_lastUpdated=0; //La ltima vez que se actualizaron las explosiones
   3D55 AF            [ 4]10678 	xor	a, a
   3D56 32r73r02      [13]10679 	ld	(#_explosiones_lastUpdated + 0),a
   3D59 32r74r02      [13]10680 	ld	(#_explosiones_lastUpdated + 1),a
   3D5C 32r75r02      [13]10681 	ld	(#_explosiones_lastUpdated + 2),a
   3D5F 32r76r02      [13]10682 	ld	(#_explosiones_lastUpdated + 3),a
                          10683 ;alien6.c:1570: explosion_prota_activada=0;
   3D62 21r90r02      [10]10684 	ld	hl,#_explosion_prota_activada + 0
   3D65 36 00         [10]10685 	ld	(hl), #0x00
                          10686 ;alien6.c:1572: pintarMalos();
   3D67 CDr4Er27      [17]10687 	call	_pintarMalos
                          10688 ;alien6.c:1573: pintarProta();
   3D6A CDrCCr31      [17]10689 	call	_pintarProta
                          10690 ;alien6.c:1574: mostrarVidasProta();
   3D6D CDrA2r32      [17]10691 	call	_mostrarVidasProta
                          10692 ;alien6.c:1575: pintarBanderasNivel();
   3D70 CDrCFr32      [17]10693 	call	_pintarBanderasNivel
                          10694 ;alien6.c:1577: stepCount=19;
   3D73 21r9Er02      [10]10695 	ld	hl,#_stepCount + 0
   3D76 36 13         [10]10696 	ld	(hl), #0x13
                          10697 ;alien6.c:1578: velXForm=1;
   3D78 21r9Cr02      [10]10698 	ld	hl,#_velXForm + 0
   3D7B 36 01         [10]10699 	ld	(hl), #0x01
                          10700 ;alien6.c:1579: switch (nivel){
   3D7D 3Ar94r02      [13]10701 	ld	a,(#_nivel + 0)
   3D80 3D            [ 4]10702 	dec	a
   3D81 20 07         [12]10703 	jr	NZ,00107$
                          10704 ;alien6.c:1581: max_ataques_activos=2;
   3D83 21rB3r02      [10]10705 	ld	hl,#_max_ataques_activos + 0
   3D86 36 02         [10]10706 	ld	(hl), #0x02
                          10707 ;alien6.c:1582: break;
   3D88 18 05         [12]10708 	jr	00108$
                          10709 ;alien6.c:1583: default:
   3D8A                   10710 00107$:
                          10711 ;alien6.c:1584: max_ataques_activos=2;
   3D8A 21rB3r02      [10]10712 	ld	hl,#_max_ataques_activos + 0
   3D8D 36 02         [10]10713 	ld	(hl), #0x02
                          10714 ;alien6.c:1586: }
   3D8F                   10715 00108$:
                          10716 ;alien6.c:1587: inicializarAtaques();
   3D8F CDr02r1A      [17]10717 	call	_inicializarAtaques
                          10718 ;alien6.c:1589: inicializarAddones();
   3D92 CDr43r16      [17]10719 	call	_inicializarAddones
                          10720 ;alien6.c:1591: hostilidad=1;  //este flag hace que los enemigos disparen
   3D95 21r95r02      [10]10721 	ld	hl,#_hostilidad + 0
   3D98 36 01         [10]10722 	ld	(hl), #0x01
   3D9A C9            [10]10723 	ret
   3D9B                   10724 _inicializarNivel_end::
   3D9B                   10725 ___str_36:
   3D9B 31 55 50          10726 	.ascii "1UP"
   3D9E 00                10727 	.db 0x00
   3D9F                   10728 ___str_37:
   3D9F 48 49 47 48 3B 53 10729 	.ascii "HIGH;SCORE"
        43 4F 52 45
   3DA9 00                10730 	.db 0x00
   3DAA                   10731 ___str_38:
   3DAA 32 55 50          10732 	.ascii "2UP"
   3DAD 00                10733 	.db 0x00
   3DAE                   10734 ___str_39:
   3DAE 25 30 35 64       10735 	.ascii "%05d"
   3DB2 00                10736 	.db 0x00
   3DB3                   10737 ___str_40:
   3DB3 30 30 30 30 30    10738 	.ascii "00000"
   3DB8 00                10739 	.db 0x00
                          10740 ;alien6.c:1597: unsigned char game()
                          10741 ;	---------------------------------
                          10742 ; Function game
                          10743 ; ---------------------------------
   3DB9                   10744 _game_start::
   3DB9                   10745 _game:
   3DB9 21 F8 FF      [10]10746 	ld	hl,#-8
   3DBC 39            [11]10747 	add	hl,sp
   3DBD F9            [ 6]10748 	ld	sp,hl
                          10749 ;alien6.c:1599: timerOn();
   3DBE CDr36r01      [17]10750 	call	_timerOn
                          10751 ;alien6.c:1602: cpc_WyzInitPlayer(SOUND_TABLE_0, RULE_TABLE_0, EFFECT_TABLE, SONG_TABLE_0);
   3DC1 21r8Fr00      [10]10752 	ld	hl,#_SOUND_TABLE_0
   3DC4 01r00r00      [10]10753 	ld	bc,#_SONG_TABLE_0
   3DC7 C5            [11]10754 	push	bc
   3DC8 01rB1r00      [10]10755 	ld	bc,#_EFFECT_TABLE
   3DCB C5            [11]10756 	push	bc
   3DCC 01r02r00      [10]10757 	ld	bc,#_RULE_TABLE_0
   3DCF C5            [11]10758 	push	bc
   3DD0 E5            [11]10759 	push	hl
   3DD1 CDr00r00      [17]10760 	call	_cpc_WyzInitPlayer
   3DD4 21 08 00      [10]10761 	ld	hl,#8
   3DD7 39            [11]10762 	add	hl,sp
   3DD8 F9            [ 6]10763 	ld	sp,hl
                          10764 ;alien6.c:1603: cpc_WyzSetPlayerOn();
   3DD9 CDr00r00      [17]10765 	call	_cpc_WyzSetPlayerOn
                          10766 ;alien6.c:1605: cpc_ClrScr();				//fills scr with ink 0
   3DDC CDr00r00      [17]10767 	call	_cpc_ClrScr
                          10768 ;alien6.c:1607: inicializarNivel();
   3DDF CDrC1r3C      [17]10769 	call	_inicializarNivel
                          10770 ;alien6.c:1609: while(1)
   3DE2                   10771 00139$:
                          10772 ;alien6.c:1615: if ((DEBUG) && (cpc_TestKey(KEY_DEBUG)==1)){			// DEBUG
   3DE2 3E 0A         [ 7]10773 	ld	a,#0x0A
   3DE4 F5            [11]10774 	push	af
   3DE5 33            [ 6]10775 	inc	sp
   3DE6 CDr00r00      [17]10776 	call	_cpc_TestKey
   3DE9 33            [ 6]10777 	inc	sp
   3DEA 2D            [ 4]10778 	dec	l
   3DEB 20 03         [12]10779 	jr	NZ,00108$
                          10780 ;alien6.c:1616: debug();
   3DED CDrCEr33      [17]10781 	call	_debug
                          10782 ;alien6.c:1620: if ((ESTRELLAS_ACTIVADAS) && (getTime()-lastMovedEstrella>VELOCIDAD_ESTRELLAS)){
   3DF0                   10783 00108$:
   3DF0 CDr89r07      [17]10784 	call	_getTime
   3DF3 FD 21 04 00   [14]10785 	ld	iy,#4
   3DF7 FD 39         [15]10786 	add	iy,sp
   3DF9 FD 72 03      [19]10787 	ld	3 (iy),d
   3DFC FD 73 02      [19]10788 	ld	2 (iy),e
   3DFF FD 74 01      [19]10789 	ld	1 (iy),h
   3E02 FD 75 00      [19]10790 	ld	0 (iy),l
   3E05 21 00 00      [10]10791 	ld	hl, #0
   3E08 39            [11]10792 	add	hl, sp
   3E09 EB            [ 4]10793 	ex	de, hl
   3E0A 21r68r03      [10]10794 	ld	hl, #_lastMovedEstrella
   3E0D 01 04 00      [10]10795 	ld	bc, #4
   3E10 ED B0         [21]10796 	ldir
   3E12 21 00 00      [10]10797 	ld	hl,#0
   3E15 39            [11]10798 	add	hl,sp
   3E16 FD 21 04 00   [14]10799 	ld	iy,#4
   3E1A FD 39         [15]10800 	add	iy,sp
   3E1C FD 7E 00      [19]10801 	ld	a,0 (iy)
   3E1F 96            [ 7]10802 	sub	a, (hl)
   3E20 57            [ 4]10803 	ld	d,a
   3E21 FD 7E 01      [19]10804 	ld	a,1 (iy)
   3E24 23            [ 6]10805 	inc	hl
   3E25 9E            [ 7]10806 	sbc	a, (hl)
   3E26 5F            [ 4]10807 	ld	e,a
   3E27 FD 7E 02      [19]10808 	ld	a,2 (iy)
   3E2A 23            [ 6]10809 	inc	hl
   3E2B 9E            [ 7]10810 	sbc	a, (hl)
   3E2C 4F            [ 4]10811 	ld	c,a
   3E2D FD 7E 03      [19]10812 	ld	a,3 (iy)
   3E30 23            [ 6]10813 	inc	hl
   3E31 9E            [ 7]10814 	sbc	a, (hl)
   3E32 47            [ 4]10815 	ld	b,a
   3E33 3E 0A         [ 7]10816 	ld	a,#0x0A
   3E35 BA            [ 4]10817 	cp	a, d
   3E36 3E 00         [ 7]10818 	ld	a,#0x00
   3E38 9B            [ 4]10819 	sbc	a, e
   3E39 3E 00         [ 7]10820 	ld	a,#0x00
   3E3B 99            [ 4]10821 	sbc	a, c
   3E3C 3E 00         [ 7]10822 	ld	a,#0x00
   3E3E 98            [ 4]10823 	sbc	a, b
   3E3F 30 2C         [12]10824 	jr	NC,00107$
                          10825 ;alien6.c:1621: estrellasMovidas=1;
   3E41 21r6Cr03      [10]10826 	ld	hl,#_estrellasMovidas + 0
   3E44 36 01         [10]10827 	ld	(hl), #0x01
                          10828 ;alien6.c:1622: moverEstrellas();
   3E46 CDr3Fr0B      [17]10829 	call	_moverEstrellas
                          10830 ;alien6.c:1623: borrarEstrellas();
   3E49 CDr1Dr0A      [17]10831 	call	_borrarEstrellas
                          10832 ;alien6.c:1624: lastMovedEstrella=getTime();
   3E4C CDr89r07      [17]10833 	call	_getTime
   3E4F FD 21 00 00   [14]10834 	ld	iy,#0
   3E53 FD 39         [15]10835 	add	iy,sp
   3E55 FD 72 03      [19]10836 	ld	3 (iy),d
   3E58 FD 73 02      [19]10837 	ld	2 (iy),e
   3E5B FD 74 01      [19]10838 	ld	1 (iy),h
   3E5E FD 75 00      [19]10839 	ld	0 (iy),l
   3E61 11r68r03      [10]10840 	ld	de, #_lastMovedEstrella
   3E64 21 00 00      [10]10841 	ld	hl, #0
   3E67 39            [11]10842 	add	hl, sp
   3E68 01 04 00      [10]10843 	ld	bc, #4
   3E6B ED B0         [21]10844 	ldir
   3E6D                   10845 00107$:
                          10846 ;alien6.c:1627: if ((explosiones_activas>0)&&((getTime()-explosiones_lastUpdated)>VELOCIDAD_EXPLOSIONES)){
   3E6D 3Ar62r02      [13]10847 	ld	a,(#_explosiones_activas + 0)
   3E70 B7            [ 4]10848 	or	a, a
   3E71 28 7B         [12]10849 	jr	Z,00110$
   3E73 CDr89r07      [17]10850 	call	_getTime
   3E76 FD 21 00 00   [14]10851 	ld	iy,#0
   3E7A FD 39         [15]10852 	add	iy,sp
   3E7C FD 72 03      [19]10853 	ld	3 (iy),d
   3E7F FD 73 02      [19]10854 	ld	2 (iy),e
   3E82 FD 74 01      [19]10855 	ld	1 (iy),h
   3E85 FD 75 00      [19]10856 	ld	0 (iy),l
   3E88 21 04 00      [10]10857 	ld	hl, #4
   3E8B 39            [11]10858 	add	hl, sp
   3E8C EB            [ 4]10859 	ex	de, hl
   3E8D 21r73r02      [10]10860 	ld	hl, #_explosiones_lastUpdated
   3E90 01 04 00      [10]10861 	ld	bc, #4
   3E93 ED B0         [21]10862 	ldir
   3E95 21 04 00      [10]10863 	ld	hl,#4
   3E98 39            [11]10864 	add	hl,sp
   3E99 FD 21 00 00   [14]10865 	ld	iy,#0
   3E9D FD 39         [15]10866 	add	iy,sp
   3E9F FD 7E 00      [19]10867 	ld	a,0 (iy)
   3EA2 96            [ 7]10868 	sub	a, (hl)
   3EA3 57            [ 4]10869 	ld	d,a
   3EA4 FD 7E 01      [19]10870 	ld	a,1 (iy)
   3EA7 23            [ 6]10871 	inc	hl
   3EA8 9E            [ 7]10872 	sbc	a, (hl)
   3EA9 5F            [ 4]10873 	ld	e,a
   3EAA FD 7E 02      [19]10874 	ld	a,2 (iy)
   3EAD 23            [ 6]10875 	inc	hl
   3EAE 9E            [ 7]10876 	sbc	a, (hl)
   3EAF 4F            [ 4]10877 	ld	c,a
   3EB0 FD 7E 03      [19]10878 	ld	a,3 (iy)
   3EB3 23            [ 6]10879 	inc	hl
   3EB4 9E            [ 7]10880 	sbc	a, (hl)
   3EB5 47            [ 4]10881 	ld	b,a
   3EB6 3E 1E         [ 7]10882 	ld	a,#0x1E
   3EB8 BA            [ 4]10883 	cp	a, d
   3EB9 3E 00         [ 7]10884 	ld	a,#0x00
   3EBB 9B            [ 4]10885 	sbc	a, e
   3EBC 3E 00         [ 7]10886 	ld	a,#0x00
   3EBE 99            [ 4]10887 	sbc	a, c
   3EBF 3E 00         [ 7]10888 	ld	a,#0x00
   3EC1 98            [ 4]10889 	sbc	a, b
   3EC2 30 2A         [12]10890 	jr	NC,00110$
                          10891 ;alien6.c:1628: actualizarExplosiones();
   3EC4 CDrDDr0F      [17]10892 	call	_actualizarExplosiones
                          10893 ;alien6.c:1629: animarExplosiones();
   3EC7 CDrA1r10      [17]10894 	call	_animarExplosiones
                          10895 ;alien6.c:1630: actualizarExplosiones();
   3ECA CDrDDr0F      [17]10896 	call	_actualizarExplosiones
                          10897 ;alien6.c:1631: explosiones_lastUpdated=getTime();
   3ECD CDr89r07      [17]10898 	call	_getTime
   3ED0 FD 21 00 00   [14]10899 	ld	iy,#0
   3ED4 FD 39         [15]10900 	add	iy,sp
   3ED6 FD 72 03      [19]10901 	ld	3 (iy),d
   3ED9 FD 73 02      [19]10902 	ld	2 (iy),e
   3EDC FD 74 01      [19]10903 	ld	1 (iy),h
   3EDF FD 75 00      [19]10904 	ld	0 (iy),l
   3EE2 11r73r02      [10]10905 	ld	de, #_explosiones_lastUpdated
   3EE5 21 00 00      [10]10906 	ld	hl, #0
   3EE8 39            [11]10907 	add	hl, sp
   3EE9 01 04 00      [10]10908 	ld	bc, #4
   3EEC ED B0         [21]10909 	ldir
   3EEE                   10910 00110$:
                          10911 ;alien6.c:1634: if ((getTime()-prota.lastmoved)>prota.speed){
   3EEE CDr89r07      [17]10912 	call	_getTime
   3EF1 FD 21 00 00   [14]10913 	ld	iy,#0
   3EF5 FD 39         [15]10914 	add	iy,sp
   3EF7 FD 72 03      [19]10915 	ld	3 (iy),d
   3EFA FD 73 02      [19]10916 	ld	2 (iy),e
   3EFD FD 74 01      [19]10917 	ld	1 (iy),h
   3F00 FD 75 00      [19]10918 	ld	0 (iy),l
   3F03 ED 5BrEAr00   [20]10919 	ld	de, (#(_prota + 0x0010) + 0)
   3F07 ED 4BrECr00   [20]10920 	ld	bc, (#(_prota + 0x0010) + 2)
   3F0B 21 00 00      [10]10921 	ld	hl,#0
   3F0E 39            [11]10922 	add	hl,sp
   3F0F 7E            [ 7]10923 	ld	a,(hl)
   3F10 93            [ 4]10924 	sub	a, e
   3F11 77            [ 7]10925 	ld	(hl),a
   3F12 23            [ 6]10926 	inc	hl
   3F13 7E            [ 7]10927 	ld	a,(hl)
   3F14 9A            [ 4]10928 	sbc	a, d
   3F15 77            [ 7]10929 	ld	(hl),a
   3F16 23            [ 6]10930 	inc	hl
   3F17 7E            [ 7]10931 	ld	a,(hl)
   3F18 99            [ 4]10932 	sbc	a, c
   3F19 77            [ 7]10933 	ld	(hl),a
   3F1A 23            [ 6]10934 	inc	hl
   3F1B 7E            [ 7]10935 	ld	a,(hl)
   3F1C 98            [ 4]10936 	sbc	a, b
   3F1D 77            [ 7]10937 	ld	(hl),a
   3F1E 3ArE6r00      [13]10938 	ld	a, (#_prota + 12)
   3F21 57            [ 4]10939 	ld	d,a
   3F22 1E 00         [ 7]10940 	ld	e,#0x00
   3F24 01 00 00      [10]10941 	ld	bc,#0x0000
   3F27 7A            [ 4]10942 	ld	a,d
   3F28 FD 21 00 00   [14]10943 	ld	iy,#0
   3F2C FD 39         [15]10944 	add	iy,sp
   3F2E FD 96 00      [19]10945 	sub	a, 0 (iy)
   3F31 7B            [ 4]10946 	ld	a,e
   3F32 FD 9E 01      [19]10947 	sbc	a, 1 (iy)
   3F35 79            [ 4]10948 	ld	a,c
   3F36 FD 9E 02      [19]10949 	sbc	a, 2 (iy)
   3F39 78            [ 4]10950 	ld	a,b
   3F3A FD 9E 03      [19]10951 	sbc	a, 3 (iy)
   3F3D 30 2A         [12]10952 	jr	NC,00113$
                          10953 ;alien6.c:1635: prota.lastmoved=getTime();
   3F3F CDr89r07      [17]10954 	call	_getTime
   3F42 FD 21 00 00   [14]10955 	ld	iy,#0
   3F46 FD 39         [15]10956 	add	iy,sp
   3F48 FD 72 03      [19]10957 	ld	3 (iy),d
   3F4B FD 73 02      [19]10958 	ld	2 (iy),e
   3F4E FD 74 01      [19]10959 	ld	1 (iy),h
   3F51 FD 75 00      [19]10960 	ld	0 (iy),l
   3F54 11rEAr00      [10]10961 	ld	de,#(_prota + 0x0010)
   3F57 21 00 00      [10]10962 	ld	hl, #0x0000
   3F5A 39            [11]10963 	add	hl, sp
   3F5B 01 04 00      [10]10964 	ld	bc, #0x0004
   3F5E ED B0         [21]10965 	ldir
                          10966 ;alien6.c:1636: moverProta();	//mover al prota
   3F60 CDr9Fr30      [17]10967 	call	_moverProta
                          10968 ;alien6.c:1637: borrarProta();	//borro al prota
   3F63 CDr59r30      [17]10969 	call	_borrarProta
                          10970 ;alien6.c:1638: pintarProta();	//Pinto al protagonista
   3F66 CDrCCr31      [17]10971 	call	_pintarProta
   3F69                   10972 00113$:
                          10973 ;alien6.c:1641: if ((explosion_prota_activada)&&((getTime()-explosion_prota_lastUpdated)>VELOCIDAD_EXPLOSION_PROTA)){
   3F69 3Ar90r02      [13]10974 	ld	a,(#_explosion_prota_activada + 0)
   3F6C B7            [ 4]10975 	or	a, a
   3F6D 28 78         [12]10976 	jr	Z,00115$
   3F6F CDr89r07      [17]10977 	call	_getTime
   3F72 FD 21 00 00   [14]10978 	ld	iy,#0
   3F76 FD 39         [15]10979 	add	iy,sp
   3F78 FD 72 03      [19]10980 	ld	3 (iy),d
   3F7B FD 73 02      [19]10981 	ld	2 (iy),e
   3F7E FD 74 01      [19]10982 	ld	1 (iy),h
   3F81 FD 75 00      [19]10983 	ld	0 (iy),l
   3F84 21 04 00      [10]10984 	ld	hl, #4
   3F87 39            [11]10985 	add	hl, sp
   3F88 EB            [ 4]10986 	ex	de, hl
   3F89 21r8Br02      [10]10987 	ld	hl, #_explosion_prota_lastUpdated
   3F8C 01 04 00      [10]10988 	ld	bc, #4
   3F8F ED B0         [21]10989 	ldir
   3F91 21 04 00      [10]10990 	ld	hl,#4
   3F94 39            [11]10991 	add	hl,sp
   3F95 FD 21 00 00   [14]10992 	ld	iy,#0
   3F99 FD 39         [15]10993 	add	iy,sp
   3F9B FD 7E 00      [19]10994 	ld	a,0 (iy)
   3F9E 96            [ 7]10995 	sub	a, (hl)
   3F9F 5F            [ 4]10996 	ld	e,a
   3FA0 FD 7E 01      [19]10997 	ld	a,1 (iy)
   3FA3 23            [ 6]10998 	inc	hl
   3FA4 9E            [ 7]10999 	sbc	a, (hl)
   3FA5 57            [ 4]11000 	ld	d,a
   3FA6 FD 7E 02      [19]11001 	ld	a,2 (iy)
   3FA9 23            [ 6]11002 	inc	hl
   3FAA 9E            [ 7]11003 	sbc	a, (hl)
   3FAB 4F            [ 4]11004 	ld	c,a
   3FAC FD 7E 03      [19]11005 	ld	a,3 (iy)
   3FAF 23            [ 6]11006 	inc	hl
   3FB0 9E            [ 7]11007 	sbc	a, (hl)
   3FB1 47            [ 4]11008 	ld	b,a
   3FB2 3E 28         [ 7]11009 	ld	a,#0x28
   3FB4 BB            [ 4]11010 	cp	a, e
   3FB5 3E 00         [ 7]11011 	ld	a,#0x00
   3FB7 9A            [ 4]11012 	sbc	a, d
   3FB8 3E 00         [ 7]11013 	ld	a,#0x00
   3FBA 99            [ 4]11014 	sbc	a, c
   3FBB 3E 00         [ 7]11015 	ld	a,#0x00
   3FBD 98            [ 4]11016 	sbc	a, b
   3FBE 30 27         [12]11017 	jr	NC,00115$
                          11018 ;alien6.c:1642: animarExplosionProta();
   3FC0 CDr9Er0C      [17]11019 	call	_animarExplosionProta
                          11020 ;alien6.c:1643: actualizarExplosionProta();
   3FC3 CDrDBr0C      [17]11021 	call	_actualizarExplosionProta
                          11022 ;alien6.c:1644: explosion_prota_lastUpdated=getTime();
   3FC6 CDr89r07      [17]11023 	call	_getTime
   3FC9 FD 21 00 00   [14]11024 	ld	iy,#0
   3FCD FD 39         [15]11025 	add	iy,sp
   3FCF FD 72 03      [19]11026 	ld	3 (iy),d
   3FD2 FD 73 02      [19]11027 	ld	2 (iy),e
   3FD5 FD 74 01      [19]11028 	ld	1 (iy),h
   3FD8 FD 75 00      [19]11029 	ld	0 (iy),l
   3FDB 11r8Br02      [10]11030 	ld	de, #_explosion_prota_lastUpdated
   3FDE 21 00 00      [10]11031 	ld	hl, #0
   3FE1 39            [11]11032 	add	hl, sp
   3FE2 01 04 00      [10]11033 	ld	bc, #4
   3FE5 ED B0         [21]11034 	ldir
   3FE7                   11035 00115$:
                          11036 ;alien6.c:1648: borrarAddones();
   3FE7 CDr4Ar17      [17]11037 	call	_borrarAddones
                          11038 ;alien6.c:1649: moverAddones();
   3FEA CDr00r18      [17]11039 	call	_moverAddones
                          11040 ;alien6.c:1650: pintarAddones();
   3FED CDr06r19      [17]11041 	call	_pintarAddones
                          11042 ;alien6.c:1653: moverDisparos();  		//Mover disparos
   3FF0 CDrA3r29      [17]11043 	call	_moverDisparos
                          11044 ;alien6.c:1654: borrarDisparos();		//Borro disparos
   3FF3 CDrC2r2D      [17]11045 	call	_borrarDisparos
                          11046 ;alien6.c:1655: pintarDisparos();		//Pinto Disparos
   3FF6 CDrB8r2E      [17]11047 	call	_pintarDisparos
                          11048 ;alien6.c:1658: moverMalos();		//Muevo los malos
   3FF9 CDrE6r20      [17]11049 	call	_moverMalos
                          11050 ;alien6.c:1659: borrarMalos();		//Borro los malos
   3FFC CDr17r26      [17]11051 	call	_borrarMalos
                          11052 ;alien6.c:1660: pintarMalos();		//Pinto los malos
   3FFF CDr4Er27      [17]11053 	call	_pintarMalos
                          11054 ;alien6.c:1663: moverDisparosMalos();	//mover disparos
   4002 CDr0Cr12      [17]11055 	call	_moverDisparosMalos
                          11056 ;alien6.c:1664: borrarDisparosMalos();	//borro disparos
   4005 CDrEEr13      [17]11057 	call	_borrarDisparosMalos
                          11058 ;alien6.c:1665: pintarDisparosMalos();	//Pinto Disparos
   4008 CDrCBr14      [17]11059 	call	_pintarDisparosMalos
                          11060 ;alien6.c:1668: if ((ESTRELLAS_ACTIVADAS) && (estrellasMovidas)){
   400B 3Ar6Cr03      [13]11061 	ld	a,(#_estrellasMovidas + 0)
   400E B7            [ 4]11062 	or	a, a
   400F 28 08         [12]11063 	jr	Z,00118$
                          11064 ;alien6.c:1669: pintarEstrellas();
   4011 CDr95r0A      [17]11065 	call	_pintarEstrellas
                          11066 ;alien6.c:1670: estrellasMovidas=0;
   4014 21r6Cr03      [10]11067 	ld	hl,#_estrellasMovidas + 0
   4017 36 00         [10]11068 	ld	(hl), #0x00
   4019                   11069 00118$:
                          11070 ;alien6.c:1674: if (cambio_score){
   4019 3Ar6Fr03      [13]11071 	ld	a,(#_cambio_score + 0)
   401C B7            [ 4]11072 	or	a, a
   401D 28 26         [12]11073 	jr	Z,00121$
                          11074 ;alien6.c:1675: cambio_score=0;
   401F 21r6Fr03      [10]11075 	ld	hl,#_cambio_score + 0
   4022 36 00         [10]11076 	ld	(hl), #0x00
                          11077 ;alien6.c:1676: sprintf(aux_txt,"%05d",score);
   4024 11r96r02      [10]11078 	ld	de,#_aux_txt
   4027 2Ar6Dr03      [16]11079 	ld	hl,(_score)
   402A E5            [11]11080 	push	hl
   402B 21rC5r40      [10]11081 	ld	hl,#___str_41
   402E E5            [11]11082 	push	hl
   402F D5            [11]11083 	push	de
   4030 CDr00r00      [17]11084 	call	_sprintf
   4033 21 06 00      [10]11085 	ld	hl,#6
   4036 39            [11]11086 	add	hl,sp
   4037 F9            [ 6]11087 	ld	sp,hl
                          11088 ;alien6.c:1677: cpc_PrintGphStr(aux_txt,0xc050);
   4038 21r96r02      [10]11089 	ld	hl,#_aux_txt
   403B 01 50 C0      [10]11090 	ld	bc,#0xC050
   403E C5            [11]11091 	push	bc
   403F E5            [11]11092 	push	hl
   4040 CDr00r00      [17]11093 	call	_cpc_PrintGphStr
   4043 F1            [10]11094 	pop	af
   4044 F1            [10]11095 	pop	af
   4045                   11096 00121$:
                          11097 ;alien6.c:1680: if ((prota.dead) && (!explosiones_activas) && (!disparos_activos) && (!disparos_malos_activos) && (!explosion_prota_activada)){
   4045 3ArE8r00      [13]11098 	ld	a, (#_prota + 14)
   4048 B7            [ 4]11099 	or	a, a
   4049 28 1F         [12]11100 	jr	Z,00123$
   404B 3Ar62r02      [13]11101 	ld	a,(#_explosiones_activas + 0)
   404E B7            [ 4]11102 	or	a, a
   404F 20 19         [12]11103 	jr	NZ,00123$
   4051 3Ar9Br00      [13]11104 	ld	a,(#_disparos_activos + 0)
   4054 B7            [ 4]11105 	or	a, a
   4055 20 13         [12]11106 	jr	NZ,00123$
   4057 3ArD8r00      [13]11107 	ld	a,(#_disparos_malos_activos + 0)
   405A B7            [ 4]11108 	or	a, a
   405B 20 0D         [12]11109 	jr	NZ,00123$
   405D 3Ar90r02      [13]11110 	ld	a,(#_explosion_prota_activada + 0)
   4060 B7            [ 4]11111 	or	a, a
   4061 20 07         [12]11112 	jr	NZ,00123$
                          11113 ;alien6.c:1681: state = STATE_DEAD;
   4063 21r92r02      [10]11114 	ld	hl,#_state + 0
   4066 36 0B         [10]11115 	ld	(hl), #0x0B
                          11116 ;alien6.c:1682: break;
   4068 18 49         [12]11117 	jr	00141$
   406A                   11118 00123$:
                          11119 ;alien6.c:1685: if (cpc_TestKey(KEY_ESC)==1){			// ESC
   406A 3E 05         [ 7]11120 	ld	a,#0x05
   406C F5            [11]11121 	push	af
   406D 33            [ 6]11122 	inc	sp
   406E CDr00r00      [17]11123 	call	_cpc_TestKey
   4071 33            [ 6]11124 	inc	sp
   4072 2D            [ 4]11125 	dec	l
   4073 20 07         [12]11126 	jr	NZ,00132$
                          11127 ;alien6.c:1686: state = STATE_MENU;
   4075 21r92r02      [10]11128 	ld	hl,#_state + 0
   4078 36 02         [10]11129 	ld	(hl), #0x02
                          11130 ;alien6.c:1687: break;
   407A 18 37         [12]11131 	jr	00141$
                          11132 ;alien6.c:1692: if ((DEBUG) && (cpc_TestKey(KEY_HOSTILITY)==1)){			
   407C                   11133 00132$:
   407C 3E 0B         [ 7]11134 	ld	a,#0x0B
   407E F5            [11]11135 	push	af
   407F 33            [ 6]11136 	inc	sp
   4080 CDr00r00      [17]11137 	call	_cpc_TestKey
   4083 33            [ 6]11138 	inc	sp
   4084 2D            [ 4]11139 	dec	l
   4085 20 0B         [12]11140 	jr	NZ,00131$
                          11141 ;alien6.c:1693: hostilidad=!hostilidad;
   4087 3Ar95r02      [13]11142 	ld	a,(#_hostilidad + 0)
   408A D6 01         [ 7]11143 	sub	a,#0x01
   408C 3E 00         [ 7]11144 	ld	a,#0x00
   408E 17            [ 4]11145 	rla
   408F 32r95r02      [13]11146 	ld	(#_hostilidad + 0),a
   4092                   11147 00131$:
                          11148 ;alien6.c:1697: if ((malos_activos==0) && (explosiones_activas==0) && (!disparos_activos) && (!disparos_malos_activos)){
   4092 3ArA1r01      [13]11149 	ld	a,(#_malos_activos + 0)
   4095 B7            [ 4]11150 	or	a, a
   4096 C2rE2r3D      [10]11151 	jp	NZ,00139$
   4099 3Ar62r02      [13]11152 	ld	a,(#_explosiones_activas + 0)
   409C B7            [ 4]11153 	or	a, a
   409D C2rE2r3D      [10]11154 	jp	NZ,00139$
   40A0 3Ar9Br00      [13]11155 	ld	a,(#_disparos_activos + 0)
   40A3 B7            [ 4]11156 	or	a, a
   40A4 C2rE2r3D      [10]11157 	jp	NZ,00139$
   40A7 3ArD8r00      [13]11158 	ld	a,(#_disparos_malos_activos + 0)
   40AA B7            [ 4]11159 	or	a, a
   40AB C2rE2r3D      [10]11160 	jp	NZ,00139$
                          11161 ;alien6.c:1698: state = STATE_LEVELUP;
   40AE 21r92r02      [10]11162 	ld	hl,#_state + 0
   40B1 36 08         [10]11163 	ld	(hl), #0x08
                          11164 ;alien6.c:1704: if (SONIDO_ACTIVADO) cpc_WyzSetPlayerOff();
   40B3                   11165 00141$:
   40B3 CDr00r00      [17]11166 	call	_cpc_WyzSetPlayerOff
                          11167 ;alien6.c:1705: timerOff();
   40B6 CDr7Cr07      [17]11168 	call	_timerOff
                          11169 ;alien6.c:1706: return state;
   40B9 FD 21r92r02   [14]11170 	ld	iy,#_state
   40BD FD 6E 00      [19]11171 	ld	l,0 (iy)
   40C0 F1            [10]11172 	pop	af
   40C1 F1            [10]11173 	pop	af
   40C2 F1            [10]11174 	pop	af
   40C3 F1            [10]11175 	pop	af
   40C4 C9            [10]11176 	ret
   40C5                   11177 _game_end::
   40C5                   11178 ___str_41:
   40C5 25 30 35 64       11179 	.ascii "%05d"
   40C9 00                11180 	.db 0x00
                          11181 ;alien6.c:1712: void InitialSetUp() {
                          11182 ;	---------------------------------
                          11183 ; Function InitialSetUp
                          11184 ; ---------------------------------
   40CA                   11185 _InitialSetUp_start::
   40CA                   11186 _InitialSetUp:
                          11187 ;alien6.c:1714: cpc_DisableFirmware();
   40CA CDr00r00      [17]11188 	call	_cpc_DisableFirmware
                          11189 ;alien6.c:1716: set_colours();
   40CD CDrB3r07      [17]11190 	call	_set_colours
                          11191 ;alien6.c:1717: cpc_SetMode(0);				//hardware call to set mode 0
   40D0 AF            [ 4]11192 	xor	a, a
   40D1 F5            [11]11193 	push	af
   40D2 33            [ 6]11194 	inc	sp
   40D3 CDr00r00      [17]11195 	call	_cpc_SetMode
   40D6 33            [ 6]11196 	inc	sp
                          11197 ;alien6.c:1718: cpc_ClrScr();				//fills scr with ink 0
   40D7 CDr00r00      [17]11198 	call	_cpc_ClrScr
                          11199 ;alien6.c:1720: letrasColorAzul();
   40DA CDr5Ar08      [17]11200 	call	_letrasColorAzul
                          11201 ;alien6.c:1722: inicializarTeclado();
   40DD CDr11r32      [17]11202 	call	_inicializarTeclado
                          11203 ;alien6.c:1726: cpc_WyzInitPlayer(SOUND_TABLE_0, RULE_TABLE_0, EFFECT_TABLE, SONG_TABLE_0);
   40E0 21r8Fr00      [10]11204 	ld	hl,#_SOUND_TABLE_0
   40E3 01r00r00      [10]11205 	ld	bc,#_SONG_TABLE_0
   40E6 C5            [11]11206 	push	bc
   40E7 01rB1r00      [10]11207 	ld	bc,#_EFFECT_TABLE
   40EA C5            [11]11208 	push	bc
   40EB 01r02r00      [10]11209 	ld	bc,#_RULE_TABLE_0
   40EE C5            [11]11210 	push	bc
   40EF E5            [11]11211 	push	hl
   40F0 CDr00r00      [17]11212 	call	_cpc_WyzInitPlayer
   40F3 21 08 00      [10]11213 	ld	hl,#8
   40F6 39            [11]11214 	add	hl,sp
   40F7 F9            [ 6]11215 	ld	sp,hl
                          11216 ;alien6.c:1727: cpc_WyzLoadSong(0);
   40F8 AF            [ 4]11217 	xor	a, a
   40F9 F5            [11]11218 	push	af
   40FA 33            [ 6]11219 	inc	sp
   40FB CDr00r00      [17]11220 	call	_cpc_WyzLoadSong
   40FE 33            [ 6]11221 	inc	sp
                          11222 ;alien6.c:1728: cpc_WyzSetPlayerOn();
   40FF CDr00r00      [17]11223 	call	_cpc_WyzSetPlayerOn
                          11224 ;alien6.c:1731: state = INITIAL_STATE;
   4102 21r92r02      [10]11225 	ld	hl,#_state + 0
   4105 36 02         [10]11226 	ld	(hl), #0x02
   4107 C9            [10]11227 	ret
   4108                   11228 _InitialSetUp_end::
                          11229 ;alien6.c:1738: int main() {
                          11230 ;	---------------------------------
                          11231 ; Function main
                          11232 ; ---------------------------------
   4108                   11233 _main_start::
   4108                   11234 _main:
                          11235 ;alien6.c:1739: InitialSetUp();
   4108 CDrCAr40      [17]11236 	call	_InitialSetUp
                          11237 ;alien6.c:1741: while (state != STATE_EXIT) {
   410B                   11238 00122$:
                          11239 ;alien6.c:1742: switch(state) {
   410B 3Ar92r02      [13]11240 	ld	a,(#_state + 0)
   410E FE 05         [ 7]11241 	cp	a,#0x05
   4110 CArF9r41      [10]11242 	jp	Z,00125$
   4113 FE 02         [ 7]11243 	cp	a,#0x02
   4115 28 19         [12]11244 	jr	Z,00101$
   4117 FE 03         [ 7]11245 	cp	a,#0x03
   4119 28 2D         [12]11246 	jr	Z,00103$
   411B FE 04         [ 7]11247 	cp	a,#0x04
   411D 28 35         [12]11248 	jr	Z,00104$
   411F FE 06         [ 7]11249 	cp	a,#0x06
   4121 CArD7r41      [10]11250 	jp	Z,00118$
   4124 FE 07         [ 7]11251 	cp	a,#0x07
   4126 CArE4r41      [10]11252 	jp	Z,00119$
   4129 D6 09         [ 7]11253 	sub	a, #0x09
   412B 28 0F         [12]11254 	jr	Z,00102$
   412D C3rF1r41      [10]11255 	jp	00120$
                          11256 ;alien6.c:1743: case STATE_MENU:
   4130                   11257 00101$:
                          11258 ;alien6.c:1744: state = menu();
   4130 CDr2Cr3C      [17]11259 	call	_menu
   4133 FD 21r92r02   [14]11260 	ld	iy,#_state
   4137 FD 75 00      [19]11261 	ld	0 (iy),l
                          11262 ;alien6.c:1745: break;
   413A 18 CF         [12]11263 	jr	00122$
                          11264 ;alien6.c:1747: case STATE_REDEFINE:
   413C                   11265 00102$:
                          11266 ;alien6.c:1748: state = redefineKeys();
   413C CDr4Fr3A      [17]11267 	call	_redefineKeys
   413F FD 21r92r02   [14]11268 	ld	iy,#_state
   4143 FD 75 00      [19]11269 	ld	0 (iy),l
                          11270 ;alien6.c:1749: break;
   4146 18 C3         [12]11271 	jr	00122$
                          11272 ;alien6.c:1751: case STATE_HELP:
   4148                   11273 00103$:
                          11274 ;alien6.c:1752: state = help();
   4148 CDrDAr34      [17]11275 	call	_help
   414B FD 21r92r02   [14]11276 	ld	iy,#_state
   414F FD 75 00      [19]11277 	ld	0 (iy),l
                          11278 ;alien6.c:1753: break;
   4152 18 B7         [12]11279 	jr	00122$
                          11280 ;alien6.c:1755: case STATE_GAME:
   4154                   11281 00104$:
                          11282 ;alien6.c:1756: nivel=1;
   4154 21r94r02      [10]11283 	ld	hl,#_nivel + 0
   4157 36 01         [10]11284 	ld	(hl), #0x01
                          11285 ;alien6.c:1757: prota.vidas=3;
   4159 21rE9r00      [10]11286 	ld	hl,#(_prota + 0x000f)
   415C 36 03         [10]11287 	ld	(hl),#0x03
                          11288 ;alien6.c:1759: cambio_score=0;
   415E 21r6Fr03      [10]11289 	ld	hl,#_cambio_score + 0
   4161 36 00         [10]11290 	ld	(hl), #0x00
                          11291 ;alien6.c:1760: score=0;
   4163 21r6Dr03      [10]11292 	ld	hl,#_score + 0
   4166 36 00         [10]11293 	ld	(hl), #0x00
   4168 21r6Er03      [10]11294 	ld	hl,#_score + 1
   416B 36 00         [10]11295 	ld	(hl), #0x00
                          11296 ;alien6.c:1762: while ((state!=STATE_LOSE) && (state!=STATE_WIN) && (state!=STATE_MENU)) {
   416D                   11297 00115$:
   416D 3Ar92r02      [13]11298 	ld	a,(#_state + 0)
   4170 FE 07         [ 7]11299 	cp	a,#0x07
   4172 28 97         [12]11300 	jr	Z,00122$
   4174 FE 06         [ 7]11301 	cp	a,#0x06
   4176 28 93         [12]11302 	jr	Z,00122$
   4178 D6 02         [ 7]11303 	sub	a, #0x02
   417A 28 8F         [12]11304 	jr	Z,00122$
                          11305 ;alien6.c:1764: if (SONIDO_ACTIVADO) cpc_WyzSetPlayerOff();
   417C CDr00r00      [17]11306 	call	_cpc_WyzSetPlayerOff
                          11307 ;alien6.c:1765: state = game();
   417F CDrB9r3D      [17]11308 	call	_game
   4182 FD 21r92r02   [14]11309 	ld	iy,#_state
   4186 FD 75 00      [19]11310 	ld	0 (iy),l
                          11311 ;alien6.c:1767: cpc_WyzInitPlayer(SOUND_TABLE_0, RULE_TABLE_0, EFFECT_TABLE, SONG_TABLE_0);
   4189 21r8Fr00      [10]11312 	ld	hl,#_SOUND_TABLE_0
   418C 01r00r00      [10]11313 	ld	bc,#_SONG_TABLE_0
   418F C5            [11]11314 	push	bc
   4190 01rB1r00      [10]11315 	ld	bc,#_EFFECT_TABLE
   4193 C5            [11]11316 	push	bc
   4194 01r02r00      [10]11317 	ld	bc,#_RULE_TABLE_0
   4197 C5            [11]11318 	push	bc
   4198 E5            [11]11319 	push	hl
   4199 CDr00r00      [17]11320 	call	_cpc_WyzInitPlayer
   419C 21 08 00      [10]11321 	ld	hl,#8
   419F 39            [11]11322 	add	hl,sp
   41A0 F9            [ 6]11323 	ld	sp,hl
                          11324 ;alien6.c:1768: cpc_WyzLoadSong(0);
   41A1 AF            [ 4]11325 	xor	a, a
   41A2 F5            [11]11326 	push	af
   41A3 33            [ 6]11327 	inc	sp
   41A4 CDr00r00      [17]11328 	call	_cpc_WyzLoadSong
   41A7 33            [ 6]11329 	inc	sp
                          11330 ;alien6.c:1769: cpc_WyzSetPlayerOn();
   41A8 CDr00r00      [17]11331 	call	_cpc_WyzSetPlayerOn
                          11332 ;alien6.c:1771: if (state==STATE_LEVELUP)
   41AB 3Ar92r02      [13]11333 	ld	a,(#_state + 0)
   41AE D6 08         [ 7]11334 	sub	a, #0x08
   41B0 20 0A         [12]11335 	jr	NZ,00110$
                          11336 ;alien6.c:1772: state=levelUp();
   41B2 CDr74r36      [17]11337 	call	_levelUp
   41B5 FD 21r92r02   [14]11338 	ld	iy,#_state
   41B9 FD 75 00      [19]11339 	ld	0 (iy),l
   41BC                   11340 00110$:
                          11341 ;alien6.c:1773: if (state==STATE_DEAD){
   41BC 3Ar92r02      [13]11342 	ld	a,(#_state + 0)
   41BF D6 0B         [ 7]11343 	sub	a, #0x0B
   41C1 20 AA         [12]11344 	jr	NZ,00115$
                          11345 ;alien6.c:1774: prota.vidas--;
   41C3 3ArE9r00      [13]11346 	ld	a, (#(_prota + 0x000f) + 0)
   41C6 C6 FF         [ 7]11347 	add	a,#0xFF
   41C8 32rE9r00      [13]11348 	ld	(#(_prota + 0x000f)),a
                          11349 ;alien6.c:1775: state=protaDead();
   41CB CDrC2r37      [17]11350 	call	_protaDead
   41CE FD 21r92r02   [14]11351 	ld	iy,#_state
   41D2 FD 75 00      [19]11352 	ld	0 (iy),l
   41D5 18 96         [12]11353 	jr	00115$
                          11354 ;alien6.c:1780: case STATE_WIN:
   41D7                   11355 00118$:
                          11356 ;alien6.c:1781: state = win();
   41D7 CDr7Dr39      [17]11357 	call	_win
   41DA FD 21r92r02   [14]11358 	ld	iy,#_state
   41DE FD 75 00      [19]11359 	ld	0 (iy),l
                          11360 ;alien6.c:1782: break;
   41E1 C3r0Br41      [10]11361 	jp	00122$
                          11362 ;alien6.c:1784: case STATE_LOSE:
   41E4                   11363 00119$:
                          11364 ;alien6.c:1785: state = gameOver();
   41E4 CDrA9r35      [17]11365 	call	_gameOver
   41E7 FD 21r92r02   [14]11366 	ld	iy,#_state
   41EB FD 75 00      [19]11367 	ld	0 (iy),l
                          11368 ;alien6.c:1786: break;
   41EE C3r0Br41      [10]11369 	jp	00122$
                          11370 ;alien6.c:1788: default:
   41F1                   11371 00120$:
                          11372 ;alien6.c:1789: state = STATE_EXIT;
   41F1 21r92r02      [10]11373 	ld	hl,#_state + 0
   41F4 36 05         [10]11374 	ld	(hl), #0x05
                          11375 ;alien6.c:1791: }
   41F6 C3r0Br41      [10]11376 	jp	00122$
                          11377 ;alien6.c:1793: if (SONIDO_ACTIVADO) cpc_WyzSetPlayerOff();
   41F9                   11378 00125$:
   41F9 CDr00r00      [17]11379 	call	_cpc_WyzSetPlayerOff
                          11380 ;alien6.c:1795: return 0;  
   41FC 21 00 00      [10]11381 	ld	hl,#0x0000
   41FF C9            [10]11382 	ret
   4200                   11383 _main_end::
                          11384 	.area _CODE
                          11385 	.area _INITIALIZER
   0000                   11386 __xinit__trayectoria1:
   0000 00                11387 	.db #0x00	;  0
   0001 02                11388 	.db #0x02	;  2
   0002 04                11389 	.db #0x04	;  4
   0003 05                11390 	.db #0x05	;  5
   0004 06                11391 	.db #0x06	;  6
   0005 06                11392 	.db #0x06	;  6
   0006 06                11393 	.db #0x06	;  6
   0007 05                11394 	.db #0x05	;  5
   0008 04                11395 	.db #0x04	;  4
   0009 02                11396 	.db #0x02	;  2
   000A 00                11397 	.db #0x00	;  0
   000B FE                11398 	.db #0xFE	; -2
   000C FC                11399 	.db #0xFC	; -4
   000D FB                11400 	.db #0xFB	; -5
   000E FA                11401 	.db #0xFA	; -6
   000F FA                11402 	.db #0xFA	; -6
   0010 FA                11403 	.db #0xFA	; -6
   0011 FB                11404 	.db #0xFB	; -5
   0012 FC                11405 	.db #0xFC	; -4
   0013 FE                11406 	.db #0xFE	; -2
   0014                   11407 __xinit__tintas:
   0014 14                11408 	.db #0x14	; 20
   0015 01                11409 	.db #0x01	; 1
   0016 0B                11410 	.db #0x0B	; 11
   0017 09                11411 	.db #0x09	; 9
   0018 0A                11412 	.db #0x0A	; 10
   0019 0E                11413 	.db #0x0E	; 14
   001A 0C                11414 	.db #0x0C	; 12
   001B 1C                11415 	.db #0x1C	; 28
   001C 1A                11416 	.db #0x1A	; 26
   001D 16                11417 	.db #0x16	; 22
   001E 1E                11418 	.db #0x1E	; 30
   001F 13                11419 	.db #0x13	; 19
   0020 1F                11420 	.db #0x1F	; 31
   0021 17                11421 	.db #0x17	; 23
   0022 15                11422 	.db #0x15	; 21
   0023 10                11423 	.db #0x10	; 16
   0024 14                11424 	.db #0x14	; 20
   0025                   11425 __xinit__nave:
   0025 00                11426 	.db #0x00	; 0
   0026 51                11427 	.db #0x51	; 81	'Q'
   0027 A2                11428 	.db #0xA2	; 162
   0028 00                11429 	.db #0x00	; 0
   0029 00                11430 	.db #0x00	; 0
   002A 15                11431 	.db #0x15	; 21
   002B 2A                11432 	.db #0x2A	; 42
   002C 00                11433 	.db #0x00	; 0
   002D 00                11434 	.db #0x00	; 0
   002E 15                11435 	.db #0x15	; 21
   002F 2A                11436 	.db #0x2A	; 42
   0030 00                11437 	.db #0x00	; 0
   0031 00                11438 	.db #0x00	; 0
   0032 3F                11439 	.db #0x3F	; 63
   0033 3F                11440 	.db #0x3F	; 63
   0034 00                11441 	.db #0x00	; 0
   0035 00                11442 	.db #0x00	; 0
   0036 3F                11443 	.db #0x3F	; 63
   0037 3F                11444 	.db #0x3F	; 63
   0038 00                11445 	.db #0x00	; 0
   0039 00                11446 	.db #0x00	; 0
   003A 6F                11447 	.db #0x6F	; 111	'o'
   003B B7                11448 	.db #0xB7	; 183
   003C 00                11449 	.db #0x00	; 0
   003D A2                11450 	.db #0xA2	; 162
   003E 7B                11451 	.db #0x7B	; 123
   003F B7                11452 	.db #0xB7	; 183
   0040 51                11453 	.db #0x51	; 81	'Q'
   0041 2A                11454 	.db #0x2A	; 42
   0042 7B                11455 	.db #0x7B	; 123
   0043 B7                11456 	.db #0xB7	; 183
   0044 15                11457 	.db #0x15	; 21
   0045 2A                11458 	.db #0x2A	; 42
   0046 7B                11459 	.db #0x7B	; 123
   0047 B7                11460 	.db #0xB7	; 183
   0048 15                11461 	.db #0x15	; 21
   0049 3F                11462 	.db #0x3F	; 63
   004A 3F                11463 	.db #0x3F	; 63
   004B 3F                11464 	.db #0x3F	; 63
   004C 3F                11465 	.db #0x3F	; 63
   004D 3F                11466 	.db #0x3F	; 63
   004E 3F                11467 	.db #0x3F	; 63
   004F 3F                11468 	.db #0x3F	; 63
   0050 3F                11469 	.db #0x3F	; 63
   0051 BF                11470 	.db #0xBF	; 191
   0052 3F                11471 	.db #0x3F	; 63
   0053 3F                11472 	.db #0x3F	; 63
   0054 7F                11473 	.db #0x7F	; 127
   0055 BF                11474 	.db #0xBF	; 191
   0056 7F                11475 	.db #0x7F	; 127
   0057 BF                11476 	.db #0xBF	; 191
   0058 7F                11477 	.db #0x7F	; 127
   0059 55                11478 	.db #0x55	; 85	'U'
   005A FF                11479 	.db #0xFF	; 255
   005B FF                11480 	.db #0xFF	; 255
   005C AA                11481 	.db #0xAA	; 170
   005D AA                11482 	.db #0xAA	; 170
   005E B4                11483 	.db #0xB4	; 180
   005F 70                11484 	.db #0x70	; 112	'p'
   0060 55                11485 	.db #0x55	; 85	'U'
   0061 AA                11486 	.db #0xAA	; 170
   0062 10                11487 	.db #0x10	; 16
   0063 28                11488 	.db #0x28	; 40
   0064 55                11489 	.db #0x55	; 85	'U'
   0065                   11490 __xinit__shot:
   0065 10                11491 	.db #0x10	; 16
   0066 10                11492 	.db #0x10	; 16
   0067 10                11493 	.db #0x10	; 16
   0068 10                11494 	.db #0x10	; 16
   0069                   11495 __xinit__baddie01:
   0069 14                11496 	.db #0x14	; 20
   006A 00                11497 	.db #0x00	; 0
   006B 00                11498 	.db #0x00	; 0
   006C 28                11499 	.db #0x28	; 40
   006D 96                11500 	.db #0x96	; 150
   006E 00                11501 	.db #0x00	; 0
   006F 00                11502 	.db #0x00	; 0
   0070 69                11503 	.db #0x69	; 105	'i'
   0071 96                11504 	.db #0x96	; 150
   0072 28                11505 	.db #0x28	; 40
   0073 14                11506 	.db #0x14	; 20
   0074 69                11507 	.db #0x69	; 105	'i'
   0075 41                11508 	.db #0x41	; 65	'A'
   0076 3C                11509 	.db #0x3C	; 60
   0077 3C                11510 	.db #0x3C	; 60
   0078 82                11511 	.db #0x82	; 130
   0079 41                11512 	.db #0x41	; 65	'A'
   007A 38                11513 	.db #0x38	; 56	'8'
   007B 34                11514 	.db #0x34	; 52	'4'
   007C 82                11515 	.db #0x82	; 130
   007D 00                11516 	.db #0x00	; 0
   007E 38                11517 	.db #0x38	; 56	'8'
   007F 34                11518 	.db #0x34	; 52	'4'
   0080 00                11519 	.db #0x00	; 0
   0081 10                11520 	.db #0x10	; 16
   0082 3C                11521 	.db #0x3C	; 60
   0083 3C                11522 	.db #0x3C	; 60
   0084 20                11523 	.db #0x20	; 32
   0085 30                11524 	.db #0x30	; 48	'0'
   0086 14                11525 	.db #0x14	; 20
   0087 28                11526 	.db #0x28	; 40
   0088 30                11527 	.db #0x30	; 48	'0'
   0089 20                11528 	.db #0x20	; 32
   008A 3E                11529 	.db #0x3E	; 62
   008B 3D                11530 	.db #0x3D	; 61
   008C 10                11531 	.db #0x10	; 16
   008D 15                11532 	.db #0x15	; 21
   008E 3E                11533 	.db #0x3E	; 62
   008F 3D                11534 	.db #0x3D	; 61
   0090 2A                11535 	.db #0x2A	; 42
   0091 15                11536 	.db #0x15	; 21
   0092 14                11537 	.db #0x14	; 20
   0093 28                11538 	.db #0x28	; 40
   0094 2A                11539 	.db #0x2A	; 42
   0095 3F                11540 	.db #0x3F	; 63
   0096 10                11541 	.db #0x10	; 16
   0097 20                11542 	.db #0x20	; 32
   0098 3F                11543 	.db #0x3F	; 63
   0099 3F                11544 	.db #0x3F	; 63
   009A 00                11545 	.db #0x00	; 0
   009B 00                11546 	.db #0x00	; 0
   009C 3F                11547 	.db #0x3F	; 63
   009D 3F                11548 	.db #0x3F	; 63
   009E 00                11549 	.db #0x00	; 0
   009F 00                11550 	.db #0x00	; 0
   00A0 3F                11551 	.db #0x3F	; 63
   00A1 15                11552 	.db #0x15	; 21
   00A2 00                11553 	.db #0x00	; 0
   00A3 00                11554 	.db #0x00	; 0
   00A4 2A                11555 	.db #0x2A	; 42
   00A5                   11556 __xinit__explosion02000:
   00A5 00                11557 	.db #0x00	; 0
   00A6 00                11558 	.db #0x00	; 0
   00A7 00                11559 	.db #0x00	; 0
   00A8 00                11560 	.db #0x00	; 0
   00A9 00                11561 	.db #0x00	; 0
   00AA 54                11562 	.db #0x54	; 84	'T'
   00AB A8                11563 	.db #0xA8	; 168
   00AC 00                11564 	.db #0x00	; 0
   00AD 00                11565 	.db #0x00	; 0
   00AE FC                11566 	.db #0xFC	; 252
   00AF FC                11567 	.db #0xFC	; 252
   00B0 00                11568 	.db #0x00	; 0
   00B1 00                11569 	.db #0x00	; 0
   00B2 F8                11570 	.db #0xF8	; 248
   00B3 F4                11571 	.db #0xF4	; 244
   00B4 00                11572 	.db #0x00	; 0
   00B5 54                11573 	.db #0x54	; 84	'T'
   00B6 F0                11574 	.db #0xF0	; 240
   00B7 78                11575 	.db #0x78	; 120	'x'
   00B8 A8                11576 	.db #0xA8	; 168
   00B9 54                11577 	.db #0x54	; 84	'T'
   00BA B4                11578 	.db #0xB4	; 180
   00BB 70                11579 	.db #0x70	; 112	'p'
   00BC A8                11580 	.db #0xA8	; 168
   00BD 50                11581 	.db #0x50	; 80	'P'
   00BE 38                11582 	.db #0x38	; 56	'8'
   00BF 70                11583 	.db #0x70	; 112	'p'
   00C0 A8                11584 	.db #0xA8	; 168
   00C1 F8                11585 	.db #0xF8	; 248
   00C2 34                11586 	.db #0x34	; 52	'4'
   00C3 34                11587 	.db #0x34	; 52	'4'
   00C4 FC                11588 	.db #0xFC	; 252
   00C5 BC                11589 	.db #0xBC	; 188
   00C6 34                11590 	.db #0x34	; 52	'4'
   00C7 3C                11591 	.db #0x3C	; 60
   00C8 F4                11592 	.db #0xF4	; 244
   00C9 50                11593 	.db #0x50	; 80	'P'
   00CA 70                11594 	.db #0x70	; 112	'p'
   00CB 30                11595 	.db #0x30	; 48	'0'
   00CC 28                11596 	.db #0x28	; 40
   00CD 00                11597 	.db #0x00	; 0
   00CE F0                11598 	.db #0xF0	; 240
   00CF 34                11599 	.db #0x34	; 52	'4'
   00D0 A0                11600 	.db #0xA0	; 160
   00D1 00                11601 	.db #0x00	; 0
   00D2 FC                11602 	.db #0xFC	; 252
   00D3 F4                11603 	.db #0xF4	; 244
   00D4 A0                11604 	.db #0xA0	; 160
   00D5 00                11605 	.db #0x00	; 0
   00D6 F8                11606 	.db #0xF8	; 248
   00D7 F4                11607 	.db #0xF4	; 244
   00D8 A8                11608 	.db #0xA8	; 168
   00D9 00                11609 	.db #0x00	; 0
   00DA FC                11610 	.db #0xFC	; 252
   00DB FC                11611 	.db #0xFC	; 252
   00DC 00                11612 	.db #0x00	; 0
   00DD 00                11613 	.db #0x00	; 0
   00DE 54                11614 	.db #0x54	; 84	'T'
   00DF A8                11615 	.db #0xA8	; 168
   00E0 00                11616 	.db #0x00	; 0
   00E1 00                11617 	.db #0x00	; 0
   00E2 00                11618 	.db #0x00	; 0
   00E3 00                11619 	.db #0x00	; 0
   00E4 00                11620 	.db #0x00	; 0
   00E5                   11621 __xinit__explosion02001:
   00E5 00                11622 	.db #0x00	; 0
   00E6 00                11623 	.db #0x00	; 0
   00E7 00                11624 	.db #0x00	; 0
   00E8 00                11625 	.db #0x00	; 0
   00E9 00                11626 	.db #0x00	; 0
   00EA 00                11627 	.db #0x00	; 0
   00EB 00                11628 	.db #0x00	; 0
   00EC 00                11629 	.db #0x00	; 0
   00ED 00                11630 	.db #0x00	; 0
   00EE 00                11631 	.db #0x00	; 0
   00EF 00                11632 	.db #0x00	; 0
   00F0 00                11633 	.db #0x00	; 0
   00F1 00                11634 	.db #0x00	; 0
   00F2 00                11635 	.db #0x00	; 0
   00F3 A8                11636 	.db #0xA8	; 168
   00F4 00                11637 	.db #0x00	; 0
   00F5 00                11638 	.db #0x00	; 0
   00F6 BC                11639 	.db #0xBC	; 188
   00F7 28                11640 	.db #0x28	; 40
   00F8 00                11641 	.db #0x00	; 0
   00F9 54                11642 	.db #0x54	; 84	'T'
   00FA 3C                11643 	.db #0x3C	; 60
   00FB 3C                11644 	.db #0x3C	; 60
   00FC 00                11645 	.db #0x00	; 0
   00FD 54                11646 	.db #0x54	; 84	'T'
   00FE 38                11647 	.db #0x38	; 56	'8'
   00FF B4                11648 	.db #0xB4	; 180
   0100 28                11649 	.db #0x28	; 40
   0101 14                11650 	.db #0x14	; 20
   0102 F0                11651 	.db #0xF0	; 240
   0103 30                11652 	.db #0x30	; 48	'0'
   0104 7C                11653 	.db #0x7C	; 124
   0105 BC                11654 	.db #0xBC	; 188
   0106 B0                11655 	.db #0xB0	; 176
   0107 70                11656 	.db #0x70	; 112	'p'
   0108 28                11657 	.db #0x28	; 40
   0109 14                11658 	.db #0x14	; 20
   010A 78                11659 	.db #0x78	; 120	'x'
   010B F0                11660 	.db #0xF0	; 240
   010C 28                11661 	.db #0x28	; 40
   010D 54                11662 	.db #0x54	; 84	'T'
   010E 3C                11663 	.db #0x3C	; 60
   010F B4                11664 	.db #0xB4	; 180
   0110 A8                11665 	.db #0xA8	; 168
   0111 00                11666 	.db #0x00	; 0
   0112 3C                11667 	.db #0x3C	; 60
   0113 3C                11668 	.db #0x3C	; 60
   0114 A8                11669 	.db #0xA8	; 168
   0115 00                11670 	.db #0x00	; 0
   0116 FC                11671 	.db #0xFC	; 252
   0117 A8                11672 	.db #0xA8	; 168
   0118 00                11673 	.db #0x00	; 0
   0119 00                11674 	.db #0x00	; 0
   011A 54                11675 	.db #0x54	; 84	'T'
   011B 00                11676 	.db #0x00	; 0
   011C 00                11677 	.db #0x00	; 0
   011D 00                11678 	.db #0x00	; 0
   011E 00                11679 	.db #0x00	; 0
   011F 00                11680 	.db #0x00	; 0
   0120 00                11681 	.db #0x00	; 0
   0121 00                11682 	.db #0x00	; 0
   0122 00                11683 	.db #0x00	; 0
   0123 00                11684 	.db #0x00	; 0
   0124 00                11685 	.db #0x00	; 0
   0125                   11686 __xinit__explosion02002:
   0125 00                11687 	.db #0x00	; 0
   0126 00                11688 	.db #0x00	; 0
   0127 00                11689 	.db #0x00	; 0
   0128 00                11690 	.db #0x00	; 0
   0129 00                11691 	.db #0x00	; 0
   012A 00                11692 	.db #0x00	; 0
   012B 00                11693 	.db #0x00	; 0
   012C 00                11694 	.db #0x00	; 0
   012D 00                11695 	.db #0x00	; 0
   012E 00                11696 	.db #0x00	; 0
   012F 00                11697 	.db #0x00	; 0
   0130 00                11698 	.db #0x00	; 0
   0131 00                11699 	.db #0x00	; 0
   0132 14                11700 	.db #0x14	; 20
   0133 00                11701 	.db #0x00	; 0
   0134 00                11702 	.db #0x00	; 0
   0135 00                11703 	.db #0x00	; 0
   0136 00                11704 	.db #0x00	; 0
   0137 00                11705 	.db #0x00	; 0
   0138 00                11706 	.db #0x00	; 0
   0139 00                11707 	.db #0x00	; 0
   013A 28                11708 	.db #0x28	; 40
   013B 00                11709 	.db #0x00	; 0
   013C 00                11710 	.db #0x00	; 0
   013D 14                11711 	.db #0x14	; 20
   013E 3C                11712 	.db #0x3C	; 60
   013F 3C                11713 	.db #0x3C	; 60
   0140 00                11714 	.db #0x00	; 0
   0141 14                11715 	.db #0x14	; 20
   0142 78                11716 	.db #0x78	; 120	'x'
   0143 28                11717 	.db #0x28	; 40
   0144 00                11718 	.db #0x00	; 0
   0145 78                11719 	.db #0x78	; 120	'x'
   0146 38                11720 	.db #0x38	; 56	'8'
   0147 3C                11721 	.db #0x3C	; 60
   0148 28                11722 	.db #0x28	; 40
   0149 50                11723 	.db #0x50	; 80	'P'
   014A 3C                11724 	.db #0x3C	; 60
   014B B4                11725 	.db #0xB4	; 180
   014C 00                11726 	.db #0x00	; 0
   014D 14                11727 	.db #0x14	; 20
   014E 34                11728 	.db #0x34	; 52	'4'
   014F 34                11729 	.db #0x34	; 52	'4'
   0150 00                11730 	.db #0x00	; 0
   0151 00                11731 	.db #0x00	; 0
   0152 3C                11732 	.db #0x3C	; 60
   0153 3C                11733 	.db #0x3C	; 60
   0154 00                11734 	.db #0x00	; 0
   0155 00                11735 	.db #0x00	; 0
   0156 3C                11736 	.db #0x3C	; 60
   0157 00                11737 	.db #0x00	; 0
   0158 00                11738 	.db #0x00	; 0
   0159 00                11739 	.db #0x00	; 0
   015A 00                11740 	.db #0x00	; 0
   015B 00                11741 	.db #0x00	; 0
   015C 00                11742 	.db #0x00	; 0
   015D 00                11743 	.db #0x00	; 0
   015E 00                11744 	.db #0x00	; 0
   015F 00                11745 	.db #0x00	; 0
   0160 00                11746 	.db #0x00	; 0
   0161 00                11747 	.db #0x00	; 0
   0162 00                11748 	.db #0x00	; 0
   0163 00                11749 	.db #0x00	; 0
   0164 00                11750 	.db #0x00	; 0
   0165                   11751 __xinit__explosion02003:
   0165 00                11752 	.db #0x00	; 0
   0166 00                11753 	.db #0x00	; 0
   0167 00                11754 	.db #0x00	; 0
   0168 00                11755 	.db #0x00	; 0
   0169 00                11756 	.db #0x00	; 0
   016A 00                11757 	.db #0x00	; 0
   016B 00                11758 	.db #0x00	; 0
   016C 00                11759 	.db #0x00	; 0
   016D 00                11760 	.db #0x00	; 0
   016E 00                11761 	.db #0x00	; 0
   016F 00                11762 	.db #0x00	; 0
   0170 00                11763 	.db #0x00	; 0
   0171 00                11764 	.db #0x00	; 0
   0172 00                11765 	.db #0x00	; 0
   0173 00                11766 	.db #0x00	; 0
   0174 00                11767 	.db #0x00	; 0
   0175 00                11768 	.db #0x00	; 0
   0176 50                11769 	.db #0x50	; 80	'P'
   0177 00                11770 	.db #0x00	; 0
   0178 00                11771 	.db #0x00	; 0
   0179 00                11772 	.db #0x00	; 0
   017A 00                11773 	.db #0x00	; 0
   017B 10                11774 	.db #0x10	; 16
   017C 00                11775 	.db #0x00	; 0
   017D 00                11776 	.db #0x00	; 0
   017E 00                11777 	.db #0x00	; 0
   017F 00                11778 	.db #0x00	; 0
   0180 00                11779 	.db #0x00	; 0
   0181 00                11780 	.db #0x00	; 0
   0182 20                11781 	.db #0x20	; 32
   0183 00                11782 	.db #0x00	; 0
   0184 00                11783 	.db #0x00	; 0
   0185 50                11784 	.db #0x50	; 80	'P'
   0186 00                11785 	.db #0x00	; 0
   0187 10                11786 	.db #0x10	; 16
   0188 00                11787 	.db #0x00	; 0
   0189 00                11788 	.db #0x00	; 0
   018A 50                11789 	.db #0x50	; 80	'P'
   018B 00                11790 	.db #0x00	; 0
   018C 00                11791 	.db #0x00	; 0
   018D 00                11792 	.db #0x00	; 0
   018E 00                11793 	.db #0x00	; 0
   018F 00                11794 	.db #0x00	; 0
   0190 A0                11795 	.db #0xA0	; 160
   0191 00                11796 	.db #0x00	; 0
   0192 00                11797 	.db #0x00	; 0
   0193 20                11798 	.db #0x20	; 32
   0194 00                11799 	.db #0x00	; 0
   0195 00                11800 	.db #0x00	; 0
   0196 A0                11801 	.db #0xA0	; 160
   0197 00                11802 	.db #0x00	; 0
   0198 00                11803 	.db #0x00	; 0
   0199 00                11804 	.db #0x00	; 0
   019A 00                11805 	.db #0x00	; 0
   019B 50                11806 	.db #0x50	; 80	'P'
   019C 00                11807 	.db #0x00	; 0
   019D 00                11808 	.db #0x00	; 0
   019E 00                11809 	.db #0x00	; 0
   019F 00                11810 	.db #0x00	; 0
   01A0 00                11811 	.db #0x00	; 0
   01A1 00                11812 	.db #0x00	; 0
   01A2 00                11813 	.db #0x00	; 0
   01A3 00                11814 	.db #0x00	; 0
   01A4 00                11815 	.db #0x00	; 0
   01A5                   11816 __xinit__explosion02004:
   01A5 00                11817 	.db #0x00	; 0
   01A6 00                11818 	.db #0x00	; 0
   01A7 00                11819 	.db #0x00	; 0
   01A8 00                11820 	.db #0x00	; 0
   01A9 00                11821 	.db #0x00	; 0
   01AA 00                11822 	.db #0x00	; 0
   01AB 00                11823 	.db #0x00	; 0
   01AC 00                11824 	.db #0x00	; 0
   01AD 00                11825 	.db #0x00	; 0
   01AE 00                11826 	.db #0x00	; 0
   01AF 00                11827 	.db #0x00	; 0
   01B0 00                11828 	.db #0x00	; 0
   01B1 00                11829 	.db #0x00	; 0
   01B2 00                11830 	.db #0x00	; 0
   01B3 00                11831 	.db #0x00	; 0
   01B4 00                11832 	.db #0x00	; 0
   01B5 00                11833 	.db #0x00	; 0
   01B6 00                11834 	.db #0x00	; 0
   01B7 00                11835 	.db #0x00	; 0
   01B8 00                11836 	.db #0x00	; 0
   01B9 00                11837 	.db #0x00	; 0
   01BA 00                11838 	.db #0x00	; 0
   01BB 00                11839 	.db #0x00	; 0
   01BC 00                11840 	.db #0x00	; 0
   01BD 00                11841 	.db #0x00	; 0
   01BE 00                11842 	.db #0x00	; 0
   01BF 00                11843 	.db #0x00	; 0
   01C0 00                11844 	.db #0x00	; 0
   01C1 00                11845 	.db #0x00	; 0
   01C2 00                11846 	.db #0x00	; 0
   01C3 00                11847 	.db #0x00	; 0
   01C4 00                11848 	.db #0x00	; 0
   01C5 00                11849 	.db #0x00	; 0
   01C6 00                11850 	.db #0x00	; 0
   01C7 00                11851 	.db #0x00	; 0
   01C8 00                11852 	.db #0x00	; 0
   01C9 00                11853 	.db #0x00	; 0
   01CA 00                11854 	.db #0x00	; 0
   01CB 00                11855 	.db #0x00	; 0
   01CC 00                11856 	.db #0x00	; 0
   01CD 00                11857 	.db #0x00	; 0
   01CE 00                11858 	.db #0x00	; 0
   01CF 00                11859 	.db #0x00	; 0
   01D0 00                11860 	.db #0x00	; 0
   01D1 00                11861 	.db #0x00	; 0
   01D2 00                11862 	.db #0x00	; 0
   01D3 00                11863 	.db #0x00	; 0
   01D4 00                11864 	.db #0x00	; 0
   01D5 00                11865 	.db #0x00	; 0
   01D6 00                11866 	.db #0x00	; 0
   01D7 00                11867 	.db #0x00	; 0
   01D8 00                11868 	.db #0x00	; 0
   01D9 00                11869 	.db #0x00	; 0
   01DA 00                11870 	.db #0x00	; 0
   01DB 00                11871 	.db #0x00	; 0
   01DC 00                11872 	.db #0x00	; 0
   01DD 00                11873 	.db #0x00	; 0
   01DE 00                11874 	.db #0x00	; 0
   01DF 00                11875 	.db #0x00	; 0
   01E0 00                11876 	.db #0x00	; 0
   01E1 00                11877 	.db #0x00	; 0
   01E2 00                11878 	.db #0x00	; 0
   01E3 00                11879 	.db #0x00	; 0
   01E4 00                11880 	.db #0x00	; 0
   01E5                   11881 __xinit__shot2:
   01E5 55                11882 	.db #0x55	;  85	'U'
   01E6 00                11883 	.db #0x00	;  0
   01E7 BF                11884 	.db #0xBF	; -65
   01E8 AA                11885 	.db #0xAA	; -86
   01E9 BF                11886 	.db #0xBF	; -65
   01EA AA                11887 	.db #0xAA	; -86
   01EB BF                11888 	.db #0xBF	; -65
   01EC AA                11889 	.db #0xAA	; -86
   01ED BF                11890 	.db #0xBF	; -65
   01EE AA                11891 	.db #0xAA	; -86
   01EF 55                11892 	.db #0x55	;  85	'U'
   01F0 00                11893 	.db #0x00	;  0
   01F1                   11894 __xinit__shot3:
   01F1 14                11895 	.db #0x14	; 20
   01F2 00                11896 	.db #0x00	; 0
   01F3 78                11897 	.db #0x78	; 120	'x'
   01F4 28                11898 	.db #0x28	; 40
   01F5 78                11899 	.db #0x78	; 120	'x'
   01F6 28                11900 	.db #0x28	; 40
   01F7 14                11901 	.db #0x14	; 20
   01F8 00                11902 	.db #0x00	; 0
   01F9                   11903 __xinit__heart:
   01F9 50                11904 	.db #0x50	; 80	'P'
   01FA 14                11905 	.db #0x14	; 20
   01FB 00                11906 	.db #0x00	; 0
   01FC B4                11907 	.db #0xB4	; 180
   01FD 3C                11908 	.db #0x3C	; 60
   01FE 28                11909 	.db #0x28	; 40
   01FF B4                11910 	.db #0xB4	; 180
   0200 3C                11911 	.db #0x3C	; 60
   0201 28                11912 	.db #0x28	; 40
   0202 14                11913 	.db #0x14	; 20
   0203 3C                11914 	.db #0x3C	; 60
   0204 00                11915 	.db #0x00	; 0
   0205 00                11916 	.db #0x00	; 0
   0206 28                11917 	.db #0x28	; 40
   0207 00                11918 	.db #0x00	; 0
   0208                   11919 __xinit__heart2:
   0208 03                11920 	.db #0x03	; 3
   0209 05                11921 	.db #0x05	; 5
   020A 50                11922 	.db #0x50	; 80	'P'
   020B 14                11923 	.db #0x14	; 20
   020C 00                11924 	.db #0x00	; 0
   020D B4                11925 	.db #0xB4	; 180
   020E 3C                11926 	.db #0x3C	; 60
   020F 28                11927 	.db #0x28	; 40
   0210 B4                11928 	.db #0xB4	; 180
   0211 3C                11929 	.db #0x3C	; 60
   0212 28                11930 	.db #0x28	; 40
   0213 14                11931 	.db #0x14	; 20
   0214 3C                11932 	.db #0x3C	; 60
   0215 00                11933 	.db #0x00	; 0
   0216 00                11934 	.db #0x00	; 0
   0217 28                11935 	.db #0x28	; 40
   0218 00                11936 	.db #0x00	; 0
   0219                   11937 __xinit__plane:
   0219 00                11938 	.db #0x00	; 0
   021A 2A                11939 	.db #0x2A	; 42
   021B 00                11940 	.db #0x00	; 0
   021C 00                11941 	.db #0x00	; 0
   021D 2A                11942 	.db #0x2A	; 42
   021E 00                11943 	.db #0x00	; 0
   021F 15                11944 	.db #0x15	; 21
   0220 FF                11945 	.db #0xFF	; 255
   0221 00                11946 	.db #0x00	; 0
   0222 7F                11947 	.db #0x7F	; 127
   0223 FF                11948 	.db #0xFF	; 255
   0224 AA                11949 	.db #0xAA	; 170
   0225 00                11950 	.db #0x00	; 0
   0226 AA                11951 	.db #0xAA	; 170
   0227 00                11952 	.db #0x00	; 0
   0228                   11953 __xinit__greenFlag:
   0228 00                11954 	.db #0x00	; 0
   0229 0E                11955 	.db #0x0E	; 14
   022A 05                11956 	.db #0x05	; 5
   022B 0E                11957 	.db #0x0E	; 14
   022C 0F                11958 	.db #0x0F	; 15
   022D 0E                11959 	.db #0x0E	; 14
   022E 0F                11960 	.db #0x0F	; 15
   022F 0E                11961 	.db #0x0E	; 14
   0230 00                11962 	.db #0x00	; 0
   0231 04                11963 	.db #0x04	; 4
   0232 00                11964 	.db #0x00	; 0
   0233 04                11965 	.db #0x04	; 4
   0234                   11966 __xinit__redFlag:
   0234 00                11967 	.db #0x00	; 0
   0235 2C                11968 	.db #0x2C	; 44
   0236 14                11969 	.db #0x14	; 20
   0237 2C                11970 	.db #0x2C	; 44
   0238 3C                11971 	.db #0x3C	; 60
   0239 2C                11972 	.db #0x2C	; 44
   023A 3C                11973 	.db #0x3C	; 60
   023B 2C                11974 	.db #0x2C	; 44
   023C 00                11975 	.db #0x00	; 0
   023D 04                11976 	.db #0x04	; 4
   023E 00                11977 	.db #0x00	; 0
   023F 04                11978 	.db #0x04	; 4
   0240                   11979 __xinit__baddie02:
   0240 00                11980 	.db #0x00	; 0
   0241 0F                11981 	.db #0x0F	; 15
   0242 1B                11982 	.db #0x1B	; 27
   0243 00                11983 	.db #0x00	; 0
   0244 05                11984 	.db #0x05	; 5
   0245 0F                11985 	.db #0x0F	; 15
   0246 0F                11986 	.db #0x0F	; 15
   0247 22                11987 	.db #0x22	; 34
   0248 0F                11988 	.db #0x0F	; 15
   0249 5B                11989 	.db #0x5B	; 91
   024A 2F                11990 	.db #0x2F	; 47
   024B 1B                11991 	.db #0x1B	; 27
   024C 0F                11992 	.db #0x0F	; 15
   024D F3                11993 	.db #0xF3	; 243
   024E 9F                11994 	.db #0x9F	; 159
   024F 1B                11995 	.db #0x1B	; 27
   0250 87                11996 	.db #0x87	; 135
   0251 5B                11997 	.db #0x5B	; 91
   0252 A7                11998 	.db #0xA7	; 167
   0253 0F                11999 	.db #0x0F	; 15
   0254 83                12000 	.db #0x83	; 131
   0255 0F                12001 	.db #0x0F	; 15
   0256 0F                12002 	.db #0x0F	; 15
   0257 0F                12003 	.db #0x0F	; 15
   0258 41                12004 	.db #0x41	; 65	'A'
   0259 07                12005 	.db #0x07	; 7
   025A 0F                12006 	.db #0x0F	; 15
   025B 0A                12007 	.db #0x0A	; 10
   025C 00                12008 	.db #0x00	; 0
   025D C3                12009 	.db #0xC3	; 195
   025E 0F                12010 	.db #0x0F	; 15
   025F 00                12011 	.db #0x00	; 0
   0260                   12012 __xinit__baddie03:
   0260 FF                12013 	.db #0xFF	; 255
   0261 FF                12014 	.db #0xFF	; 255
   0262 FF                12015 	.db #0xFF	; 255
   0263 FF                12016 	.db #0xFF	; 255
   0264 FF                12017 	.db #0xFF	; 255
   0265 A3                12018 	.db #0xA3	; 163
   0266 53                12019 	.db #0x53	; 83	'S'
   0267 7F                12020 	.db #0x7F	; 127
   0268 55                12021 	.db #0x55	; 85	'U'
   0269 A7                12022 	.db #0xA7	; 167
   026A 53                12023 	.db #0x53	; 83	'S'
   026B 2A                12024 	.db #0x2A	; 42
   026C 55                12025 	.db #0x55	; 85	'U'
   026D A7                12026 	.db #0xA7	; 167
   026E 5B                12027 	.db #0x5B	; 91
   026F 2A                12028 	.db #0x2A	; 42
   0270 00                12029 	.db #0x00	; 0
   0271 FB                12030 	.db #0xFB	; 251
   0272 B7                12031 	.db #0xB7	; 183
   0273 00                12032 	.db #0x00	; 0
   0274 00                12033 	.db #0x00	; 0
   0275 FB                12034 	.db #0xFB	; 251
   0276 B7                12035 	.db #0xB7	; 183
   0277 00                12036 	.db #0x00	; 0
   0278 00                12037 	.db #0x00	; 0
   0279 55                12038 	.db #0x55	; 85	'U'
   027A 2A                12039 	.db #0x2A	; 42
   027B 00                12040 	.db #0x00	; 0
   027C 00                12041 	.db #0x00	; 0
   027D 55                12042 	.db #0x55	; 85	'U'
   027E 2A                12043 	.db #0x2A	; 42
   027F 00                12044 	.db #0x00	; 0
   0280                   12045 __xinit__toque000:
   0280 40                12046 	.db #0x40	; 64
   0281 80                12047 	.db #0x80	; 128
   0282 00                12048 	.db #0x00	; 0
   0283 00                12049 	.db #0x00	; 0
   0284 00                12050 	.db #0x00	; 0
   0285 00                12051 	.db #0x00	; 0
   0286 00                12052 	.db #0x00	; 0
   0287 00                12053 	.db #0x00	; 0
   0288 00                12054 	.db #0x00	; 0
   0289 00                12055 	.db #0x00	; 0
   028A 00                12056 	.db #0x00	; 0
   028B 00                12057 	.db #0x00	; 0
   028C 00                12058 	.db #0x00	; 0
   028D 00                12059 	.db #0x00	; 0
   028E 00                12060 	.db #0x00	; 0
   028F 00                12061 	.db #0x00	; 0
   0290                   12062 __xinit__toque001:
   0290 40                12063 	.db #0x40	; 64
   0291 80                12064 	.db #0x80	; 128
   0292 00                12065 	.db #0x00	; 0
   0293 00                12066 	.db #0x00	; 0
   0294 40                12067 	.db #0x40	; 64
   0295 00                12068 	.db #0x00	; 0
   0296 00                12069 	.db #0x00	; 0
   0297 80                12070 	.db #0x80	; 128
   0298 40                12071 	.db #0x40	; 64
   0299 40                12072 	.db #0x40	; 64
   029A 00                12073 	.db #0x00	; 0
   029B 00                12074 	.db #0x00	; 0
   029C 00                12075 	.db #0x00	; 0
   029D 00                12076 	.db #0x00	; 0
   029E 00                12077 	.db #0x00	; 0
   029F 00                12078 	.db #0x00	; 0
   02A0                   12079 __xinit__toque002:
   02A0 00                12080 	.db #0x00	; 0
   02A1 00                12081 	.db #0x00	; 0
   02A2 00                12082 	.db #0x00	; 0
   02A3 00                12083 	.db #0x00	; 0
   02A4 00                12084 	.db #0x00	; 0
   02A5 00                12085 	.db #0x00	; 0
   02A6 00                12086 	.db #0x00	; 0
   02A7 00                12087 	.db #0x00	; 0
   02A8 40                12088 	.db #0x40	; 64
   02A9 00                12089 	.db #0x00	; 0
   02AA 80                12090 	.db #0x80	; 128
   02AB 80                12091 	.db #0x80	; 128
   02AC 00                12092 	.db #0x00	; 0
   02AD 40                12093 	.db #0x40	; 64
   02AE 00                12094 	.db #0x00	; 0
   02AF 00                12095 	.db #0x00	; 0
   02B0                   12096 __xinit__toque003:
   02B0 00                12097 	.db #0x00	; 0
   02B1 00                12098 	.db #0x00	; 0
   02B2 00                12099 	.db #0x00	; 0
   02B3 00                12100 	.db #0x00	; 0
   02B4 00                12101 	.db #0x00	; 0
   02B5 00                12102 	.db #0x00	; 0
   02B6 00                12103 	.db #0x00	; 0
   02B7 00                12104 	.db #0x00	; 0
   02B8 00                12105 	.db #0x00	; 0
   02B9 00                12106 	.db #0x00	; 0
   02BA 00                12107 	.db #0x00	; 0
   02BB 00                12108 	.db #0x00	; 0
   02BC 80                12109 	.db #0x80	; 128
   02BD 00                12110 	.db #0x00	; 0
   02BE 00                12111 	.db #0x00	; 0
   02BF 40                12112 	.db #0x40	; 64
   02C0                   12113 __xinit__toque004:
   02C0 00                12114 	.db #0x00	; 0
   02C1 00                12115 	.db #0x00	; 0
   02C2 00                12116 	.db #0x00	; 0
   02C3 00                12117 	.db #0x00	; 0
   02C4 00                12118 	.db #0x00	; 0
   02C5 00                12119 	.db #0x00	; 0
   02C6 00                12120 	.db #0x00	; 0
   02C7 00                12121 	.db #0x00	; 0
   02C8 00                12122 	.db #0x00	; 0
   02C9 00                12123 	.db #0x00	; 0
   02CA 00                12124 	.db #0x00	; 0
   02CB 00                12125 	.db #0x00	; 0
   02CC 00                12126 	.db #0x00	; 0
   02CD 00                12127 	.db #0x00	; 0
   02CE 00                12128 	.db #0x00	; 0
   02CF 00                12129 	.db #0x00	; 0
   02D0                   12130 __xinit__fire000:
   02D0 B4                12131 	.db #0xB4	; 180
   02D1 70                12132 	.db #0x70	; 112	'p'
   02D2 10                12133 	.db #0x10	; 16
   02D3 28                12134 	.db #0x28	; 40
   02D4                   12135 __xinit__fire001:
   02D4 70                12136 	.db #0x70	; 112	'p'
   02D5 38                12137 	.db #0x38	; 56	'8'
   02D6 14                12138 	.db #0x14	; 20
   02D7 A0                12139 	.db #0xA0	; 160
   02D8                   12140 __xinit__fire002:
   02D8 38                12141 	.db #0x38	; 56	'8'
   02D9 B4                12142 	.db #0xB4	; 180
   02DA 50                12143 	.db #0x50	; 80	'P'
   02DB 20                12144 	.db #0x20	; 32
   02DC                   12145 __xinit__addones000:
   02DC 11                12146 	.db #0x11	; 17
   02DD C0                12147 	.db #0xC0	; 192
   02DE C0                12148 	.db #0xC0	; 192
   02DF 80                12149 	.db #0x80	; 128
   02E0 11                12150 	.db #0x11	; 17
   02E1 C0                12151 	.db #0xC0	; 192
   02E2 C0                12152 	.db #0xC0	; 192
   02E3 80                12153 	.db #0x80	; 128
   02E4 11                12154 	.db #0x11	; 17
   02E5 C0                12155 	.db #0xC0	; 192
   02E6 C0                12156 	.db #0xC0	; 192
   02E7 80                12157 	.db #0x80	; 128
   02E8 11                12158 	.db #0x11	; 17
   02E9 C0                12159 	.db #0xC0	; 192
   02EA C0                12160 	.db #0xC0	; 192
   02EB 80                12161 	.db #0x80	; 128
   02EC 00                12162 	.db #0x00	; 0
   02ED 62                12163 	.db #0x62	; 98	'b'
   02EE C0                12164 	.db #0xC0	; 192
   02EF 00                12165 	.db #0x00	; 0
   02F0 00                12166 	.db #0x00	; 0
   02F1 62                12167 	.db #0x62	; 98	'b'
   02F2 C0                12168 	.db #0xC0	; 192
   02F3 00                12169 	.db #0x00	; 0
   02F4 00                12170 	.db #0x00	; 0
   02F5 40                12171 	.db #0x40	; 64
   02F6 80                12172 	.db #0x80	; 128
   02F7 00                12173 	.db #0x00	; 0
   02F8 00                12174 	.db #0x00	; 0
   02F9 11                12175 	.db #0x11	; 17
   02FA 22                12176 	.db #0x22	; 34
   02FB 00                12177 	.db #0x00	; 0
   02FC                   12178 __xinit__addones001:
   02FC 00                12179 	.db #0x00	; 0
   02FD AA                12180 	.db #0xAA	; 170
   02FE 00                12181 	.db #0x00	; 0
   02FF AA                12182 	.db #0xAA	; 170
   0300 55                12183 	.db #0x55	; 85	'U'
   0301 2A                12184 	.db #0x2A	; 42
   0302 55                12185 	.db #0x55	; 85	'U'
   0303 2A                12186 	.db #0x2A	; 42
   0304 15                12187 	.db #0x15	; 21
   0305 2A                12188 	.db #0x2A	; 42
   0306 15                12189 	.db #0x15	; 21
   0307 2A                12190 	.db #0x2A	; 42
   0308 15                12191 	.db #0x15	; 21
   0309 2A                12192 	.db #0x2A	; 42
   030A 15                12193 	.db #0x15	; 21
   030B 2A                12194 	.db #0x2A	; 42
   030C 15                12195 	.db #0x15	; 21
   030D 2A                12196 	.db #0x2A	; 42
   030E 15                12197 	.db #0x15	; 21
   030F 2A                12198 	.db #0x2A	; 42
   0310 15                12199 	.db #0x15	; 21
   0311 2A                12200 	.db #0x2A	; 42
   0312 15                12201 	.db #0x15	; 21
   0313 2A                12202 	.db #0x2A	; 42
   0314 15                12203 	.db #0x15	; 21
   0315 2A                12204 	.db #0x2A	; 42
   0316 15                12205 	.db #0x15	; 21
   0317 2A                12206 	.db #0x2A	; 42
   0318 55                12207 	.db #0x55	; 85	'U'
   0319 AA                12208 	.db #0xAA	; 170
   031A 55                12209 	.db #0x55	; 85	'U'
   031B AA                12210 	.db #0xAA	; 170
   031C                   12211 __xinit__addones002:
   031C 8A                12212 	.db #0x8A	; 138
   031D 51                12213 	.db #0x51	; 81	'Q'
   031E 00                12214 	.db #0x00	; 0
   031F A2                12215 	.db #0xA2	; 162
   0320 11                12216 	.db #0x11	; 17
   0321 11                12217 	.db #0x11	; 17
   0322 11                12218 	.db #0x11	; 17
   0323 00                12219 	.db #0x00	; 0
   0324 00                12220 	.db #0x00	; 0
   0325 9B                12221 	.db #0x9B	; 155
   0326 22                12222 	.db #0x22	; 34
   0327 00                12223 	.db #0x00	; 0
   0328 B3                12224 	.db #0xB3	; 179
   0329 33                12225 	.db #0x33	; 51	'3'
   032A 33                12226 	.db #0x33	; 51	'3'
   032B A2                12227 	.db #0xA2	; 162
   032C 00                12228 	.db #0x00	; 0
   032D 33                12229 	.db #0x33	; 51	'3'
   032E 22                12230 	.db #0x22	; 34
   032F 00                12231 	.db #0x00	; 0
   0330 11                12232 	.db #0x11	; 17
   0331 11                12233 	.db #0x11	; 17
   0332 11                12234 	.db #0x11	; 17
   0333 00                12235 	.db #0x00	; 0
   0334 A2                12236 	.db #0xA2	; 162
   0335 51                12237 	.db #0x51	; 81	'Q'
   0336 00                12238 	.db #0x00	; 0
   0337 A2                12239 	.db #0xA2	; 162
   0338 00                12240 	.db #0x00	; 0
   0339 00                12241 	.db #0x00	; 0
   033A 00                12242 	.db #0x00	; 0
   033B 00                12243 	.db #0x00	; 0
   033C                   12244 __xinit__addones003:
   033C 00                12245 	.db #0x00	; 0
   033D 00                12246 	.db #0x00	; 0
   033E 00                12247 	.db #0x00	; 0
   033F 00                12248 	.db #0x00	; 0
   0340 10                12249 	.db #0x10	; 16
   0341 A8                12250 	.db #0xA8	; 168
   0342 BC                12251 	.db #0xBC	; 188
   0343 28                12252 	.db #0x28	; 40
   0344 30                12253 	.db #0x30	; 48	'0'
   0345 A8                12254 	.db #0xA8	; 168
   0346 BC                12255 	.db #0xBC	; 188
   0347 14                12256 	.db #0x14	; 20
   0348 10                12257 	.db #0x10	; 16
   0349 A8                12258 	.db #0xA8	; 168
   034A BC                12259 	.db #0xBC	; 188
   034B 14                12260 	.db #0x14	; 20
   034C 10                12261 	.db #0x10	; 16
   034D A8                12262 	.db #0xA8	; 168
   034E BC                12263 	.db #0xBC	; 188
   034F 28                12264 	.db #0x28	; 40
   0350 10                12265 	.db #0x10	; 16
   0351 A8                12266 	.db #0xA8	; 168
   0352 BC                12267 	.db #0xBC	; 188
   0353 00                12268 	.db #0x00	; 0
   0354 10                12269 	.db #0x10	; 16
   0355 54                12270 	.db #0x54	; 84	'T'
   0356 14                12271 	.db #0x14	; 20
   0357 00                12272 	.db #0x00	; 0
   0358 00                12273 	.db #0x00	; 0
   0359 00                12274 	.db #0x00	; 0
   035A 00                12275 	.db #0x00	; 0
   035B 00                12276 	.db #0x00	; 0
   035C                   12277 __xinit__timer0:
   035C 00 00             12278 	.dw #0x0000
   035E                   12279 __xinit__timer1:
   035E 00 00             12280 	.dw #0x0000
   0360                   12281 __xinit__nFPS:
   0360 00                12282 	.db #0x00	; 0
   0361                   12283 __xinit__nTimeLast:
   0361 00 00 00 00       12284 	.byte #0x00,#0x00,#0x00,#0x00	; 0
   0365                   12285 __xinit__nStar:
   0365 00                12286 	.db #0x00	; 0
   0366                   12287 __xinit__pStar:
   0366 00 00             12288 	.dw #0x0000
   0368                   12289 __xinit__lastMovedEstrella:
   0368 00 00 00 00       12290 	.byte #0x00,#0x00,#0x00,#0x00	;  0
   036C                   12291 __xinit__estrellasMovidas:
   036C 00                12292 	.db #0x00	; 0
   036D                   12293 __xinit__score:
   036D 00 00             12294 	.dw #0x0000
   036F                   12295 __xinit__cambio_score:
   036F 00                12296 	.db #0x00	; 0
                          12297 	.area _CABS (ABS)
